 engine

 Timestamp is 52febf5f (Fri Feb 14 17:14:07 2014)

 Preferred load address is 0000000180000000

 Start         Length     Name                   Class
 0001:00000000 0006b77dH .text                   CODE
 0001:0006b780 00001f99H .text$x                 CODE
 0001:0006d720 00001056H .text$yc                CODE
 0001:0006e780 0000103eH .text$yd                CODE
 0002:00000000 00000109H .CRT$XCA                DATA
 0002:00000110 0000011bH .CRT$XCU                DATA
 0002:00000230 00000109H .CRT$XCZ                DATA
 0002:00000340 00000109H .CRT$XIA                DATA
 0002:00000450 00000126H .CRT$XIC                DATA
 0002:00000578 00000109H .CRT$XIZ                DATA
 0002:00000688 00000109H .CRT$XPA                DATA
 0002:00000798 00000113H .CRT$XPX                DATA
 0002:000008b0 00000109H .CRT$XPXA               DATA
 0002:000009c0 00000109H .CRT$XPZ                DATA
 0002:00000ad0 00000109H .CRT$XTA                DATA
 0002:00000be0 00000109H .CRT$XTZ                DATA
 0002:00000cf0 0000fd6fH .rdata                  DATA
 0002:00010a60 00000178H .rdata$debug            DATA
 0002:00010bd8 00000af0H .rdata$r                DATA
 0002:000116c8 00000109H .rtc$IAA                DATA
 0002:000117d8 00000109H .rtc$IZZ                DATA
 0002:000118e8 00000109H .rtc$TAA                DATA
 0002:000119f8 00000109H .rtc$TZZ                DATA
 0002:00011b08 0000329dH .xdata                  DATA
 0002:00014da8 00000211H .xdata$x                DATA
 0002:00014fb9 00000000H .edata                  DATA
 0003:00000000 00001eefH .data                   DATA
 0003:00001f00 000053e1H .bss                    DATA
 0004:00000000 00003054H .pdata                  DATA
 0005:00000000 00000028H .idata$2                DATA
 0005:00000028 00000014H .idata$3                DATA
 0005:00000040 00000420H .idata$4                DATA
 0005:00000460 00000420H .idata$5                DATA
 0005:00000880 0000098aH .idata$6                DATA

  Address         Publics by Value              Rva+Base               Lib:Object

 0000:00000000       ___safe_se_handler_count   0000000000000000     <absolute>
 0000:00000000       ___safe_se_handler_table   0000000000000000     <absolute>
 0000:00000000       __ImageBase                0000000180000000     <linker-defined>
 0001:00000210       ??$MemoryCopyConstruct@UAppVariable@@@Container@@YAXPEAUAppVariable@@AEBU1@@Z 0000000180001210 f i AppVariables.obj
 0001:000002a0       ??$MemoryDestruct@UAppVariable@@@Container@@YAXPEAUAppVariable@@@Z 00000001800012a0 f i AppVariables.obj
 0001:000002b0       ??$vsnprintf_s@$0EAA@@@YAHAEAY0EAA@D_KPEBDPEAD@Z 00000001800012b0 f i AppVariables.obj
 0001:000002e0       ??0?$Vector@UAppVariable@@@Container@@QEAA@XZ 00000001800012e0 f i AppVariables.obj
 0001:000002f0       ??0AppVariable@@QEAA@PEBD0@Z 00000001800012f0 f   AppVariables.obj
 0001:000004a0       ??0AppVariableManager@@QEAA@XZ 00000001800014a0 f i AppVariables.obj
 0001:000004b0       ??1?$Vector@UAppVariable@@@Container@@QEAA@XZ 00000001800014b0 f i AppVariables.obj
 0001:000004f0       ??1AppVariableManager@@QEAA@XZ 00000001800014f0 f i AppVariables.obj
 0001:00000530       ??2@YAPEAX_KPEAX@Z         0000000180001530 f i AppVariables.obj
 0001:00000540       ??A?$Vector@UAppVariable@@@Container@@QEAAAEAUAppVariable@@H@Z 0000000180001540 f i AppVariables.obj
 0001:00000560       ?AddElement@?$Vector@UAppVariable@@@Container@@QEAAIIAEBUAppVariable@@@Z 0000000180001560 f i AppVariables.obj
 0001:00000630       ?AddElementToBack@?$Vector@UAppVariable@@@Container@@QEAAIAEBUAppVariable@@@Z 0000000180001630 f i AppVariables.obj
 0001:00000640       ?Count@?$Vector@UAppVariable@@@Container@@QEBAIXZ 0000000180001640 f i AppVariables.obj
 0001:00000650       ?Element@?$Vector@UAppVariable@@@Container@@QEAAAEAUAppVariable@@I@Z 0000000180001650 f i AppVariables.obj
 0001:00000670       ?GrowVector@?$Vector@UAppVariable@@@Container@@AEAAXI@Z 0000000180001670 f i AppVariables.obj
 0001:000007c0       ?RegisterVariable@AppVariableManager@@QEAAPEAUAppVariable@@PEBD0@Z 00000001800017c0 f   AppVariables.obj
 0001:000008a0       ?ShiftElementsRight@?$Vector@UAppVariable@@@Container@@AEAAXII@Z 00000001800018a0 f i AppVariables.obj
 0001:000008f0       ?c99_snprintf@@YAHPEAD_KPEBDZZ 00000001800018f0 f i AppVariables.obj
 0001:00000950       ?c99_vsnprintf@@YAHPEAD_KPEBD0@Z 0000000180001950 f i AppVariables.obj
 0001:000009b0       ??0CEngine@@QEAA@XZ        00000001800019b0 f   CEngine.obj
 0001:000009e0       ??0CEngineClient@@QEAA@XZ  00000001800019e0 f i CEngine.obj
 0001:000009f0       ??0IEngine@@QEAA@XZ        00000001800019f0 f i CEngine.obj
 0001:00000a10       ??_H@YAXPEAX_KHP6APEAX0@Z@Z 0000000180001a10 f i CEngine.obj
 0001:00000a70       ??_I@YAXPEAX_KHP6AX0@Z@Z   0000000180001a70 f i CEngine.obj
 0001:00000ae0       ?FinishedExecution@CEngine@@UEAA_NXZ 0000000180001ae0 f i CEngine.obj
 0001:00000af0       ?GetPlatform@@YAPEAVIPlatform@@XZ 0000000180001af0 f   CEngine.obj
 0001:00000c20       ?Initialize@CEngine@@UEAAXXZ 0000000180001c20 f   CEngine.obj
 0001:00000cc0       ?InitializeLocal@CEngineClient@@QEAAXXZ 0000000180001cc0 f i CEngine.obj
 0001:00000cd0       ?Run@CEngine@@UEAAXXZ      0000000180001cd0 f   CEngine.obj
 0001:00000d40       ?Shutdown@CEngine@@UEAAXXZ 0000000180001d40 f   CEngine.obj
 0001:00000d80       ?__CreateEngine@@YAPEAXXZ  0000000180001d80 f   CEngine.obj
 0001:00000dd0       ?__DestroyEngine@@YAXPEAX@Z 0000000180001dd0 f   CEngine.obj
 0001:00000de0       ??$strncat_s@$0BAE@@@YAHAEAY0BAE@DPEBD_K@Z 0000000180001de0 f i CExtensions.obj
 0001:00000e00       ??0CExtensions@@QEAA@XZ    0000000180001e00 f   CExtensions.obj
 0001:00000e90       ??0IExtensions@@QEAA@XZ    0000000180001e90 f i CExtensions.obj
 0001:00000eb0       ??0send_buffer_t@@QEAA@XZ  0000000180001eb0 f i CExtensions.obj
 0001:00000ee0       ??1CExtensions@@UEAA@XZ    0000000180001ee0 f i CExtensions.obj
 0001:00000f60       ??1IExtensions@@UEAA@XZ    0000000180001f60 f i CExtensions.obj
 0001:00000f70       ??1send_buffer_t@@QEAA@XZ  0000000180001f70 f i CExtensions.obj
 0001:00000f80       ??_ECExtensions@@UEAAPEAXI@Z 0000000180001f80 f i CExtensions.obj
 0001:00000f80       ??_GCExtensions@@UEAAPEAXI@Z 0000000180001f80 f i CExtensions.obj
 0001:00001010       ??_GIExtensions@@UEAAPEAXI@Z 0000000180002010 f i CExtensions.obj
 0001:00001010       ??_EIExtensions@@UEAAPEAXI@Z 0000000180002010 f i CExtensions.obj
 0001:00001040       ?DestroyAllExtensions@CExtensions@@UEAAXXZ 0000000180002040 f   CExtensions.obj
 0001:00001100       ?DispatchPendingMessages@CExtensions@@QEAAXXZ 0000000180002100 f   CExtensions.obj
 0001:00001220       ?GetNumSendBuffers@CExtensions@@UEBAIXZ 0000000180002220 f i CExtensions.obj
 0001:00001230       ?GetSendBuffer@CExtensions@@UEAAPEAVDataBuffer@DataPacking@@I@Z 0000000180002230 f i CExtensions.obj
 0001:00001390       ?HookExtension@CExtensions@@UEAA_NPEBD@Z 0000000180002390 f   CExtensions.obj
 0001:00001560       ?InvalidateSendBuffers@CExtensions@@UEAAXXZ 0000000180002560 f i CExtensions.obj
 0001:00001570       ?RunExtensions@CExtensions@@UEAAXXZ 0000000180002570 f   CExtensions.obj
 0001:000016d0       ?SendBuffer@CExtensions@@UEAAXPEBDPEAVDataBuffer@DataPacking@@@Z 00000001800026d0 f   CExtensions.obj
 0001:000017fe       util_strncpy               00000001800027fe f   utilities:utilities.dll
 0001:00001804       MessageBoxWIN              0000000180002804 f   utilities:utilities.dll
 0001:0000180a       ??0InterfaceElement@@QEAA@P6APEAXXZP6AXPEAX@ZPEBDH_N@Z 000000018000280a f   utilities:utilities.dll
 0001:00001810       ?GetInterface@InterfaceRegistration@@QEAAPEAXPEBDH@Z 0000000180002810 f   utilities:utilities.dll
 0001:00001816       GetInterfaceRegistration   0000000180002816 f   utilities:utilities.dll
 0001:0000181c       ?ReleaseInterfacePointer@InterfaceRegistration@@QEAAXPEBDPEAX@Z 000000018000281c f   utilities:utilities.dll
 0001:00001822       ??0DataBuffer@DataPacking@@QEAA@II@Z 0000000180002822 f   utilities:utilities.dll
 0001:00001828       ??1DataBuffer@DataPacking@@QEAA@XZ 0000000180002828 f   utilities:utilities.dll
 0001:0000182e       ??4DataBuffer@DataPacking@@QEAAAEAV01@AEBV01@@Z 000000018000282e f   utilities:utilities.dll
 0001:00001840       __onexitinit               0000000180002840 f   LIBCMTD:onexit.obj
 0001:000018b0       _onexit                    00000001800028b0 f   LIBCMTD:onexit.obj
 0001:00001ab0       atexit                     0000000180002ab0 f   LIBCMTD:onexit.obj
 0001:00001af0       _vsnprintf_c               0000000180002af0 f   LIBCMTD:vsnprnc.obj
 0001:00001b60       _vsnprintf_c_l             0000000180002b60 f   LIBCMTD:vsnprnc.obj
 0001:00001bd0       _vsnprintf_helper          0000000180002bd0 f   LIBCMTD:vsnprnc.obj
 0001:00001eb0       _vsnprintf_s               0000000180002eb0 f   LIBCMTD:vsnprnc.obj
 0001:00001eb0       vsnprintf_s                0000000180002eb0 f   LIBCMTD:vsnprnc.obj
 0001:00001f00       _vsnprintf_s_l             0000000180002f00 f   LIBCMTD:vsnprnc.obj
 0001:000024a0       _vsprintf_p                00000001800034a0 f   LIBCMTD:vsnprnc.obj
 0001:00002510       _vsprintf_p_l              0000000180003510 f   LIBCMTD:vsnprnc.obj
 0001:00002580       _vsprintf_s_l              0000000180003580 f   LIBCMTD:vsnprnc.obj
 0001:00002910       vsprintf_s                 0000000180003910 f   LIBCMTD:vsnprnc.obj
 0001:00002950       _vscprintf                 0000000180003950 f   LIBCMTD:vsprintf.obj
 0001:00002980       _vscprintf_helper          0000000180003980 f   LIBCMTD:vsprintf.obj
 0001:00002ad0       _vscprintf_l               0000000180003ad0 f   LIBCMTD:vsprintf.obj
 0001:00002b10       _vscprintf_p               0000000180003b10 f   LIBCMTD:vsprintf.obj
 0001:00002b40       _vscprintf_p_l             0000000180003b40 f   LIBCMTD:vsprintf.obj
 0001:00002b80       _vsprintf_l                0000000180003b80 f   LIBCMTD:vsprintf.obj
 0001:00002df0       vsprintf                   0000000180003df0 f   LIBCMTD:vsprintf.obj
 0001:00002e20       ??0_LocaleUpdate@@QEAA@PEAUlocaleinfo_struct@@@Z 0000000180003e20 f i LIBCMTD:atof.obj
 0001:00002f60       ??1_LocaleUpdate@@QEAA@XZ  0000000180003f60 f i LIBCMTD:atof.obj
 0001:00002fa0       ?GetLocaleT@_LocaleUpdate@@QEAAPEAUlocaleinfo_struct@@XZ 0000000180003fa0 f i LIBCMTD:atof.obj
 0001:00002fb0       __STRINGTOLD               0000000180003fb0 f   LIBCMTD:atof.obj
 0001:00003020       __strgtold12               0000000180004020 f   LIBCMTD:atof.obj
 0001:000030b0       _atof_l                    00000001800040b0 f   LIBCMTD:atof.obj
 0001:000032a0       atof                       00000001800042a0 f   LIBCMTD:atof.obj
 0001:000032c0       _atoi64                    00000001800042c0 f   LIBCMTD:atox.obj
 0001:000032e0       _atoi64_l                  00000001800042e0 f   LIBCMTD:atox.obj
 0001:00003310       _atoi_l                    0000000180004310 f   LIBCMTD:atox.obj
 0001:00003340       _atol_l                    0000000180004340 f   LIBCMTD:atox.obj
 0001:00003370       atoi                       0000000180004370 f   LIBCMTD:atox.obj
 0001:00003390       atol                       0000000180004390 f   LIBCMTD:atox.obj
 0001:000033b0       free                       00000001800043b0 f   LIBCMTD:dbgfree.obj
 0001:000033d0       malloc                     00000001800043d0 f   LIBCMTD:dbgmalloc.obj
 0001:00003410       realloc                    0000000180004410 f   LIBCMTD:dbgrealloc.obj
 0001:00003460       memcpy                     0000000180004460 f   LIBCMTD:memcpy.obj
 0001:00003460       memmove                    0000000180004460     LIBCMTD:memcpy.obj
 0001:00003960       strncmp                    0000000180004960 f   LIBCMTD:strncmp.obj
 0001:000039e0       _fpmath                    00000001800049e0 f   LIBCMTD:fpinit.obj
 0001:00003a00       __setfflag                 0000000180004a00 f   LIBCMTD:fpinit.obj
 0001:00003a30       _cfltcvt_init              0000000180004a30 f   LIBCMTD:fpinit.obj
 0001:00003b40       _get_purecall_handler      0000000180004b40 f   LIBCMTD:purevirt.obj
 0001:00003b60       _purecall                  0000000180004b60 f   LIBCMTD:purevirt.obj
 0001:00003bb0       _set_purecall_handler      0000000180004bb0 f   LIBCMTD:purevirt.obj
 0001:00003bf0       ??0bad_alloc@std@@QEAA@AEBV01@@Z 0000000180004bf0 f i LIBCMTD:new.obj
 0001:00003c30       ??0bad_alloc@std@@QEAA@XZ  0000000180004c30 f i LIBCMTD:new.obj
 0001:00003c80       ??1bad_alloc@std@@UEAA@XZ  0000000180004c80 f i LIBCMTD:new.obj
 0001:00003cb0       ??2@YAPEAX_K@Z             0000000180004cb0 f   LIBCMTD:new.obj
 0001:00003d10       ??_Ebad_alloc@std@@UEAAPEAXI@Z 0000000180004d10 f i LIBCMTD:new.obj
 0001:00003d10       ??_Gbad_alloc@std@@UEAAPEAXI@Z 0000000180004d10 f i LIBCMTD:new.obj
 0001:00003d50       ??3@YAXPEAX@Z              0000000180004d50 f   LIBCMTD:dbgdel.obj
 0001:00003e20       ??0type_info@@AEAA@AEBV0@@Z 0000000180004e20 f   LIBCMTD:typinfo.obj
 0001:00003e40       ??1type_info@@UEAA@XZ      0000000180004e40 f   LIBCMTD:typinfo.obj
 0001:00003e70       ??4type_info@@AEAAAEAV0@AEBV0@@Z 0000000180004e70 f   LIBCMTD:typinfo.obj
 0001:00003e80       ??8type_info@@QEBA_NAEBV0@@Z 0000000180004e80 f   LIBCMTD:typinfo.obj
 0001:00003ed0       ??9type_info@@QEBA_NAEBV0@@Z 0000000180004ed0 f   LIBCMTD:typinfo.obj
 0001:00003f20       ??_Gtype_info@@UEAAPEAXI@Z 0000000180004f20 f i LIBCMTD:typinfo.obj
 0001:00003f20       ??_Etype_info@@UEAAPEAXI@Z 0000000180004f20 f i LIBCMTD:typinfo.obj
 0001:00003f60       ?_name_internal_method@type_info@@QEBAPEBDPEAU__type_info_node@@@Z 0000000180004f60 f   LIBCMTD:typinfo.obj
 0001:00003f90       ?_type_info_dtor_internal_method@type_info@@QEAAXXZ 0000000180004f90 f   LIBCMTD:typinfo.obj
 0001:00003fb0       ?before@type_info@@QEBA_NAEBV1@@Z 0000000180004fb0 f   LIBCMTD:typinfo.obj
 0001:00004000       ?name@type_info@@QEBAPEBDPEAU__type_info_node@@@Z 0000000180005000 f   LIBCMTD:typinfo.obj
 0001:00004030       ?raw_name@type_info@@QEBAPEBDXZ 0000000180005030 f   LIBCMTD:typinfo.obj
 0001:00004040       strncat_s                  0000000180005040 f   LIBCMTD:strncat_s.obj
 0001:000047b0       _CRT_INIT                  00000001800057b0 f   LIBCMTD:dllcrt0.obj
 0001:000049a0       _DllMainCRTStartup         00000001800059a0 f   LIBCMTD:dllcrt0.obj
 0001:00004b40       __DllXcptFilter            0000000180005b40 f   LIBCMTD:dllcrt0.obj
 0001:00004b90       __copy_path_to_wide_string 0000000180005b90 f   LIBCMTD:crt0dat.obj
 0001:00004e10       __crtCorExitProcess        0000000180005e10 f   LIBCMTD:crt0dat.obj
 0001:00004e60       __crtExitProcess           0000000180005e60 f   LIBCMTD:crt0dat.obj
 0001:00004e80       __freeCrtMemory            0000000180005e80 f   LIBCMTD:crt0dat.obj
 0001:000050a0       _amsg_exit                 00000001800060a0 f   LIBCMTD:crt0dat.obj
 0001:000050d0       _c_exit                    00000001800060d0 f   LIBCMTD:crt0dat.obj
 0001:000050f0       _cexit                     00000001800060f0 f   LIBCMTD:crt0dat.obj
 0001:00005110       _cinit                     0000000180006110 f   LIBCMTD:crt0dat.obj
 0001:000051c0       _exit                      00000001800061c0 f   LIBCMTD:crt0dat.obj
 0001:000051e0       _get_pgmptr                00000001800061e0 f   LIBCMTD:crt0dat.obj
 0001:00005350       _get_wpgmptr               0000000180006350 f   LIBCMTD:crt0dat.obj
 0001:000054c0       _init_pointers             00000001800064c0 f   LIBCMTD:crt0dat.obj
 0001:00005570       _initterm_e                0000000180006570 f   LIBCMTD:crt0dat.obj
 0001:000055d0       _lockexit                  00000001800065d0 f   LIBCMTD:crt0dat.obj
 0001:000055f0       _unlockexit                00000001800065f0 f   LIBCMTD:crt0dat.obj
 0001:00005820       exit                       0000000180006820 f   LIBCMTD:crt0dat.obj
 0001:00005d70       _CrtCheckMemory            0000000180006d70 f   LIBCMTD:dbgheap.obj
 0001:00006310       _CrtDoForAllClientObjects  0000000180007310 f   LIBCMTD:dbgheap.obj
 0001:00006440       _CrtDumpMemoryLeaks        0000000180007440 f   LIBCMTD:dbgheap.obj
 0001:00006500       _CrtGetAllocHook           0000000180007500 f   LIBCMTD:dbgheap.obj
 0001:00006510       _CrtGetCheckCount          0000000180007510 f   LIBCMTD:dbgheap.obj
 0001:00006520       _CrtGetDumpClient          0000000180007520 f   LIBCMTD:dbgheap.obj
 0001:00006530       _CrtIsMemoryBlock          0000000180007530 f   LIBCMTD:dbgheap.obj
 0001:000066b0       _CrtIsValidHeapPointer     00000001800076b0 f   LIBCMTD:dbgheap.obj
 0001:00006710       _CrtIsValidPointer         0000000180007710 f   LIBCMTD:dbgheap.obj
 0001:00006750       _CrtMemCheckpoint          0000000180007750 f   LIBCMTD:dbgheap.obj
 0001:000069e0       _CrtMemDifference          00000001800079e0 f   LIBCMTD:dbgheap.obj
 0001:00006d10       _CrtMemDumpAllObjectsSince 0000000180007d10 f   LIBCMTD:dbgheap.obj
 0001:00006d60       _CrtMemDumpStatistics      0000000180007d60 f   LIBCMTD:dbgheap.obj
 0001:00006ef0       _CrtReportBlockType        0000000180007ef0 f   LIBCMTD:dbgheap.obj
 0001:00006f30       _CrtSetAllocHook           0000000180007f30 f   LIBCMTD:dbgheap.obj
 0001:00006f60       _CrtSetBreakAlloc          0000000180007f60 f   LIBCMTD:dbgheap.obj
 0001:00006f90       _CrtSetCheckCount          0000000180007f90 f   LIBCMTD:dbgheap.obj
 0001:00006fb0       _CrtSetDbgBlockType        0000000180007fb0 f   LIBCMTD:dbgheap.obj
 0001:00007080       _CrtSetDbgFlag             0000000180008080 f   LIBCMTD:dbgheap.obj
 0001:000071c0       _CrtSetDebugFillThreshold  00000001800081c0 f   LIBCMTD:dbgheap.obj
 0001:000071f0       _CrtSetDumpClient          00000001800081f0 f   LIBCMTD:dbgheap.obj
 0001:00007220       _aligned_free              0000000180008220 f   LIBCMTD:dbgheap.obj
 0001:00007240       _aligned_free_dbg          0000000180008240 f   LIBCMTD:dbgheap.obj
 0001:00007330       _aligned_malloc            0000000180008330 f   LIBCMTD:dbgheap.obj
 0001:00007360       _aligned_malloc_dbg        0000000180008360 f   LIBCMTD:dbgheap.obj
 0001:000073a0       _aligned_msize             00000001800083a0 f   LIBCMTD:dbgheap.obj
 0001:000073d0       _aligned_msize_dbg         00000001800083d0 f   LIBCMTD:dbgheap.obj
 0001:00007590       _aligned_offset_malloc     0000000180008590 f   LIBCMTD:dbgheap.obj
 0001:000075d0       _aligned_offset_malloc_dbg 00000001800085d0 f   LIBCMTD:dbgheap.obj
 0001:000078b0       _aligned_offset_realloc    00000001800088b0 f   LIBCMTD:dbgheap.obj
 0001:00007900       _aligned_offset_realloc_dbg 0000000180008900 f   LIBCMTD:dbgheap.obj
 0001:00007da0       _aligned_offset_recalloc   0000000180008da0 f   LIBCMTD:dbgheap.obj
 0001:00007e00       _aligned_offset_recalloc_dbg 0000000180008e00 f   LIBCMTD:dbgheap.obj
 0001:00007f20       _aligned_realloc           0000000180008f20 f   LIBCMTD:dbgheap.obj
 0001:00007f60       _aligned_realloc_dbg       0000000180008f60 f   LIBCMTD:dbgheap.obj
 0001:00007fb0       _aligned_recalloc          0000000180008fb0 f   LIBCMTD:dbgheap.obj
 0001:00008000       _aligned_recalloc_dbg      0000000180009000 f   LIBCMTD:dbgheap.obj
 0001:00008060       _calloc_dbg                0000000180009060 f   LIBCMTD:dbgheap.obj
 0001:000080e0       _calloc_dbg_impl           00000001800090e0 f   LIBCMTD:dbgheap.obj
 0001:00008190       _expand                    0000000180009190 f   LIBCMTD:dbgheap.obj
 0001:000081d0       _expand_dbg                00000001800091d0 f   LIBCMTD:dbgheap.obj
 0001:000082f0       _free_dbg                  00000001800092f0 f   LIBCMTD:dbgheap.obj
 0001:00008330       _free_dbg_nolock           0000000180009330 f   LIBCMTD:dbgheap.obj
 0001:00008a20       _free_nolock               0000000180009a20 f   LIBCMTD:dbgheap.obj
 0001:00008a40       _heap_alloc                0000000180009a40 f   LIBCMTD:dbgheap.obj
 0001:00008a70       _heap_alloc_dbg            0000000180009a70 f   LIBCMTD:dbgheap.obj
 0001:00008f90       _invoke_watson_if_oneof    0000000180009f90 f i LIBCMTD:dbgheap.obj
 0001:00009000       _malloc_dbg                000000018000a000 f   LIBCMTD:dbgheap.obj
 0001:00009050       _msize                     000000018000a050 f   LIBCMTD:dbgheap.obj
 0001:00009070       _msize_dbg                 000000018000a070 f   LIBCMTD:dbgheap.obj
 0001:000092b0       _nh_malloc                 000000018000a2b0 f   LIBCMTD:dbgheap.obj
 0001:000092f0       _nh_malloc_dbg             000000018000a2f0 f   LIBCMTD:dbgheap.obj
 0001:00009690       _realloc_dbg               000000018000a690 f   LIBCMTD:dbgheap.obj
 0001:00009700       _recalloc                  000000018000a700 f   LIBCMTD:dbgheap.obj
 0001:00009750       _recalloc_dbg              000000018000a750 f   LIBCMTD:dbgheap.obj
 0001:0000a150       __C_specific_handler       000000018000b150 f   LIBCMTD:chandler.obj
 0001:0000a570       ?_invalid_parameter@@YAXPEBG00I_K@Z 000000018000b570 f   LIBCMTD:invarg.obj
 0001:0000a5b0       ?_invoke_watson@@YAXPEBG00I_K@Z 000000018000b5b0 f   LIBCMTD:invarg.obj
 0001:0000a5f0       _call_reportfault          000000018000b5f0 f   LIBCMTD:invarg.obj
 0001:0000a720       _get_invalid_parameter_handler 000000018000b720 f   LIBCMTD:invarg.obj
 0001:0000a760       _initp_misc_invarg         000000018000b760 f   LIBCMTD:invarg.obj
 0001:0000a780       _invalid_parameter         000000018000b780 f   LIBCMTD:invarg.obj
 0001:0000a810       _invoke_watson             000000018000b810 f   LIBCMTD:invarg.obj
 0001:0000a870       _set_invalid_parameter_handler 000000018000b870 f   LIBCMTD:invarg.obj
 0001:0000a8d0       _flsbuf                    000000018000b8d0 f   LIBCMTD:_flsbuf.obj
 0001:0000ac80       ?_CrtDbgReportW@@YAHHPEBGH00ZZ 000000018000bc80 f   LIBCMTD:dbgrptw.obj
 0001:0000ad00       _CrtDbgReportW             000000018000bd00 f   LIBCMTD:dbgrptw.obj
 0001:0000ad80       _CrtDbgReportWV            000000018000bd80 f i LIBCMTD:dbgrptw.obj
 0001:0000ade0       _CrtSetReportHookW2        000000018000bde0 f   LIBCMTD:dbgrptw.obj
 0001:0000b1f0       __crtMessageWindowW        000000018000c1f0 f   LIBCMTD:dbgrptw.obj
 0001:0000b870       _invoke_watson_if_error    000000018000c870 f i LIBCMTD:dbgrptw.obj
 0001:0000b8d0       memset                     000000018000c8d0 f   LIBCMTD:memset.obj
 0001:0000b9e0       _output_l                  000000018000c9e0 f   LIBCMTD:output.obj
 0001:0000d200       get_int64_arg              000000018000e200 f i LIBCMTD:output.obj
 0001:0000d270       get_int_arg                000000018000e270 f i LIBCMTD:output.obj
 0001:0000d2d0       get_short_arg              000000018000e2d0 f i LIBCMTD:output.obj
 0001:0000d570       _output_s_l                000000018000e570 f   LIBCMTD:outputs.obj
 0001:0000f170       _output_p_l                0000000180010170 f   LIBCMTD:outputp.obj
 0001:00013670       _validate_param_reuseA     0000000180014670 f   LIBCMTD:outputp.obj
 0001:000139e0       get_crtdouble_arg          00000001800149e0 f i LIBCMTD:outputp.obj
 0001:00013c80       __doserrno                 0000000180014c80 f   LIBCMTD:dosmap.obj
 0001:00013cb0       _dosmaperr                 0000000180014cb0 f   LIBCMTD:dosmap.obj
 0001:00013ce0       _errno                     0000000180014ce0 f   LIBCMTD:dosmap.obj
 0001:00013d10       _get_doserrno              0000000180014d10 f   LIBCMTD:dosmap.obj
 0001:00013dd0       _get_errno                 0000000180014dd0 f   LIBCMTD:dosmap.obj
 0001:00013e90       _get_errno_from_oserr      0000000180014e90 f   LIBCMTD:dosmap.obj
 0001:00013f20       _set_doserrno              0000000180014f20 f   LIBCMTD:dosmap.obj
 0001:00013f60       _set_errno                 0000000180014f60 f   LIBCMTD:dosmap.obj
 0001:00013fa0       _fltin2                    0000000180014fa0 f   LIBCMTD:cfin.obj
 0001:000140f0       __STRINGTOLD_L             00000001800150f0 f   LIBCMTD:strgtold.obj
 0001:000141a0       __addl                     00000001800151a0 f i LIBCMTD:strgtold.obj
 0001:00014200       __ld12mul                  0000000180015200 f i LIBCMTD:strgtold.obj
 0001:00014770       __multtenpow12             0000000180015770 f i LIBCMTD:strgtold.obj
 0001:000148a0       __shl_12                   00000001800158a0 f i LIBCMTD:strgtold.obj
 0001:00014940       __shr_12                   0000000180015940 f i LIBCMTD:strgtold.obj
 0001:000149e0       __strgtold12_l             00000001800159e0 f   LIBCMTD:strgtold.obj
 0001:000157a0       __addlocaleref             00000001800167a0 f   LIBCMTD:localref.obj
 0001:000158f0       __freetlocinfo             00000001800168f0 f   LIBCMTD:localref.obj
 0001:00015ca0       __removelocaleref          0000000180016ca0 f   LIBCMTD:localref.obj
 0001:00015e00       __updatetlocinfo           0000000180016e00 f   LIBCMTD:localref.obj
 0001:00015ea0       _updatetlocinfoEx_nolock   0000000180016ea0 f   LIBCMTD:localref.obj
 0001:00015f40       __initmbctable             0000000180016f40 f   LIBCMTD:mbctype.obj
 0001:000165d0       __updatetmbcinfo           00000001800175d0 f   LIBCMTD:mbctype.obj
 0001:000166d0       _getmbcp                   00000001800176d0 f   LIBCMTD:mbctype.obj
 0001:00016750       _setmbcp                   0000000180017750 f   LIBCMTD:mbctype.obj
 0001:00016a40       _setmbcp_nolock            0000000180017a40 f   LIBCMTD:mbctype.obj
 0001:00016e90       _chvalidator               0000000180017e90 f   LIBCMTD:isctype.obj
 0001:00016f00       _chvalidator_l             0000000180017f00 f   LIBCMTD:isctype.obj
 0001:00017010       _isctype                   0000000180018010 f   LIBCMTD:isctype.obj
 0001:00017060       _isctype_l                 0000000180018060 f   LIBCMTD:isctype.obj
 0001:00017240       __get_flsindex             0000000180018240 f   LIBCMTD:tidtable.obj
 0001:00017250       __threadhandle             0000000180018250 f   LIBCMTD:tidtable.obj
 0001:00017260       __threadid                 0000000180018260 f   LIBCMTD:tidtable.obj
 0001:00017270       _freefls                   0000000180018270 f   LIBCMTD:tidtable.obj
 0001:00017480       _freeptd                   0000000180018480 f   LIBCMTD:tidtable.obj
 0001:000174d0       _getptd                    00000001800184d0 f   LIBCMTD:tidtable.obj
 0001:00017500       _getptd_noexit             0000000180018500 f   LIBCMTD:tidtable.obj
 0001:000175d0       _initptd                   00000001800185d0 f   LIBCMTD:tidtable.obj
 0001:000176f0       _mtinit                    00000001800186f0 f   LIBCMTD:tidtable.obj
 0001:000177b0       _mtterm                    00000001800187b0 f   LIBCMTD:tidtable.obj
 0001:000177e0       __GSHandlerCheck           00000001800187e0 f   LIBCMTD:gshandler.obj
 0001:00017820       __GSHandlerCheckCommon     0000000180018820 f   LIBCMTD:gshandler.obj
 0001:00017930       __security_check_cookie    0000000180018930 f   LIBCMTD:amdsecgs.obj
 0001:00017ff0       _strtoi64                  0000000180018ff0 f   LIBCMTD:strtoq.obj
 0001:00018060       _strtoi64_l                0000000180019060 f   LIBCMTD:strtoq.obj
 0001:000180a0       _strtoui64                 00000001800190a0 f   LIBCMTD:strtoq.obj
 0001:00018110       _strtoui64_l               0000000180019110 f   LIBCMTD:strtoq.obj
 0001:00018840       _strtol_l                  0000000180019840 f   LIBCMTD:strtol.obj
 0001:00018880       _strtoul_l                 0000000180019880 f   LIBCMTD:strtol.obj
 0001:000188c0       strtol                     00000001800198c0 f   LIBCMTD:strtol.obj
 0001:00018930       strtoul                    0000000180019930 f   LIBCMTD:strtol.obj
 0001:000189a0       __isa_available_init       00000001800199a0 f   LIBCMTD:cpu_disp.obj
 0001:00018b90       ?strrchr@@YAPEADPEADH@Z    0000000180019b90 f i LIBCMTD:cvt.obj
 0001:00018bb0       _cfltcvt                   0000000180019bb0 f   LIBCMTD:cvt.obj
 0001:00018c00       _cfltcvt_l                 0000000180019c00 f   LIBCMTD:cvt.obj
 0001:00018d20       _cftoa                     0000000180019d20 f   LIBCMTD:cvt.obj
 0001:00018d70       _cftoa_l                   0000000180019d70 f   LIBCMTD:cvt.obj
 0001:00019870       _cftoe                     000000018001a870 f   LIBCMTD:cvt.obj
 0001:00019e90       _cftoe_l                   000000018001ae90 f   LIBCMTD:cvt.obj
 0001:0001a1d0       _cftof                     000000018001b1d0 f   LIBCMTD:cvt.obj
 0001:0001a5d0       _cftof_l                   000000018001b5d0 f   LIBCMTD:cvt.obj
 0001:0001a8b0       _cftog                     000000018001b8b0 f   LIBCMTD:cvt.obj
 0001:0001a900       _cftog_l                   000000018001b900 f   LIBCMTD:cvt.obj
 0001:0001acc0       _cropzeros                 000000018001bcc0 f   LIBCMTD:cvt.obj
 0001:0001ace0       _cropzeros_l               000000018001bce0 f   LIBCMTD:cvt.obj
 0001:0001ae60       _fassign                   000000018001be60 f   LIBCMTD:cvt.obj
 0001:0001ae90       _fassign_l                 000000018001be90 f   LIBCMTD:cvt.obj
 0001:0001af00       _forcdecpt                 000000018001bf00 f   LIBCMTD:cvt.obj
 0001:0001af20       _forcdecpt_l               000000018001bf20 f   LIBCMTD:cvt.obj
 0001:0001b020       _positive                  000000018001c020 f   LIBCMTD:cvt.obj
 0001:0001b0b0       _initp_misc_cfltcvt_tab    000000018001c0b0 f   LIBCMTD:cmiscdat.obj
 0001:0001b100       _FF_MSGBANNER              000000018001c100 f   LIBCMTD:crt0msg.obj
 0001:0001b150       _GET_RTERRMSG              000000018001c150 f   LIBCMTD:crt0msg.obj
 0001:0001b1b0       _NMSG_WRITE                000000018001c1b0 f   LIBCMTD:crt0msg.obj
 0001:0001b5e0       _set_abort_behavior        000000018001c5e0 f   LIBCMTD:abort.obj
 0001:0001b620       abort                      000000018001c620 f   LIBCMTD:abort.obj
 0001:0001b6b0       __getlocaleinfo            000000018001c6b0 f   LIBCMTD:inithelp.obj
 0001:0001ba30       _initp_misc_purevirt       000000018001ca30 f   LIBCMTD:inithelp.obj
 0001:0001ba50       ??0__non_rtti_object@std@@QEAA@AEBV01@@Z 000000018001ca50 f   LIBCMTD:stdexcpt.obj
 0001:0001ba90       ??0__non_rtti_object@std@@QEAA@PEBD@Z 000000018001ca90 f   LIBCMTD:stdexcpt.obj
 0001:0001bad0       ??0bad_cast@std@@QEAA@AEBV01@@Z 000000018001cad0 f   LIBCMTD:stdexcpt.obj
 0001:0001bb10       ??0bad_cast@std@@QEAA@PEBD@Z 000000018001cb10 f   LIBCMTD:stdexcpt.obj
 0001:0001bb50       ??0bad_typeid@std@@QEAA@AEBV01@@Z 000000018001cb50 f   LIBCMTD:stdexcpt.obj
 0001:0001bb90       ??0bad_typeid@std@@QEAA@PEBD@Z 000000018001cb90 f   LIBCMTD:stdexcpt.obj
 0001:0001bbd0       ??0exception@std@@QEAA@AEBQEBD@Z 000000018001cbd0 f   LIBCMTD:stdexcpt.obj
 0001:0001bc20       ??0exception@std@@QEAA@AEBQEBDH@Z 000000018001cc20 f   LIBCMTD:stdexcpt.obj
 0001:0001bc60       ??0exception@std@@QEAA@AEBV01@@Z 000000018001cc60 f   LIBCMTD:stdexcpt.obj
 0001:0001bcb0       ??0exception@std@@QEAA@XZ  000000018001ccb0 f   LIBCMTD:stdexcpt.obj
 0001:0001bce0       ??1__non_rtti_object@std@@UEAA@XZ 000000018001cce0 f   LIBCMTD:stdexcpt.obj
 0001:0001bd10       ??1bad_cast@std@@UEAA@XZ   000000018001cd10 f   LIBCMTD:stdexcpt.obj
 0001:0001bd40       ??1bad_typeid@std@@UEAA@XZ 000000018001cd40 f   LIBCMTD:stdexcpt.obj
 0001:0001bd70       ??1exception@std@@UEAA@XZ  000000018001cd70 f   LIBCMTD:stdexcpt.obj
 0001:0001bda0       ??4exception@std@@QEAAAEAV01@AEBV01@@Z 000000018001cda0 f   LIBCMTD:stdexcpt.obj
 0001:0001be10       ??_G__non_rtti_object@std@@UEAAPEAXI@Z 000000018001ce10 f i LIBCMTD:stdexcpt.obj
 0001:0001be10       ??_E__non_rtti_object@std@@UEAAPEAXI@Z 000000018001ce10 f i LIBCMTD:stdexcpt.obj
 0001:0001be50       ??_Gbad_cast@std@@UEAAPEAXI@Z 000000018001ce50 f i LIBCMTD:stdexcpt.obj
 0001:0001be50       ??_Ebad_cast@std@@UEAAPEAXI@Z 000000018001ce50 f i LIBCMTD:stdexcpt.obj
 0001:0001be90       ??_Gbad_typeid@std@@UEAAPEAXI@Z 000000018001ce90 f i LIBCMTD:stdexcpt.obj
 0001:0001be90       ??_Ebad_typeid@std@@UEAAPEAXI@Z 000000018001ce90 f i LIBCMTD:stdexcpt.obj
 0001:0001bed0       ??_Gexception@std@@UEAAPEAXI@Z 000000018001ced0 f i LIBCMTD:stdexcpt.obj
 0001:0001bed0       ??_Eexception@std@@UEAAPEAXI@Z 000000018001ced0 f i LIBCMTD:stdexcpt.obj
 0001:0001bf10       ?_Copy_str@exception@std@@AEAAXPEBD@Z 000000018001cf10 f   LIBCMTD:stdexcpt.obj
 0001:0001bf80       ?_Tidy@exception@std@@AEAAXXZ 000000018001cf80 f   LIBCMTD:stdexcpt.obj
 0001:0001bfc0       ?what@exception@std@@UEBAPEBDXZ 000000018001cfc0 f   LIBCMTD:stdexcpt.obj
 0001:0001c000       ?_query_new_handler@@YAP6AH_K@ZXZ 000000018001d000 f   LIBCMTD:handler.obj
 0001:0001c020       ?_set_new_handler@@YAP6AH_K@ZH@Z 000000018001d020 f   LIBCMTD:handler.obj
 0001:0001c080       ?_set_new_handler@@YAP6AH_K@ZP6AH0@Z@Z 000000018001d080 f   LIBCMTD:handler.obj
 0001:0001c0d0       _callnewh                  000000018001d0d0 f   LIBCMTD:handler.obj
 0001:0001c110       _initp_heap_handler        000000018001d110 f   LIBCMTD:handler.obj
 0001:0001c130       _CxxThrowException         000000018001d130 f   LIBCMTD:throw.obj
 0001:0001c240       _lock                      000000018001d240 f   LIBCMTD:mlock.obj
 0001:0001c2a0       _lockerr_exit              000000018001d2a0 f   LIBCMTD:mlock.obj
 0001:0001c2d0       _mtdeletelocks             000000018001d2d0 f   LIBCMTD:mlock.obj
 0001:0001c3f0       _mtinitlocknum             000000018001d3f0 f   LIBCMTD:mlock.obj
 0001:0001c4f0       _mtinitlocks               000000018001d4f0 f   LIBCMTD:mlock.obj
 0001:0001c590       _unlock                    000000018001d590 f   LIBCMTD:mlock.obj
 0001:0001c5d0       strcmp                     000000018001d5d0 f   LIBCMTD:strcmp.obj
 0001:0001c640       ?_Name_base@type_info@@CAPEBDPEBV1@PEAU__type_info_node@@@Z 000000018001d640 f   LIBCMTD:typname.obj
 0001:0001c810       ?_Name_base_internal@type_info@@CAPEBDPEBV1@PEAU__type_info_node@@@Z 000000018001d810 f   LIBCMTD:typname.obj
 0001:0001ca10       ?_Type_info_dtor@type_info@@CAXPEAV1@@Z 000000018001da10 f   LIBCMTD:typname.obj
 0001:0001cb20       ?_Type_info_dtor_internal@type_info@@CAXPEAV1@@Z 000000018001db20 f   LIBCMTD:typname.obj
 0001:0001cc30       __clean_type_info_names_internal 000000018001dc30 f   LIBCMTD:typname.obj
 0001:0001ccb0       __unDNameHelper            000000018001dcb0 f   LIBCMTD:typname.obj
 0001:0001cd20       _XcptFilter                000000018001dd20 f   LIBCMTD:winxfltr.obj
 0001:0001cfc0       __CppXcptFilter            000000018001dfc0 f   LIBCMTD:winxfltr.obj
 0001:0001d080       _get_heap_handle           000000018001e080 f   LIBCMTD:heapinit.obj
 0001:0001d0e0       _heap_init                 000000018001e0e0 f   LIBCMTD:heapinit.obj
 0001:0001d110       _heap_term                 000000018001e110 f   LIBCMTD:heapinit.obj
 0001:0001d120       _ioinit                    000000018001e120 f   LIBCMTD:ioinit.obj
 0001:0001d150       _ioinit0                   000000018001e150 f   LIBCMTD:ioinit.obj
 0001:0001d180       _ioinitCallback            000000018001e180 f   LIBCMTD:ioinit.obj
 0001:0001d7a0       _ioterm                    000000018001e7a0 f   LIBCMTD:ioinit.obj
 0001:0001d880       _set_pgmptr                000000018001e880 f i LIBCMTD:stdargv.obj
 0001:0001d8a0       _setargv                   000000018001e8a0 f   LIBCMTD:stdargv.obj
 0001:0001df00       _setenvp                   000000018001ef00 f   LIBCMTD:stdenvp.obj
 0001:0001e110       __security_init_cookie     000000018001f110 f   LIBCMTD:gs_support.obj
 0001:0001e240       DllMain                    000000018001f240 f   LIBCMTD:dllmain.obj
 0001:0001e260       __crtGetEnvironmentStringsA 000000018001f260 f   LIBCMTD:a_env.obj
 0001:0001e440       __crtCaptureCurrentContext 000000018001f440 f   LIBCMTD:winapisupp.obj
 0001:0001e4e0       __crtCapturePreviousContext 000000018001f4e0 f   LIBCMTD:winapisupp.obj
 0001:0001e5a0       __crtFlsAlloc              000000018001f5a0 f   LIBCMTD:winapisupp.obj
 0001:0001e5c0       __crtFlsFree               000000018001f5c0 f   LIBCMTD:winapisupp.obj
 0001:0001e5e0       __crtFlsGetValue           000000018001f5e0 f   LIBCMTD:winapisupp.obj
 0001:0001e600       __crtFlsSetValue           000000018001f600 f   LIBCMTD:winapisupp.obj
 0001:0001e630       __crtGetShowWindowMode     000000018001f630 f   LIBCMTD:winapisupp.obj
 0001:0001e670       __crtIsPackagedApp         000000018001f670 f   LIBCMTD:winapisupp.obj
 0001:0001e6b0       __crtSetUnhandledExceptionFilter 000000018001f6b0 f   LIBCMTD:winapisupp.obj
 0001:0001e6d0       __crtTerminateProcess      000000018001f6d0 f   LIBCMTD:winapisupp.obj
 0001:0001e6f0       __crtUnhandledException    000000018001f6f0 f   LIBCMTD:winapisupp.obj
 0001:0001e720       _RTC_Initialize            000000018001f720 f   LIBCMTD:initsect.obj
 0001:0001e760       _RTC_Terminate             000000018001f760 f   LIBCMTD:initsect.obj
 0001:0001e7a0       _FindPESection             000000018001f7a0 f   LIBCMTD:pesect.obj
 0001:0001e850       _IsNonwritableInCurrentImage 000000018001f850 f   LIBCMTD:pesect.obj
 0001:0001e8e0       _ValidateImageBase         000000018001f8e0 f   LIBCMTD:pesect.obj
 0001:0001e960       ?_inconsistency@@YAXXZ     000000018001f960 f   LIBCMTD:hooks.obj
 0001:0001e990       ?terminate@@YAXXZ          000000018001f990 f   LIBCMTD:hooks.obj
 0001:0001e9c0       ?unexpected@@YAXXZ         000000018001f9c0 f   LIBCMTD:hooks.obj
 0001:0001e9f0       _initp_eh_hooks            000000018001f9f0 f   LIBCMTD:hooks.obj
 0001:0001ea20       _initp_misc_rand_s         000000018001fa20 f   LIBCMTD:rand_s.obj
 0001:0001ea40       rand_s                     000000018001fa40 f   LIBCMTD:rand_s.obj
 0001:0001ed70       __fpecode                  000000018001fd70 f   LIBCMTD:winsig.obj
 0001:0001ed90       __get_sigabrt              000000018001fd90 f   LIBCMTD:winsig.obj
 0001:0001edb0       __pxcptinfoptrs            000000018001fdb0 f   LIBCMTD:winsig.obj
 0001:0001edd0       _initp_misc_winsig         000000018001fdd0 f   LIBCMTD:winsig.obj
 0001:0001eed0       raise                      000000018001fed0 f   LIBCMTD:winsig.obj
 0001:0001f320       signal                     0000000180020320 f   LIBCMTD:winsig.obj
 0001:0001f760       _ftbuf                     0000000180020760 f   LIBCMTD:_sftbuf.obj
 0001:0001f820       _stbuf                     0000000180020820 f   LIBCMTD:_sftbuf.obj
 0001:0001fa00       __raise_securityfailure    0000000180020a00 f   LIBCMTD:gs_report.obj
 0001:0001fa50       __report_gsfailure         0000000180020a50 f   LIBCMTD:gs_report.obj
 0001:0001fb30       __report_rangecheckfailure 0000000180020b30 f   LIBCMTD:gs_report.obj
 0001:0001fb50       __report_securityfailure   0000000180020b50 f   LIBCMTD:gs_report.obj
 0001:0001fbf0       __report_securityfailureEx 0000000180020bf0 f   LIBCMTD:gs_report.obj
 0001:0001fd00       _free_base                 0000000180020d00 f   LIBCMTD:free.obj
 0001:0001fd60       _realloc_base              0000000180020d60 f   LIBCMTD:realloc.obj
 0001:0001fe80       _expand_base               0000000180020e80 f   LIBCMTD:expand.obj
 0001:00020060       _CrtDbgReport              0000000180021060 f   LIBCMTD:dbgrpt.obj
 0001:000200e0       _CrtDbgReportV             00000001800210e0 f i LIBCMTD:dbgrpt.obj
 0001:00020140       _CrtSetReportHook2         0000000180021140 f   LIBCMTD:dbgrpt.obj
 0001:00020550       __crtMessageWindowA        0000000180021550 f   LIBCMTD:dbgrpt.obj
 0001:00020bd0       _heapchk                   0000000180021bd0 f   LIBCMTD:heapchk.obj
 0001:00020c10       _heapset                   0000000180021c10 f   LIBCMTD:heapchk.obj
 0001:00020c30       _scprintf                  0000000180021c30 f   LIBCMTD:sprintf.obj
 0001:00020c70       _scprintf_l                0000000180021c70 f   LIBCMTD:sprintf.obj
 0001:00020cb0       _scprintf_p                0000000180021cb0 f   LIBCMTD:sprintf.obj
 0001:00020cf0       _scprintf_p_l              0000000180021cf0 f   LIBCMTD:sprintf.obj
 0001:00020d30       _snprintf_s                0000000180021d30 f   LIBCMTD:sprintf.obj
 0001:00020d90       _snprintf_s_l              0000000180021d90 f   LIBCMTD:sprintf.obj
 0001:00020df0       _sprintf_l                 0000000180021df0 f   LIBCMTD:sprintf.obj
 0001:00020e30       _sprintf_p                 0000000180021e30 f   LIBCMTD:sprintf.obj
 0001:00020e80       _sprintf_p_l               0000000180021e80 f   LIBCMTD:sprintf.obj
 0001:00020ed0       _sprintf_s_l               0000000180021ed0 f   LIBCMTD:sprintf.obj
 0001:00020f20       sprintf                    0000000180021f20 f   LIBCMTD:sprintf.obj
 0001:000211a0       sprintf_s                  00000001800221a0 f   LIBCMTD:sprintf.obj
 0001:000211f0       _heap_alloc_base           00000001800221f0 f i LIBCMTD:malloc.obj
 0001:00021260       _malloc_base               0000000180022260 f   LIBCMTD:malloc.obj
 0001:00021300       _CrtDefaultAllocHook       0000000180022300 f   LIBCMTD:dbghook.obj
 0001:00021320       __crt_debugger_hook        0000000180022320 f   LIBCMTD:dbghook.obj
 0001:00021340       _local_unwind              0000000180022340 f   LIBCMTD:jmpuwind.obj
 0001:00021370       _NLG_Notify                0000000180022370 f   LIBCMTD:jmpuwind.obj
 0001:00021390       __NLG_Dispatch2            0000000180022390 f   LIBCMTD:jmpuwind.obj
 0001:000213a0       __NLG_Return2              00000001800223a0 f   LIBCMTD:jmpuwind.obj
 0001:000213b0       __initstdio                00000001800223b0 f   LIBCMTD:_file.obj
 0001:000214b0       __endstdio                 00000001800224b0 f   LIBCMTD:_file.obj
 0001:000214f0       __iob_func                 00000001800224f0 f   LIBCMTD:_file.obj
 0001:00021500       _lock_file                 0000000180022500 f   LIBCMTD:_file.obj
 0001:00021590       _lock_file2                0000000180022590 f   LIBCMTD:_file.obj
 0001:000215e0       _unlock_file               00000001800225e0 f   LIBCMTD:_file.obj
 0001:00021670       _unlock_file2              0000000180022670 f   LIBCMTD:_file.obj
 0001:000216c0       _fileno                    00000001800226c0 f   LIBCMTD:fileno.obj
 0001:00021780       _isatty                    0000000180022780 f   LIBCMTD:isatty.obj
 0001:000218a0       _write                     00000001800228a0 f   LIBCMTD:write.obj
 0001:00021b50       _write_nolock              0000000180022b50 f   LIBCMTD:write.obj
 0001:00022d20       _lseeki64                  0000000180023d20 f   LIBCMTD:lseeki64.obj
 0001:00022fe0       _lseeki64_nolock           0000000180023fe0 f   LIBCMTD:lseeki64.obj
 0001:00023100       _getbuf                    0000000180024100 f   LIBCMTD:_getbuf.obj
 0001:00023210       memcpy_s                   0000000180024210 f   LIBCMTD:memcpy_s.obj
 0001:00023480       wcscpy_s                   0000000180024480 f   LIBCMTD:wcscpy_s.obj
 0001:00023930       wcslen                     0000000180024930 f   LIBCMTD:wcslen.obj
 0001:00023980       __swprintf_l               0000000180024980 f   LIBCMTD:swprintf.obj
 0001:000239c0       _scwprintf                 00000001800249c0 f   LIBCMTD:swprintf.obj
 0001:00023a00       _scwprintf_l               0000000180024a00 f   LIBCMTD:swprintf.obj
 0001:00023a40       _scwprintf_p               0000000180024a40 f   LIBCMTD:swprintf.obj
 0001:00023a80       _scwprintf_p_l             0000000180024a80 f   LIBCMTD:swprintf.obj
 0001:00023ac0       _snwprintf_s               0000000180024ac0 f   LIBCMTD:swprintf.obj
 0001:00023b20       _snwprintf_s_l             0000000180024b20 f   LIBCMTD:swprintf.obj
 0001:00023b80       _swprintf                  0000000180024b80 f   LIBCMTD:swprintf.obj
 0001:00023e60       _swprintf_p                0000000180024e60 f   LIBCMTD:swprintf.obj
 0001:00023eb0       _swprintf_p_l              0000000180024eb0 f   LIBCMTD:swprintf.obj
 0001:00023f00       _swprintf_s_l              0000000180024f00 f   LIBCMTD:swprintf.obj
 0001:00023f50       swprintf_s                 0000000180024f50 f   LIBCMTD:swprintf.obj
 0001:00023fa0       __crtMessageBoxW           0000000180024fa0 f   LIBCMTD:crtmboxw.obj
 0001:00024410       __crtMessageBoxWaitThreadW 0000000180025410 f   LIBCMTD:crtmboxw.obj
 0001:00024460       _CrtDbgBreak               0000000180025460 f   LIBCMTD:dbgrptt.obj
 0001:00024470       _CrtGetReportHook          0000000180025470 f   LIBCMTD:dbgrptt.obj
 0001:00024480       _CrtSetReportFile          0000000180025480 f   LIBCMTD:dbgrptt.obj
 0001:000245e0       _CrtSetReportHook          00000001800255e0 f   LIBCMTD:dbgrptt.obj
 0001:00024610       _CrtSetReportMode          0000000180025610 f   LIBCMTD:dbgrptt.obj
 0001:000247d0       _VCrtDbgReportA            00000001800257d0 f   LIBCMTD:dbgrptt.obj
 0001:000251a0       _VCrtDbgReportW            00000001800261a0 f   LIBCMTD:dbgrptt.obj
 0001:00025cf0       _alloca_probe              0000000180026cf0     LIBCMTD:chkstk.obj
 0001:00025cf0       __chkstk                   0000000180026cf0 f   LIBCMTD:chkstk.obj
 0001:00025d40       __iswcsym                  0000000180026d40 f i LIBCMTD:_wctype.obj
 0001:00025d80       __iswcsymf                 0000000180026d80 f i LIBCMTD:_wctype.obj
 0001:00025dc0       _isleadbyte_l              0000000180026dc0 f i LIBCMTD:_wctype.obj
 0001:00025e20       _iswalnum_l                0000000180026e20 f i LIBCMTD:_wctype.obj
 0001:00025e50       _iswalpha_l                0000000180026e50 f i LIBCMTD:_wctype.obj
 0001:00025e80       _iswcntrl_l                0000000180026e80 f i LIBCMTD:_wctype.obj
 0001:00025eb0       _iswcsym_l                 0000000180026eb0 f i LIBCMTD:_wctype.obj
 0001:00025f00       _iswcsymf_l                0000000180026f00 f i LIBCMTD:_wctype.obj
 0001:00025f50       _iswdigit_l                0000000180026f50 f i LIBCMTD:_wctype.obj
 0001:00025f80       _iswgraph_l                0000000180026f80 f i LIBCMTD:_wctype.obj
 0001:00025fb0       _iswlower_l                0000000180026fb0 f i LIBCMTD:_wctype.obj
 0001:00025fe0       _iswprint_l                0000000180026fe0 f i LIBCMTD:_wctype.obj
 0001:00026010       _iswpunct_l                0000000180027010 f i LIBCMTD:_wctype.obj
 0001:00026040       _iswspace_l                0000000180027040 f i LIBCMTD:_wctype.obj
 0001:00026070       _iswupper_l                0000000180027070 f i LIBCMTD:_wctype.obj
 0001:000260a0       _iswxdigit_l               00000001800270a0 f i LIBCMTD:_wctype.obj
 0001:000260d0       isleadbyte                 00000001800270d0 f i LIBCMTD:_wctype.obj
 0001:000260f0       iswalnum                   00000001800270f0 f i LIBCMTD:_wctype.obj
 0001:00026110       iswalpha                   0000000180027110 f i LIBCMTD:_wctype.obj
 0001:00026130       iswascii                   0000000180027130 f i LIBCMTD:_wctype.obj
 0001:00026160       iswcntrl                   0000000180027160 f i LIBCMTD:_wctype.obj
 0001:00026180       iswdigit                   0000000180027180 f i LIBCMTD:_wctype.obj
 0001:000261a0       iswgraph                   00000001800271a0 f i LIBCMTD:_wctype.obj
 0001:000261c0       iswlower                   00000001800271c0 f i LIBCMTD:_wctype.obj
 0001:000261e0       iswprint                   00000001800271e0 f i LIBCMTD:_wctype.obj
 0001:00026200       iswpunct                   0000000180027200 f i LIBCMTD:_wctype.obj
 0001:00026220       iswspace                   0000000180027220 f i LIBCMTD:_wctype.obj
 0001:00026240       iswupper                   0000000180027240 f i LIBCMTD:_wctype.obj
 0001:00026260       iswxdigit                  0000000180027260 f i LIBCMTD:_wctype.obj
 0001:00026290       strlen                     0000000180027290 f   LIBCMTD:strlen.obj
 0001:00026340       _get_printf_count_output   0000000180027340 f   LIBCMTD:printf.obj
 0001:00026370       _printf_l                  0000000180027370 f   LIBCMTD:printf.obj
 0001:000263b0       _printf_p                  00000001800273b0 f   LIBCMTD:printf.obj
 0001:000263f0       _printf_p_l                00000001800273f0 f   LIBCMTD:printf.obj
 0001:00026430       _printf_s_l                0000000180027430 f   LIBCMTD:printf.obj
 0001:00026470       _set_printf_count_output   0000000180027470 f   LIBCMTD:printf.obj
 0001:000264e0       printf                     00000001800274e0 f   LIBCMTD:printf.obj
 0001:00026660       printf_s                   0000000180027660 f   LIBCMTD:printf.obj
 0001:000266a0       _wctomb_l                  00000001800276a0 f   LIBCMTD:wctomb.obj
 0001:00026750       _wctomb_s_l                0000000180027750 f   LIBCMTD:wctomb.obj
 0001:00026bf0       wctomb                     0000000180027bf0 f   LIBCMTD:wctomb.obj
 0001:00026c60       wctomb_s                   0000000180027c60 f   LIBCMTD:wctomb.obj
 0001:00026cb0       _CopyMan                   0000000180027cb0 f i LIBCMTD:intrncvt.obj
 0001:00026d20       _FillZeroMan               0000000180027d20 f i LIBCMTD:intrncvt.obj
 0001:00026d60       _IncMan                    0000000180027d60 f i LIBCMTD:intrncvt.obj
 0001:00026e40       _IsZeroMan                 0000000180027e40 f i LIBCMTD:intrncvt.obj
 0001:00026e80       _RoundMan                  0000000180027e80 f i LIBCMTD:intrncvt.obj
 0001:00026f90       _ShrMan                    0000000180027f90 f i LIBCMTD:intrncvt.obj
 0001:000270d0       _ZeroTail                  00000001800280d0 f i LIBCMTD:intrncvt.obj
 0001:00027180       _ld12cvt                   0000000180028180 f i LIBCMTD:intrncvt.obj
 0001:000274f0       _ld12tod                   00000001800284f0 f   LIBCMTD:intrncvt.obj
 0001:00027520       _ld12tof                   0000000180028520 f   LIBCMTD:intrncvt.obj
 0001:00027550       _ld12told                  0000000180028550 f   LIBCMTD:intrncvt.obj
 0001:00027680       __add_12                   0000000180028680 f i LIBCMTD:mantold.obj
 0001:00027760       __mtold12                  0000000180028760 f   LIBCMTD:mantold.obj
 0001:000278f0       __free_lconv_mon           00000001800288f0 f   LIBCMTD:initmon.obj
 0001:00027b00       __init_monetary            0000000180028b00 f   LIBCMTD:initmon.obj
 0001:000283d0       __free_lconv_num           00000001800293d0 f   LIBCMTD:initnum.obj
 0001:000284b0       __init_numeric             00000001800294b0 f   LIBCMTD:initnum.obj
 0001:00028a20       __free_lc_time             0000000180029a20 f   LIBCMTD:inittime.obj
 0001:00029480       __init_time                000000018002a480 f   LIBCMTD:inittime.obj
 0001:0002abf0       localeconv                 000000018002bbf0 f   LIBCMTD:lconv.obj
 0001:0002b0d0       _MarkAllocaS               000000018002c0d0 f i LIBCMTD:a_map.obj
 0001:0002b100       __crtLCMapStringA          000000018002c100 f   LIBCMTD:a_map.obj
 0001:0002b1b0       _freea                     000000018002c1b0 f i LIBCMTD:a_map.obj
 0001:0002b3c0       __crtGetStringTypeA        000000018002c3c0 f   LIBCMTD:a_str.obj
 0001:0002b4e0       ?_ExecutionInCatch@@YAHPEAU_xDISPATCHER_CONTEXT@@PEBU_s_FuncInfo@@@Z 000000018002c4e0 f   LIBCMTD:trnsctrl.obj
 0001:0002b530       ?_GetEstablisherFrame@@YAPEA_KPEA_KPEAU_xDISPATCHER_CONTEXT@@PEBU_s_FuncInfo@@0@Z 000000018002c530 f   LIBCMTD:trnsctrl.obj
 0001:0002b6a0       ?_GetRangeOfTrysToCheck@@YAPEBU_s_TryBlockMapEntry@@PEA_KPEBU_s_FuncInfo@@HHPEAI2PEAU_xDISPATCHER_CONTEXT@@@Z 000000018002c6a0 f   LIBCMTD:trnsctrl.obj
 0001:0002b8c0       ?__FrameUnwindToEmptyState@@YAXPEA_KPEAU_xDISPATCHER_CONTEXT@@PEBU_s_FuncInfo@@@Z 000000018002c8c0 f   LIBCMTD:trnsctrl.obj
 0001:0002b960       ?__SehTransFilter@@YAHPEAU_EXCEPTION_POINTERS@@PEAUEHExceptionRecord@@PEA_KPEAU_CONTEXT@@PEAU_xDISPATCHER_CONTEXT@@PEBU_s_FuncInfo@@PEAH@Z 000000018002c960 f   LIBCMTD:trnsctrl.obj
 0001:0002ba20       _CallSETranslator          000000018002ca20 f   LIBCMTD:trnsctrl.obj
 0001:0002baa0       _CreateFrameInfo           000000018002caa0 f   LIBCMTD:trnsctrl.obj
 0001:0002bb20       _FindAndUnlinkFrame        000000018002cb20 f   LIBCMTD:trnsctrl.obj
 0001:0002bbb0       _GetImageBase              000000018002cbb0 f   LIBCMTD:trnsctrl.obj
 0001:0002bbd0       _GetThrowImageBase         000000018002cbd0 f   LIBCMTD:trnsctrl.obj
 0001:0002bbf0       _IsExceptionObjectToBeDestroyed 000000018002cbf0 f   LIBCMTD:trnsctrl.obj
 0001:0002bc50       _MoveContext               000000018002cc50 f   LIBCMTD:trnsctrl.obj
 0001:0002bc80       _SetImageBase              000000018002cc80 f   LIBCMTD:trnsctrl.obj
 0001:0002bca0       _SetThrowImageBase         000000018002cca0 f   LIBCMTD:trnsctrl.obj
 0001:0002bcc0       _UnwindNestedFrames        000000018002ccc0 f   LIBCMTD:trnsctrl.obj
 0001:0002be30       __CxxFrameHandler          000000018002ce30 f   LIBCMTD:trnsctrl.obj
 0001:0002bef0       __CxxFrameHandler2         000000018002cef0 f   LIBCMTD:trnsctrl.obj
 0001:0002bf30       __CxxFrameHandler3         000000018002cf30 f   LIBCMTD:trnsctrl.obj
 0001:0002bff0       __init_dummy               000000018002cff0 f   LIBCMTD:wsetloca.obj
 0001:0002c000       _locterm                   000000018002d000 f   LIBCMTD:wsetloca.obj
 0001:0002c050       ___setlc_active_func       000000018002d050 f   LIBCMTD:wsetloca.obj
 0001:0002c060       ___unguarded_readlc_active_add_func 000000018002d060 f   LIBCMTD:wsetloca.obj
 0001:0002c070       __copy_locale_name         000000018002d070 f   LIBCMTD:wsetloca.obj
 0001:0002c140       __create_locale            000000018002d140 f   LIBCMTD:wsetloca.obj
 0001:0002c160       __free_locale              000000018002d160 f   LIBCMTD:wsetloca.obj
 0001:0002c180       __get_current_locale       000000018002d180 f   LIBCMTD:wsetloca.obj
 0001:0002c190       __lc_lctowcs               000000018002d190 f   LIBCMTD:wsetloca.obj
 0001:0002c280       __lc_wcstolc               000000018002d280 f   LIBCMTD:wsetloca.obj
 0001:0002c540       _configthreadlocale        000000018002d540 f   LIBCMTD:wsetloca.obj
 0001:0002c700       _create_locale             000000018002d700 f   LIBCMTD:wsetloca.obj
 0001:0002c7a0       _expandlocale              000000018002d7a0 f   LIBCMTD:wsetloca.obj
 0001:0002cd10       _free_locale               000000018002dd10 f   LIBCMTD:wsetloca.obj
 0001:0002ce00       _get_current_locale        000000018002de00 f   LIBCMTD:wsetloca.obj
 0001:0002cee0       _wcreate_locale            000000018002dee0 f   LIBCMTD:wsetloca.obj
 0001:0002d110       _wcscats                   000000018002e110 f   LIBCMTD:wsetloca.obj
 0001:0002d1c0       _wsetlocale                000000018002e1c0 f   LIBCMTD:wsetloca.obj
 0001:0002e4d0       __pctype_func              000000018002f4d0 f   LIBCMTD:ctype.obj
 0001:0002e530       __pwctype_func             000000018002f530 f   LIBCMTD:ctype.obj
 0001:0002e540       __isascii                  000000018002f540 f i LIBCMTD:_ctype.obj
 0001:0002e570       __iscsym                   000000018002f570 f i LIBCMTD:_ctype.obj
 0001:0002e5b0       __iscsymf                  000000018002f5b0 f i LIBCMTD:_ctype.obj
 0001:0002e5f0       __toascii                  000000018002f5f0 f i LIBCMTD:_ctype.obj
 0001:0002e600       _isalnum_l                 000000018002f600 f i LIBCMTD:_ctype.obj
 0001:0002e6a0       _isalpha_l                 000000018002f6a0 f i LIBCMTD:_ctype.obj
 0001:0002e740       _iscntrl_l                 000000018002f740 f i LIBCMTD:_ctype.obj
 0001:0002e7e0       _iscsym_l                  000000018002f7e0 f i LIBCMTD:_ctype.obj
 0001:0002e830       _iscsymf_l                 000000018002f830 f i LIBCMTD:_ctype.obj
 0001:0002e880       _isdigit_l                 000000018002f880 f i LIBCMTD:_ctype.obj
 0001:0002e920       _isgraph_l                 000000018002f920 f i LIBCMTD:_ctype.obj
 0001:0002e9c0       _islower_l                 000000018002f9c0 f i LIBCMTD:_ctype.obj
 0001:0002ea60       _isprint_l                 000000018002fa60 f i LIBCMTD:_ctype.obj
 0001:0002eb00       _ispunct_l                 000000018002fb00 f i LIBCMTD:_ctype.obj
 0001:0002eba0       _isspace_l                 000000018002fba0 f i LIBCMTD:_ctype.obj
 0001:0002ec40       _isupper_l                 000000018002fc40 f i LIBCMTD:_ctype.obj
 0001:0002ece0       _isxdigit_l                000000018002fce0 f i LIBCMTD:_ctype.obj
 0001:0002ed80       isalnum                    000000018002fd80 f i LIBCMTD:_ctype.obj
 0001:0002edc0       isalpha                    000000018002fdc0 f i LIBCMTD:_ctype.obj
 0001:0002ee00       iscntrl                    000000018002fe00 f i LIBCMTD:_ctype.obj
 0001:0002ee40       isdigit                    000000018002fe40 f i LIBCMTD:_ctype.obj
 0001:0002ee80       isgraph                    000000018002fe80 f i LIBCMTD:_ctype.obj
 0001:0002eec0       islower                    000000018002fec0 f i LIBCMTD:_ctype.obj
 0001:0002ef00       isprint                    000000018002ff00 f i LIBCMTD:_ctype.obj
 0001:0002ef40       ispunct                    000000018002ff40 f i LIBCMTD:_ctype.obj
 0001:0002ef80       isspace                    000000018002ff80 f i LIBCMTD:_ctype.obj
 0001:0002efc0       isupper                    000000018002ffc0 f i LIBCMTD:_ctype.obj
 0001:0002f000       isxdigit                   0000000180030000 f i LIBCMTD:_ctype.obj
 0001:0002f040       _tolower                   0000000180030040 f   LIBCMTD:tolower.obj
 0001:0002f050       _tolower_l                 0000000180030050 f   LIBCMTD:tolower.obj
 0001:0002f3b0       tolower                    00000001800303b0 f   LIBCMTD:tolower.obj
 0001:0002f400       strcpy_s                   0000000180030400 f   LIBCMTD:strcpy_s.obj
 0001:0002f8a0       strrchr                    00000001800308a0 f   LIBCMTD:strrchr.obj
 0001:0002fcc0       _fptostr                   0000000180030cc0 f   LIBCMTD:_fptostr.obj
 0001:00030120       _atodbl                    0000000180031120 f   LIBCMTD:atodbl.obj
 0001:00030150       _atodbl_l                  0000000180031150 f   LIBCMTD:atodbl.obj
 0001:000302d0       _atoflt                    00000001800312d0 f   LIBCMTD:atodbl.obj
 0001:00030300       _atoflt_l                  0000000180031300 f   LIBCMTD:atodbl.obj
 0001:00030480       _atoldbl                   0000000180031480 f   LIBCMTD:atodbl.obj
 0001:000304b0       _atoldbl_l                 00000001800314b0 f   LIBCMTD:atodbl.obj
 0001:00030630       __dtold                    0000000180031630 f   LIBCMTD:cfout.obj
 0001:000307e0       _fltout2                   00000001800317e0 f   LIBCMTD:cfout.obj
 0001:000308f0       _get_output_format         00000001800318f0 f   LIBCMTD:outputformat.obj
 0001:00030900       _set_output_format         0000000180031900 f   LIBCMTD:outputformat.obj
 0001:000309d0       _fptrap                    00000001800319d0 f   LIBCMTD:crt0fp.obj
 0001:000309f0       wcscat_s                   00000001800319f0 f   LIBCMTD:wcscat_s.obj
 0001:00031020       wcsncpy_s                  0000000180032020 f   LIBCMTD:wcsncpy_s.obj
 0001:000316c0       __set_app_type             00000001800326c0 f   LIBCMTD:errmode.obj
 0001:000316d0       _set_error_mode            00000001800326d0 f   LIBCMTD:errmode.obj
 0001:000317e0       strncpy_s                  00000001800327e0 f   LIBCMTD:strncpy_s.obj
 0001:00032010       __crtGetLocaleInfoA        0000000180033010 f   LIBCMTD:a_loc.obj
 0001:00032080       __crtCompareStringEx       0000000180033080 f   LIBCMTD:winapinls.obj
 0001:000320f0       __crtEnumSystemLocalesEx   00000001800330f0 f   LIBCMTD:winapinls.obj
 0001:00032120       __crtGetDateFormatEx       0000000180033120 f   LIBCMTD:winapinls.obj
 0001:00032170       __crtGetLocaleInfoEx       0000000180033170 f   LIBCMTD:winapinls.obj
 0001:000321b0       __crtGetTimeFormatEx       00000001800331b0 f   LIBCMTD:winapinls.obj
 0001:00032200       __crtGetUserDefaultLocaleName 0000000180033200 f   LIBCMTD:winapinls.obj
 0001:00032230       __crtIsValidLocaleName     0000000180033230 f   LIBCMTD:winapinls.obj
 0001:00032250       __crtLCMapStringEx         0000000180033250 f   LIBCMTD:winapinls.obj
 0001:000322c0       ??0Block@_HeapManager@@QEAA@XZ 00000001800332c0 f i LIBCMTD:undname.obj
 0001:000322e0       ??0DName@@QEAA@AEAPEBDD@Z  00000001800332e0 f   LIBCMTD:undname.obj
 0001:00032630       ??0DName@@QEAA@AEBV0@@Z    0000000180033630 f i LIBCMTD:undname.obj
 0001:00032660       ??0DName@@QEAA@D@Z         0000000180033660 f   LIBCMTD:undname.obj
 0001:00032760       ??0DName@@QEAA@PEAV0@@Z    0000000180033760 f   LIBCMTD:undname.obj
 0001:000328e0       ??0DName@@QEAA@PEBD@Z      00000001800338e0 f   LIBCMTD:undname.obj
 0001:000329f0       ??0DName@@QEAA@W4DNameStatus@@@Z 00000001800339f0 f   LIBCMTD:undname.obj
 0001:00032b40       ??0DName@@QEAA@XZ          0000000180033b40 f i LIBCMTD:undname.obj
 0001:00032c10       ??0DName@@QEAA@_J@Z        0000000180033c10 f   LIBCMTD:undname.obj
 0001:00032dd0       ??0DName@@QEAA@_K@Z        0000000180033dd0 f   LIBCMTD:undname.obj
 0001:00032f50       ??0DNameNode@@IEAA@XZ      0000000180033f50 f   LIBCMTD:undname.obj
 0001:00032f70       ??0DNameStatusNode@@AEAA@W4DNameStatus@@@Z 0000000180033f70 f   LIBCMTD:undname.obj
 0001:00032fe0       ??0Replicator@@QEAA@XZ     0000000180033fe0 f i LIBCMTD:undname.obj
 0001:00033000       ??0UnDecorator@@QEAA@PEADPEBDHP6APEADJ@ZK@Z 0000000180034000 f i LIBCMTD:undname.obj
 0001:000330d0       ??0charNode@@QEAA@D@Z      00000001800340d0 f   LIBCMTD:undname.obj
 0001:00033110       ??0pDNameNode@@QEAA@PEAVDName@@@Z 0000000180034110 f   LIBCMTD:undname.obj
 0001:00033190       ??0pairNode@@QEAA@PEAVDNameNode@@0@Z 0000000180034190 f   LIBCMTD:undname.obj
 0001:000331f0       ??0pcharNode@@QEAA@PEBDH@Z 00000001800341f0 f   LIBCMTD:undname.obj
 0001:000332c0       ??2@YAPEAX_KAEAV_HeapManager@@H@Z 00000001800342c0 f i LIBCMTD:undname.obj
 0001:000332f0       ??4DName@@QEAAAEAV0@AEBV0@@Z 00000001800342f0 f   LIBCMTD:undname.obj
 0001:00033320       ??4DName@@QEAAAEAV0@D@Z    0000000180034320 f i LIBCMTD:undname.obj
 0001:00033420       ??4DName@@QEAAAEAV0@PEAV0@@Z 0000000180034420 f   LIBCMTD:undname.obj
 0001:00033590       ??4DName@@QEAAAEAV0@PEBD@Z 0000000180034590 f   LIBCMTD:undname.obj
 0001:00033690       ??4DName@@QEAAAEAV0@W4DNameStatus@@@Z 0000000180034690 f   LIBCMTD:undname.obj
 0001:000337c0       ??AReplicator@@QEBA?AVDName@@H@Z 00000001800347c0 f   LIBCMTD:undname.obj
 0001:00033850       ??BUnDecorator@@QEAAPEADXZ 0000000180034850 f i LIBCMTD:undname.obj
 0001:00033b70       ??H@YA?AVDName@@DAEBV0@@Z  0000000180034b70 f i LIBCMTD:undname.obj
 0001:00033bb0       ??H@YA?AVDName@@PEBDAEBV0@@Z 0000000180034bb0 f i LIBCMTD:undname.obj
 0001:00033bf0       ??H@YA?AVDName@@W4DNameStatus@@AEBV0@@Z 0000000180034bf0 f i LIBCMTD:undname.obj
 0001:00033c30       ??HDName@@QEBA?AV0@AEBV0@@Z 0000000180034c30 f   LIBCMTD:undname.obj
 0001:00033c80       ??HDName@@QEBA?AV0@D@Z     0000000180034c80 f   LIBCMTD:undname.obj
 0001:00033cd0       ??HDName@@QEBA?AV0@PEAV0@@Z 0000000180034cd0 f   LIBCMTD:undname.obj
 0001:00033d20       ??HDName@@QEBA?AV0@PEBD@Z  0000000180034d20 f   LIBCMTD:undname.obj
 0001:00033d70       ??HDName@@QEBA?AV0@W4DNameStatus@@@Z 0000000180034d70 f   LIBCMTD:undname.obj
 0001:00033dc0       ??YDName@@QEAAAEAV0@AEBV0@@Z 0000000180034dc0 f   LIBCMTD:undname.obj
 0001:00033e40       ??YDName@@QEAAAEAV0@D@Z    0000000180034e40 f   LIBCMTD:undname.obj
 0001:00033ee0       ??YDName@@QEAAAEAV0@PEAV0@@Z 0000000180034ee0 f   LIBCMTD:undname.obj
 0001:00033fc0       ??YDName@@QEAAAEAV0@PEBD@Z 0000000180034fc0 f   LIBCMTD:undname.obj
 0001:00034080       ??YDName@@QEAAAEAV0@W4DNameStatus@@@Z 0000000180035080 f   LIBCMTD:undname.obj
 0001:000340f0       ??YReplicator@@QEAAAEAV0@AEBVDName@@@Z 00000001800350f0 f   LIBCMTD:undname.obj
 0001:000341b0       ??_5DName@@QEAAAEAV0@AEBV0@@Z 00000001800351b0 f   LIBCMTD:undname.obj
 0001:00034220       ?Constructor@_HeapManager@@QEAAXP6APEAX_K@ZP6AXPEAX@Z@Z 0000000180035220 f i LIBCMTD:undname.obj
 0001:00034280       ?Destructor@_HeapManager@@QEAAXXZ 0000000180035280 f i LIBCMTD:undname.obj
 0001:000342e0       ?UScore@UnDecorator@@SAPEBDW4Tokens@@@Z 00000001800352e0 f   LIBCMTD:undname.obj
 0001:00034320       ?append@DName@@AEAAXPEAVDNameNode@@@Z 0000000180035320 f   LIBCMTD:undname.obj
 0001:000343d0       ?composeDeclaration@UnDecorator@@CA?AVDName@@AEBV2@@Z 00000001800353d0 f i LIBCMTD:undname.obj
 0001:00036490       ?dbGetString@DName@@QEBAPEADXZ 0000000180037490 f   LIBCMTD:undname.obj
 0001:000364c0       ?doAccessSpecifiers@UnDecorator@@SAHXZ 00000001800374c0 f i LIBCMTD:undname.obj
 0001:000364f0       ?doAllocationLanguage@UnDecorator@@SAHXZ 00000001800374f0 f i LIBCMTD:undname.obj
 0001:00036520       ?doAllocationModel@UnDecorator@@SAHXZ 0000000180037520 f i LIBCMTD:undname.obj
 0001:00036550       ?doEcsu@UnDecorator@@SAHXZ 0000000180037550 f i LIBCMTD:undname.obj
 0001:00036580       ?doEllipsis@UnDecorator@@SAHXZ 0000000180037580 f i LIBCMTD:undname.obj
 0001:000365b0       ?doFunctionReturns@UnDecorator@@SAHXZ 00000001800375b0 f i LIBCMTD:undname.obj
 0001:000365e0       ?doMSKeywords@UnDecorator@@SAHXZ 00000001800375e0 f i LIBCMTD:undname.obj
 0001:00036610       ?doMemberTypes@UnDecorator@@SAHXZ 0000000180037610 f i LIBCMTD:undname.obj
 0001:00036640       ?doNameOnly@UnDecorator@@SAHXZ 0000000180037640 f i LIBCMTD:undname.obj
 0001:00036650       ?doNoIdentCharCheck@UnDecorator@@SAHXZ 0000000180037650 f i LIBCMTD:undname.obj
 0001:00036660       ?doPchar@DName@@AEAAXPEBDH@Z 0000000180037660 f   LIBCMTD:undname.obj
 0001:000367f0       ?doPtr64@UnDecorator@@SAHXZ 00000001800377f0 f i LIBCMTD:undname.obj
 0001:00036820       ?doRestrictionSpec@UnDecorator@@SAHXZ 0000000180037820 f i LIBCMTD:undname.obj
 0001:00036850       ?doThisTypes@UnDecorator@@SAHXZ 0000000180037850 f i LIBCMTD:undname.obj
 0001:00036880       ?doThrowTypes@UnDecorator@@SAHXZ 0000000180037880 f i LIBCMTD:undname.obj
 0001:000368b0       ?doTypeOnly@UnDecorator@@SAHXZ 00000001800378b0 f i LIBCMTD:undname.obj
 0001:000368c0       ?doUnderScore@UnDecorator@@SAHXZ 00000001800378c0 f i LIBCMTD:undname.obj
 0001:000368f0       ?getArgumentList@UnDecorator@@CA?AVDName@@XZ 00000001800378f0 f   LIBCMTD:undname.obj
 0001:00036a90       ?getArgumentTypes@UnDecorator@@CA?AVDName@@XZ 0000000180037a90 f   LIBCMTD:undname.obj
 0001:00036c50       ?getArrayType@UnDecorator@@CA?AVDName@@AEBV2@@Z 0000000180037c50 f i LIBCMTD:undname.obj
 0001:00036f40       ?getBasedType@UnDecorator@@CA?AVDName@@XZ 0000000180037f40 f   LIBCMTD:undname.obj
 0001:00037030       ?getBasicDataType@UnDecorator@@CA?AVDName@@AEBV2@@Z 0000000180038030 f   LIBCMTD:undname.obj
 0001:00037740       ?getCallIndex@UnDecorator@@CA?AVDName@@XZ 0000000180038740 f i LIBCMTD:undname.obj
 0001:00037760       ?getCallingConvention@UnDecorator@@CA?AVDName@@XZ 0000000180038760 f   LIBCMTD:undname.obj
 0001:00037930       ?getDataIndirectType@UnDecorator@@CA?AVDName@@AEBV2@PEBD0H@Z 0000000180038930 f   LIBCMTD:undname.obj
 0001:000382a0       ?getDataIndirectType@UnDecorator@@CA?AVDName@@XZ 00000001800392a0 f i LIBCMTD:undname.obj
 0001:00038300       ?getDataType@UnDecorator@@CA?AVDName@@PEAV2@@Z 0000000180039300 f   LIBCMTD:undname.obj
 0001:00038490       ?getDecoratedName@UnDecorator@@CA?AVDName@@XZ 0000000180039490 f   LIBCMTD:undname.obj
 0001:00038890       ?getDimension@UnDecorator@@CA?AVDName@@_N@Z 0000000180039890 f   LIBCMTD:undname.obj
 0001:00038bf0       ?getDispatchTarget@UnDecorator@@CA?AVDName@@XZ 0000000180039bf0 f   LIBCMTD:undname.obj
 0001:00038cc0       ?getDisplacement@UnDecorator@@CA?AVDName@@XZ 0000000180039cc0 f i LIBCMTD:undname.obj
 0001:00038ce0       ?getECSUDataType@UnDecorator@@CA?AVDName@@XZ 0000000180039ce0 f   LIBCMTD:undname.obj
 0001:00038f20       ?getECSUName@UnDecorator@@CA?AVDName@@XZ 0000000180039f20 f i LIBCMTD:undname.obj
 0001:00038f40       ?getEnumType@UnDecorator@@CA?AVDName@@XZ 0000000180039f40 f i LIBCMTD:undname.obj
 0001:000390c0       ?getExtendedDataIndirectType@UnDecorator@@CA?AVDName@@AEAPEBDAEA_NH@Z 000000018003a0c0 f   LIBCMTD:undname.obj
 0001:000393e0       ?getExternalDataType@UnDecorator@@CA?AVDName@@AEBV2@@Z 000000018003a3e0 f i LIBCMTD:undname.obj
 0001:000394b0       ?getFunctionIndirectType@UnDecorator@@CA?AVDName@@AEBV2@@Z 000000018003a4b0 f   LIBCMTD:undname.obj
 0001:00039a30       ?getGuardNumber@UnDecorator@@CA?AVDName@@XZ 000000018003aa30 f i LIBCMTD:undname.obj
 0001:00039a50       ?getLastChar@DName@@QEBADXZ 000000018003aa50 f i LIBCMTD:undname.obj
 0001:00039a90       ?getLastChar@DNameStatusNode@@UEBADXZ 000000018003aa90 f i LIBCMTD:undname.obj
 0001:00039ad0       ?getLastChar@charNode@@UEBADXZ 000000018003aad0 f i LIBCMTD:undname.obj
 0001:00039ae0       ?getLastChar@pDNameNode@@UEBADXZ 000000018003aae0 f i LIBCMTD:undname.obj
 0001:00039b20       ?getLastChar@pairNode@@UEBADXZ 000000018003ab20 f i LIBCMTD:undname.obj
 0001:00039b80       ?getLastChar@pcharNode@@UEBADXZ 000000018003ab80 f i LIBCMTD:undname.obj
 0001:00039bc0       ?getLexicalFrame@UnDecorator@@CA?AVDName@@XZ 000000018003abc0 f i LIBCMTD:undname.obj
 0001:00039c00       ?getMemory@_HeapManager@@QEAAPEAX_KH@Z 000000018003ac00 f   LIBCMTD:undname.obj
 0001:00039d70       ?getNumberOfDimensions@UnDecorator@@CAHXZ 000000018003ad70 f   LIBCMTD:undname.obj
 0001:00039e90       ?getOperatorName@UnDecorator@@CA?AVDName@@_NPEA_N@Z 000000018003ae90 f i LIBCMTD:undname.obj
 0001:0003ab30       ?getPointerType@UnDecorator@@CA?AVDName@@AEBV2@0@Z 000000018003bb30 f i LIBCMTD:undname.obj
 0001:0003ab80       ?getPointerTypeArray@UnDecorator@@CA?AVDName@@AEBV2@0@Z 000000018003bb80 f i LIBCMTD:undname.obj
 0001:0003abd0       ?getPrimaryDataType@UnDecorator@@CA?AVDName@@AEBV2@@Z 000000018003bbd0 f   LIBCMTD:undname.obj
 0001:0003b050       ?getPtrRefDataType@UnDecorator@@CA?AVDName@@AEBV2@H@Z 000000018003c050 f i LIBCMTD:undname.obj
 0001:0003b1d0       ?getPtrRefType@UnDecorator@@CA?AVDName@@AEBV2@0PEBD@Z 000000018003c1d0 f   LIBCMTD:undname.obj
 0001:0003b3e0       ?getReferenceType@UnDecorator@@CA?AVDName@@AEBV2@0PEBD@Z 000000018003c3e0 f i LIBCMTD:undname.obj
 0001:0003b420       ?getRestrictionSpec@UnDecorator@@CA?AVDName@@XZ 000000018003c420 f   LIBCMTD:undname.obj
 0001:0003b5c0       ?getReturnType@UnDecorator@@CA?AVDName@@PEAV2@@Z 000000018003c5c0 f   LIBCMTD:undname.obj
 0001:0003b620       ?getScope@UnDecorator@@CA?AVDName@@XZ 000000018003c620 f   LIBCMTD:undname.obj
 0001:0003bc10       ?getScopedName@UnDecorator@@CA?AVDName@@XZ 000000018003cc10 f   LIBCMTD:undname.obj
 0001:0003bd80       ?getSignedDimension@UnDecorator@@CA?AVDName@@XZ 000000018003cd80 f   LIBCMTD:undname.obj
 0001:0003be10       ?getStorageConvention@UnDecorator@@CA?AVDName@@XZ 000000018003ce10 f i LIBCMTD:undname.obj
 0001:0003be30       ?getString@DName@@QEBAPEADPEAD0@Z 000000018003ce30 f i LIBCMTD:undname.obj
 0001:0003be80       ?getString@DName@@QEBAPEADPEADH@Z 000000018003ce80 f i LIBCMTD:undname.obj
 0001:0003bf40       ?getString@DNameStatusNode@@UEBAPEADPEAD0@Z 000000018003cf40 f i LIBCMTD:undname.obj
 0001:0003bf90       ?getString@charNode@@UEBAPEADPEAD0@Z 000000018003cf90 f i LIBCMTD:undname.obj
 0001:0003bfd0       ?getString@pDNameNode@@UEBAPEADPEAD0@Z 000000018003cfd0 f i LIBCMTD:undname.obj
 0001:0003c030       ?getString@pairNode@@UEBAPEADPEAD0@Z 000000018003d030 f i LIBCMTD:undname.obj
 0001:0003c0b0       ?getString@pcharNode@@UEBAPEADPEAD0@Z 000000018003d0b0 f i LIBCMTD:undname.obj
 0001:0003c0f0       ?getStringEncoding@UnDecorator@@CA?AVDName@@PEADH@Z 000000018003d0f0 f   LIBCMTD:undname.obj
 0001:0003c230       ?getStringHelper@@YAPEADPEAD00H@Z 000000018003d230 f i LIBCMTD:undname.obj
 0001:0003c2a0       ?getSymbolName@UnDecorator@@CA?AVDName@@XZ 000000018003d2a0 f i LIBCMTD:undname.obj
 0001:0003c340       ?getTemplateArgumentList@UnDecorator@@CA?AVDName@@XZ 000000018003d340 f   LIBCMTD:undname.obj
 0001:0003c670       ?getTemplateConstant@UnDecorator@@CA?AVDName@@XZ 000000018003d670 f   LIBCMTD:undname.obj
 0001:0003cc20       ?getTemplateName@UnDecorator@@CA?AVDName@@_N@Z 000000018003dc20 f   LIBCMTD:undname.obj
 0001:0003ce70       ?getThisType@UnDecorator@@CA?AVDName@@XZ 000000018003de70 f i LIBCMTD:undname.obj
 0001:0003ced0       ?getThrowTypes@UnDecorator@@CA?AVDName@@XZ 000000018003ded0 f   LIBCMTD:undname.obj
 0001:0003cfc0       ?getTypeEncoding@UnDecorator@@CAHXZ 000000018003dfc0 f i LIBCMTD:undname.obj
 0001:0003db70       ?getVCallThunkType@UnDecorator@@CA?AVDName@@XZ 000000018003eb70 f i LIBCMTD:undname.obj
 0001:0003dbf0       ?getVbTableType@UnDecorator@@CA?AVDName@@AEBV2@@Z 000000018003ebf0 f i LIBCMTD:undname.obj
 0001:0003dc20       ?getVdispMapType@UnDecorator@@CA?AVDName@@AEBV2@@Z 000000018003ec20 f i LIBCMTD:undname.obj
 0001:0003dcb0       ?getVfTableType@UnDecorator@@CA?AVDName@@AEBV2@@Z 000000018003ecb0 f i LIBCMTD:undname.obj
 0001:0003dee0       ?getZName@UnDecorator@@CA?AVDName@@_N0@Z 000000018003eee0 f   LIBCMTD:undname.obj
 0001:0003e260       ?haveTemplateParameters@UnDecorator@@SAHXZ 000000018003f260 f i LIBCMTD:undname.obj
 0001:0003e270       ?isArray@DName@@QEBAHXZ    000000018003f270 f i LIBCMTD:undname.obj
 0001:0003e290       ?isComArray@DName@@QEBAHXZ 000000018003f290 f i LIBCMTD:undname.obj
 0001:0003e2b0       ?isEmpty@DName@@QEBAHXZ    000000018003f2b0 f i LIBCMTD:undname.obj
 0001:0003e2e0       ?isFull@Replicator@@QEBAHXZ 000000018003f2e0 f i LIBCMTD:undname.obj
 0001:0003e310       ?isNoTE@DName@@QEBAHXZ     000000018003f310 f i LIBCMTD:undname.obj
 0001:0003e330       ?isPinPtr@DName@@QEBAHXZ   000000018003f330 f i LIBCMTD:undname.obj
 0001:0003e350       ?isPtrRef@DName@@QEBAHXZ   000000018003f350 f i LIBCMTD:undname.obj
 0001:0003e370       ?isUDC@DName@@QEBAHXZ      000000018003f370 f i LIBCMTD:undname.obj
 0001:0003e3c0       ?isUDTThunk@DName@@QEBAHXZ 000000018003f3c0 f i LIBCMTD:undname.obj
 0001:0003e410       ?isVCallThunk@DName@@QEBAHXZ 000000018003f410 f i LIBCMTD:undname.obj
 0001:0003e430       ?isValid@DName@@QEBAHXZ    000000018003f430 f i LIBCMTD:undname.obj
 0001:0003e470       ?length@DName@@QEBAHXZ     000000018003f470 f i LIBCMTD:undname.obj
 0001:0003e4b0       ?length@DNameStatusNode@@UEBAHXZ 000000018003f4b0 f i LIBCMTD:undname.obj
 0001:0003e4c0       ?length@charNode@@UEBAHXZ  000000018003f4c0 f i LIBCMTD:undname.obj
 0001:0003e4d0       ?length@pDNameNode@@UEBAHXZ 000000018003f4d0 f i LIBCMTD:undname.obj
 0001:0003e510       ?length@pairNode@@UEBAHXZ  000000018003f510 f i LIBCMTD:undname.obj
 0001:0003e580       ?length@pcharNode@@UEBAHXZ 000000018003f580 f i LIBCMTD:undname.obj
 0001:0003e590       ?make@DNameStatusNode@@SAPEAV1@W4DNameStatus@@@Z 000000018003f590 f i LIBCMTD:undname.obj
 0001:0003e640       ?setIsArray@DName@@QEAAXXZ 000000018003f640 f i LIBCMTD:undname.obj
 0001:0003e660       ?setIsComArray@DName@@QEAAXXZ 000000018003f660 f i LIBCMTD:undname.obj
 0001:0003e680       ?setIsNoTE@DName@@QEAAXXZ  000000018003f680 f i LIBCMTD:undname.obj
 0001:0003e6a0       ?setIsPinPtr@DName@@QEAAXXZ 000000018003f6a0 f i LIBCMTD:undname.obj
 0001:0003e6c0       ?setIsUDC@DName@@QEAAXXZ   000000018003f6c0 f i LIBCMTD:undname.obj
 0001:0003e6f0       ?setIsVCallThunk@DName@@QEAAXXZ 000000018003f6f0 f i LIBCMTD:undname.obj
 0001:0003e710       ?setPtrRef@DName@@QEAAAEAV1@XZ 000000018003f710 f i LIBCMTD:undname.obj
 0001:0003e730       ?status@DName@@QEBA?AW4DNameStatus@@XZ 000000018003f730 f i LIBCMTD:undname.obj
 0001:0003e860       __unDName                  000000018003f860 f   LIBCMTD:undname.obj
 0001:0003e940       __unDNameEx                000000018003f940 f   LIBCMTD:undname.obj
 0001:0003eaf0       _ismbbalnum                000000018003faf0 f   LIBCMTD:ismbbyte.obj
 0001:0003eb20       _ismbbalnum_l              000000018003fb20 f   LIBCMTD:ismbbyte.obj
 0001:0003eb50       _ismbbalpha                000000018003fb50 f   LIBCMTD:ismbbyte.obj
 0001:0003eb80       _ismbbalpha_l              000000018003fb80 f   LIBCMTD:ismbbyte.obj
 0001:0003ebb0       _ismbbgraph                000000018003fbb0 f   LIBCMTD:ismbbyte.obj
 0001:0003ebe0       _ismbbgraph_l              000000018003fbe0 f   LIBCMTD:ismbbyte.obj
 0001:0003ec10       _ismbbkalnum               000000018003fc10 f   LIBCMTD:ismbbyte.obj
 0001:0003ec40       _ismbbkalnum_l             000000018003fc40 f   LIBCMTD:ismbbyte.obj
 0001:0003ec70       _ismbbkana                 000000018003fc70 f   LIBCMTD:ismbbyte.obj
 0001:0003ec90       _ismbbkana_l               000000018003fc90 f   LIBCMTD:ismbbyte.obj
 0001:0003ed20       _ismbbkprint               000000018003fd20 f   LIBCMTD:ismbbyte.obj
 0001:0003ed50       _ismbbkprint_l             000000018003fd50 f   LIBCMTD:ismbbyte.obj
 0001:0003ed80       _ismbbkpunct               000000018003fd80 f   LIBCMTD:ismbbyte.obj
 0001:0003edb0       _ismbbkpunct_l             000000018003fdb0 f   LIBCMTD:ismbbyte.obj
 0001:0003ede0       _ismbblead                 000000018003fde0 f   LIBCMTD:ismbbyte.obj
 0001:0003ee10       _ismbblead_l               000000018003fe10 f   LIBCMTD:ismbbyte.obj
 0001:0003ee40       _ismbbprint                000000018003fe40 f   LIBCMTD:ismbbyte.obj
 0001:0003ee70       _ismbbprint_l              000000018003fe70 f   LIBCMTD:ismbbyte.obj
 0001:0003eea0       _ismbbpunct                000000018003fea0 f   LIBCMTD:ismbbyte.obj
 0001:0003eed0       _ismbbpunct_l              000000018003fed0 f   LIBCMTD:ismbbyte.obj
 0001:0003ef00       _ismbbtrail                000000018003ff00 f   LIBCMTD:ismbbyte.obj
 0001:0003ef30       _ismbbtrail_l              000000018003ff30 f   LIBCMTD:ismbbyte.obj
 0001:0003ef60       _fflush_nolock             000000018003ff60 f   LIBCMTD:fflush.obj
 0001:0003efe0       _flush                     000000018003ffe0 f   LIBCMTD:fflush.obj
 0001:0003f0d0       _flushall                  00000001800400d0 f   LIBCMTD:fflush.obj
 0001:0003f0f0       fflush                     00000001800400f0 f   LIBCMTD:fflush.obj
 0001:0003f2b0       _fcloseall                 00000001800402b0 f   LIBCMTD:closeall.obj
 0001:0003f3b0       __lock_fhandle             00000001800403b0 f   LIBCMTD:osfinfo.obj
 0001:0003f480       _alloc_osfhnd              0000000180040480 f   LIBCMTD:osfinfo.obj
 0001:0003f780       _free_osfhnd               0000000180040780 f   LIBCMTD:osfinfo.obj
 0001:0003f8b0       _get_osfhandle             00000001800408b0 f   LIBCMTD:osfinfo.obj
 0001:0003fac0       _open_osfhandle            0000000180040ac0 f   LIBCMTD:osfinfo.obj
 0001:0003fd30       _set_osfhnd                0000000180040d30 f   LIBCMTD:osfinfo.obj
 0001:0003fe40       _unlock_fhandle            0000000180040e40 f   LIBCMTD:osfinfo.obj
 0001:0003fe80       _mbtowc_l                  0000000180040e80 f   LIBCMTD:mbtowc.obj
 0001:000401c0       mbtowc                     00000001800411c0 f   LIBCMTD:mbtowc.obj
 0001:000401f0       _putwch                    00000001800411f0 f   LIBCMTD:putwch.obj
 0001:00040230       _putwch_nolock             0000000180041230 f   LIBCMTD:putwch.obj
 0001:000402a0       __vswprintf_l              00000001800412a0 f   LIBCMTD:vswprint.obj
 0001:000402e0       _vscwprintf                00000001800412e0 f   LIBCMTD:vswprint.obj
 0001:00040310       _vscwprintf_helper         0000000180041310 f   LIBCMTD:vswprint.obj
 0001:00040460       _vscwprintf_l              0000000180041460 f   LIBCMTD:vswprint.obj
 0001:000404a0       _vscwprintf_p              00000001800414a0 f   LIBCMTD:vswprint.obj
 0001:000404d0       _vscwprintf_p_l            00000001800414d0 f   LIBCMTD:vswprint.obj
 0001:00040510       _vswprintf                 0000000180041510 f   LIBCMTD:vswprint.obj
 0001:00040540       _vswprintf_l               0000000180041540 f   LIBCMTD:vswprint.obj
 0001:00040810       _vsnwprintf_s              0000000180041810 f   LIBCMTD:vswprnc.obj
 0001:00040860       _vsnwprintf_s_l            0000000180041860 f   LIBCMTD:vswprnc.obj
 0001:00040e10       _vswprintf_c               0000000180041e10 f   LIBCMTD:vswprnc.obj
 0001:00040e80       _vswprintf_c_l             0000000180041e80 f   LIBCMTD:vswprnc.obj
 0001:00040ef0       _vswprintf_helper          0000000180041ef0 f   LIBCMTD:vswprnc.obj
 0001:00041240       _vswprintf_p               0000000180042240 f   LIBCMTD:vswprnc.obj
 0001:000412b0       _vswprintf_p_l             00000001800422b0 f   LIBCMTD:vswprnc.obj
 0001:00041320       _vswprintf_s_l             0000000180042320 f   LIBCMTD:vswprnc.obj
 0001:000416b0       vswprintf_s                00000001800426b0 f   LIBCMTD:vswprnc.obj
 0001:000416f0       _woutput_l                 00000001800426f0 f   LIBCMTD:woutput.obj
 0001:00042e50       strcat_s                   0000000180043e50 f   LIBCMTD:strcat_s.obj
 0001:00043460       _i64toa_s                  0000000180044460 f   LIBCMTD:xtoas.obj
 0001:000434c0       _itoa_s                    00000001800444c0 f   LIBCMTD:xtoas.obj
 0001:00043540       _ltoa_s                    0000000180044540 f   LIBCMTD:xtoas.obj
 0001:000435a0       _ui64toa_s                 00000001800445a0 f   LIBCMTD:xtoas.obj
 0001:000435e0       _ultoa_s                   00000001800445e0 f   LIBCMTD:xtoas.obj
 0001:000441b0       _mbstowcs_l                00000001800451b0 f   LIBCMTD:mbstowcs.obj
 0001:000441f0       _mbstowcs_l_helper         00000001800451f0 f   LIBCMTD:mbstowcs.obj
 0001:00044760       _mbstowcs_s_l              0000000180045760 f   LIBCMTD:mbstowcs.obj
 0001:00044cf0       mbstowcs                   0000000180045cf0 f   LIBCMTD:mbstowcs.obj
 0001:00044d50       mbstowcs_s                 0000000180045d50 f   LIBCMTD:mbstowcs.obj
 0001:00044e30       _wcstombs_l                0000000180045e30 f   LIBCMTD:wcstombs.obj
 0001:00044e70       _wcstombs_l_helper         0000000180045e70 f   LIBCMTD:wcstombs.obj
 0001:00045680       _wcstombs_s_l              0000000180046680 f   LIBCMTD:wcstombs.obj
 0001:00045b80       wcstombs                   0000000180046b80 f   LIBCMTD:wcstombs.obj
 0001:00045bb0       wcstombs_s                 0000000180046bb0 f   LIBCMTD:wcstombs.obj
 0001:00045c00       _i64tow_s                  0000000180046c00 f   LIBCMTD:xtows.obj
 0001:00045c60       _itow_s                    0000000180046c60 f   LIBCMTD:xtows.obj
 0001:00045ce0       _ltow_s                    0000000180046ce0 f   LIBCMTD:xtows.obj
 0001:00045d40       _ui64tow_s                 0000000180046d40 f   LIBCMTD:xtows.obj
 0001:00045d80       _ultow_s                   0000000180046d80 f   LIBCMTD:xtows.obj
 0001:00046990       __GSHandlerCheck_SEH       0000000180047990 f   LIBCMTD:gshandlerseh.obj
 0001:00046a50       _iswctype_l                0000000180047a50 f   LIBCMTD:iswctype.obj
 0001:00046a80       is_wctype                  0000000180047a80 f   LIBCMTD:iswctype.obj
 0001:00046ab0       iswctype                   0000000180047ab0 f   LIBCMTD:iswctype.obj
 0001:00046b30       _vprintf_l                 0000000180047b30 f   LIBCMTD:vprintf.obj
 0001:00046b70       _vprintf_p                 0000000180047b70 f   LIBCMTD:vprintf.obj
 0001:00046ba0       _vprintf_p_l               0000000180047ba0 f   LIBCMTD:vprintf.obj
 0001:00046be0       _vprintf_s_l               0000000180047be0 f   LIBCMTD:vprintf.obj
 0001:00046c20       vprintf                    0000000180047c20 f   LIBCMTD:vprintf.obj
 0001:00046c50       vprintf_helper             0000000180047c50 f   LIBCMTD:vprintf.obj
 0001:00046d80       vprintf_s                  0000000180047d80 f   LIBCMTD:vprintf.obj
 0001:00046db0       ___lc_codepage_func        0000000180047db0 f   LIBCMTD:initctyp.obj
 0001:00046e10       ___lc_collate_cp_func      0000000180047e10 f   LIBCMTD:initctyp.obj
 0001:00046e70       ___lc_locale_name_func     0000000180047e70 f   LIBCMTD:initctyp.obj
 0001:00046ed0       ___mb_cur_max_func         0000000180047ed0 f   LIBCMTD:initctyp.obj
 0001:00046f30       ___mb_cur_max_l_func       0000000180047f30 f   LIBCMTD:initctyp.obj
 0001:00046f70       __init_ctype               0000000180047f70 f   LIBCMTD:initctyp.obj
 0001:00047850       __DestructExceptionObject  0000000180048850 f   LIBCMTD:frame.obj
 0001:00047940       ??0bad_exception@std@@QEAA@AEBV01@@Z 0000000180048940 f i LIBCMTD:frame.obj
 0001:00047980       ??0bad_exception@std@@QEAA@PEBD@Z 0000000180048980 f i LIBCMTD:frame.obj
 0001:000479c0       ??1bad_exception@std@@UEAA@XZ 00000001800489c0 f i LIBCMTD:frame.obj
 0001:000479f0       ??_Ebad_exception@std@@UEAAPEAXI@Z 00000001800489f0 f i LIBCMTD:frame.obj
 0001:000479f0       ??_Gbad_exception@std@@UEAAPEAXI@Z 00000001800489f0 f i LIBCMTD:frame.obj
 0001:000489c0       ?__uncaught_exception@@YA_NXZ 00000001800499c0 f   LIBCMTD:frame.obj
 0001:000489f0       ?_is_exception_typeof@@YAHAEBVtype_info@@PEAU_EXCEPTION_POINTERS@@@Z 00000001800499f0 f   LIBCMTD:frame.obj
 0001:00048b40       __AdjustPointer            0000000180049b40 f   LIBCMTD:frame.obj
 0001:00048bc0       __BuildCatchObject         0000000180049bc0 f   LIBCMTD:frame.obj
 0001:00048d00       __BuildCatchObjectHelper   0000000180049d00 f   LIBCMTD:frame.obj
 0001:00049090       __CxxCallCatchBlock        000000018004a090 f   LIBCMTD:frame.obj
 0001:00049300       __CxxDetectRethrow         000000018004a300 f   LIBCMTD:frame.obj
 0001:000493b0       __CxxExceptionFilter       000000018004a3b0 f   LIBCMTD:frame.obj
 0001:000496f0       __CxxQueryExceptionSize    000000018004a6f0 f   LIBCMTD:frame.obj
 0001:00049700       __CxxRegisterExceptionObject 000000018004a700 f   LIBCMTD:frame.obj
 0001:00049890       __CxxUnregisterExceptionObject 000000018004a890 f   LIBCMTD:frame.obj
 0001:00049a50       __FrameUnwindFilter        000000018004aa50 f   LIBCMTD:frame.obj
 0001:00049ae0       __FrameUnwindToState       000000018004aae0 f   LIBCMTD:frame.obj
 0001:00049d40       __InternalCxxFrameHandler  000000018004ad40 f   LIBCMTD:frame.obj
 0001:0004a160       __TypeMatch                000000018004b160 f   LIBCMTD:frame.obj
 0001:0004a320       ?__GetCurrentState@@YAHPEA_KPEAU_xDISPATCHER_CONTEXT@@PEBU_s_FuncInfo@@@Z 000000018004b320 f   LIBCMTD:ehstate.obj
 0001:0004a380       ?__GetUnwindTryBlock@@YAHPEA_KPEAU_xDISPATCHER_CONTEXT@@PEBU_s_FuncInfo@@@Z 000000018004b380 f   LIBCMTD:ehstate.obj
 0001:0004a3d0       ?__SetState@@YAXPEA_KPEAU_xDISPATCHER_CONTEXT@@PEBU_s_FuncInfo@@H@Z 000000018004b3d0 f   LIBCMTD:ehstate.obj
 0001:0004a400       ?__SetUnwindTryBlock@@YAXPEA_KPEAU_xDISPATCHER_CONTEXT@@PEBU_s_FuncInfo@@H@Z 000000018004b400 f   LIBCMTD:ehstate.obj
 0001:0004a470       ?__StateFromControlPc@@YAHPEBU_s_FuncInfo@@PEAU_xDISPATCHER_CONTEXT@@@Z 000000018004b470 f   LIBCMTD:ehstate.obj
 0001:0004a4a0       ?__StateFromIp@@YAHPEBU_s_FuncInfo@@PEAU_xDISPATCHER_CONTEXT@@_J@Z 000000018004b4a0 f   LIBCMTD:ehstate.obj
 0001:0004a580       __init_collate             000000018004b580 f   LIBCMTD:initcoll.obj
 0001:0004a5a0       memcmp                     000000018004b5a0 f   LIBCMTD:memcmp.obj
 0001:0004a670       wcscmp                     000000018004b670 f   LIBCMTD:wcscmp.obj
 0001:0004a6f0       wcscspn                    000000018004b6f0 f   LIBCMTD:wcscspn.obj
 0001:0004a790       wcsnlen                    000000018004b790 f   LIBCMTD:wcslen_s.obj
 0001:0004a7f0       wcsncmp                    000000018004b7f0 f   LIBCMTD:wcsncmp.obj
 0001:0004a880       wcspbrk                    000000018004b880 f   LIBCMTD:wcspbrk.obj
 0001:0004b570       __get_qualified_locale     000000018004c570 f   LIBCMTD:getqloc.obj
 0001:0004b8c0       $I10_OUTPUT                000000018004c8c0 f   LIBCMTD:x10fout.obj
 0001:0004c180       _commit                    000000018004d180 f   LIBCMTD:commit.obj
 0001:0004c420       _fclose_nolock             000000018004d420 f   LIBCMTD:fclose.obj
 0001:0004c570       fclose                     000000018004d570 f   LIBCMTD:fclose.obj
 0001:0004c670       __termconout               000000018004d670 f   LIBCMTD:initcon.obj
 0001:0004c6a0       __initconout               000000018004d6a0 f   LIBCMTD:initcon.obj
 0001:0004c6f0       _validate_param_reuseW     000000018004d6f0 f   LIBCMTD:woutputp.obj
 0001:0004ca60       _woutput_p_l               000000018004da60 f   LIBCMTD:woutputp.obj
 0001:00050c20       _woutput_s_l               0000000180051c20 f   LIBCMTD:woutputs.obj
 0001:00052530       _fputwc_nolock             0000000180053530 f   LIBCMTD:fputwc.obj
 0001:00052990       fputwc                     0000000180053990 f   LIBCMTD:fputwc.obj
 0001:00052a90       putwc                      0000000180053a90 f   LIBCMTD:fputwc.obj
 0001:00052ac0       ?_ValidateExecute@@YAHP6A_JXZ@Z 0000000180053ac0 f   LIBCMTD:validate.obj
 0001:00052af0       ?_ValidateRead@@YAHPEBXI@Z 0000000180053af0 f   LIBCMTD:validate.obj
 0001:00052b20       ?_ValidateWrite@@YAHPEAXI@Z 0000000180053b20 f   LIBCMTD:validate.obj
 0001:00052b60       _CallSettingFrame          0000000180053b60 f   LIBCMTD:handlers.obj
 0001:00052ba0       _GetNextInstrOffset        0000000180053ba0 f   LIBCMTD:handlers.obj
 0001:00052bb0       _wtoi                      0000000180053bb0 f   LIBCMTD:wtox.obj
 0001:00052bd0       _wtoi64                    0000000180053bd0 f   LIBCMTD:wtox.obj
 0001:00052bf0       _wtoi64_l                  0000000180053bf0 f   LIBCMTD:wtox.obj
 0001:00052c20       _wtoi_l                    0000000180053c20 f   LIBCMTD:wtox.obj
 0001:00052c50       _wtol                      0000000180053c50 f   LIBCMTD:wtox.obj
 0001:00052c70       _wtol_l                    0000000180053c70 f   LIBCMTD:wtox.obj
 0001:00052ca0       wcschr                     0000000180053ca0 f   LIBCMTD:wcschr.obj
 0001:00052e00       _wcsicmp                   0000000180053e00 f   LIBCMTD:wcsicmp.obj
 0001:00053050       _wcsicmp_l                 0000000180054050 f   LIBCMTD:wcsicmp.obj
 0001:000533c0       _wcsnicmp                  00000001800543c0 f   LIBCMTD:wcsnicmp.obj
 0001:00053660       _wcsnicmp_l                0000000180054660 f   LIBCMTD:wcsnicmp.obj
 0001:000539f0       _close                     00000001800549f0 f   LIBCMTD:close.obj
 0001:00053c80       _close_nolock              0000000180054c80 f   LIBCMTD:close.obj
 0001:00053da0       _freebuf                   0000000180054da0 f   LIBCMTD:_freebuf.obj
 0001:00054390       _wcstol_l                  0000000180055390 f   LIBCMTD:wcstol.obj
 0001:000543d0       _wcstoul_l                 00000001800553d0 f   LIBCMTD:wcstol.obj
 0001:00054410       wcstol                     0000000180055410 f   LIBCMTD:wcstol.obj
 0001:00054440       wcstoul                    0000000180055440 f   LIBCMTD:wcstol.obj
 0001:00054480       _flswbuf                   0000000180055480 f   LIBCMTD:_flswbuf.obj
 0001:00054ec0       _wcstoi64                  0000000180055ec0 f   LIBCMTD:wcstoq.obj
 0001:00054f30       _wcstoi64_l                0000000180055f30 f   LIBCMTD:wcstoq.obj
 0001:00054f70       _wcstoui64                 0000000180055f70 f   LIBCMTD:wcstoq.obj
 0001:00054fe0       _wcstoui64_l               0000000180055fe0 f   LIBCMTD:wcstoq.obj
 0001:00055020       _towlower_l                0000000180056020 f   LIBCMTD:towlower.obj
 0001:000551e0       towlower                   00000001800561e0 f   LIBCMTD:towlower.obj
 0001:00055200       _wchartodigit              0000000180056200 f   LIBCMTD:wchtodig.obj
 0001:00055570       __crtLCMapStringW          0000000180056570 f   LIBCMTD:w_map.obj
 0001:000555d4       EncodePointer              00000001800565d4 f   kernel32:KERNEL32.dll
 0001:000555da       DecodePointer              00000001800565da f   kernel32:KERNEL32.dll
 0001:000555e0       GetCommandLineA            00000001800565e0 f   kernel32:KERNEL32.dll
 0001:000555e6       GetCurrentThreadId         00000001800565e6 f   kernel32:KERNEL32.dll
 0001:000555ec       GetLastError               00000001800565ec f   kernel32:KERNEL32.dll
 0001:000555f2       ExitProcess                00000001800565f2 f   kernel32:KERNEL32.dll
 0001:000555f8       GetModuleHandleExW         00000001800565f8 f   kernel32:KERNEL32.dll
 0001:000555fe       GetProcAddress             00000001800565fe f   kernel32:KERNEL32.dll
 0001:00055604       AreFileApisANSI            0000000180056604 f   kernel32:KERNEL32.dll
 0001:0005560a       MultiByteToWideChar        000000018005660a f   kernel32:KERNEL32.dll
 0001:00055610       HeapSize                   0000000180056610 f   kernel32:KERNEL32.dll
 0001:00055616       HeapValidate               0000000180056616 f   kernel32:KERNEL32.dll
 0001:0005561c       GetSystemInfo              000000018005661c f   kernel32:KERNEL32.dll
 0001:00055622       RtlUnwindEx                0000000180056622 f   kernel32:KERNEL32.dll
 0001:00055628       IsDebuggerPresent          0000000180056628 f   kernel32:KERNEL32.dll
 0001:0005562e       IsProcessorFeaturePresent  000000018005662e f   kernel32:KERNEL32.dll
 0001:00055634       GetModuleFileNameW         0000000180056634 f   kernel32:KERNEL32.dll
 0001:0005563a       IsValidCodePage            000000018005663a f   kernel32:KERNEL32.dll
 0001:00055640       GetACP                     0000000180056640 f   kernel32:KERNEL32.dll
 0001:00055646       GetOEMCP                   0000000180056646 f   kernel32:KERNEL32.dll
 0001:0005564c       GetCPInfo                  000000018005664c f   kernel32:KERNEL32.dll
 0001:00055652       SetLastError               0000000180056652 f   kernel32:KERNEL32.dll
 0001:00055658       GetCurrentThread           0000000180056658 f   kernel32:KERNEL32.dll
 0001:0005565e       GetStdHandle               000000018005665e f   kernel32:KERNEL32.dll
 0001:00055664       WriteFile                  0000000180056664 f   kernel32:KERNEL32.dll
 0001:0005566a       RtlPcToFileHeader          000000018005666a f   kernel32:KERNEL32.dll
 0001:00055670       RaiseException             0000000180056670 f   kernel32:KERNEL32.dll
 0001:00055676       EnterCriticalSection       0000000180056676 f   kernel32:KERNEL32.dll
 0001:0005567c       LeaveCriticalSection       000000018005667c f   kernel32:KERNEL32.dll
 0001:00055682       InitializeCriticalSectionAndSpinCount 0000000180056682 f   kernel32:KERNEL32.dll
 0001:00055688       DeleteCriticalSection      0000000180056688 f   kernel32:KERNEL32.dll
 0001:0005568e       FatalAppExitA              000000018005668e f   kernel32:KERNEL32.dll
 0001:00055694       GetProcessHeap             0000000180056694 f   kernel32:KERNEL32.dll
 0001:0005569a       GetFileType                000000018005669a f   kernel32:KERNEL32.dll
 0001:000556a0       InitOnceExecuteOnce        00000001800566a0 f   kernel32:KERNEL32.dll
 0001:000556a6       GetStartupInfoW            00000001800566a6 f   kernel32:KERNEL32.dll
 0001:000556ac       GetModuleFileNameA         00000001800566ac f   kernel32:KERNEL32.dll
 0001:000556b2       QueryPerformanceCounter    00000001800566b2 f   kernel32:KERNEL32.dll
 0001:000556b8       GetSystemTimeAsFileTime    00000001800566b8 f   kernel32:KERNEL32.dll
 0001:000556be       GetTickCount64             00000001800566be f   kernel32:KERNEL32.dll
 0001:000556c4       GetEnvironmentStringsW     00000001800566c4 f   kernel32:KERNEL32.dll
 0001:000556ca       FreeEnvironmentStringsW    00000001800566ca f   kernel32:KERNEL32.dll
 0001:000556d0       WideCharToMultiByte        00000001800566d0 f   kernel32:KERNEL32.dll
 0001:000556d6       RtlCaptureContext          00000001800566d6 f   kernel32:KERNEL32.dll
 0001:000556dc       RtlLookupFunctionEntry     00000001800566dc f   kernel32:KERNEL32.dll
 0001:000556e2       RtlVirtualUnwind           00000001800566e2 f   kernel32:KERNEL32.dll
 0001:000556e8       UnhandledExceptionFilter   00000001800566e8 f   kernel32:KERNEL32.dll
 0001:000556ee       SetUnhandledExceptionFilter 00000001800566ee f   kernel32:KERNEL32.dll
 0001:000556f4       FlsAlloc                   00000001800566f4 f   kernel32:KERNEL32.dll
 0001:000556fa       FlsGetValue                00000001800566fa f   kernel32:KERNEL32.dll
 0001:00055700       FlsSetValue                0000000180056700 f   kernel32:KERNEL32.dll
 0001:00055706       FlsFree                    0000000180056706 f   kernel32:KERNEL32.dll
 0001:0005570c       GetCurrentProcess          000000018005670c f   kernel32:KERNEL32.dll
 0001:00055712       TerminateProcess           0000000180056712 f   kernel32:KERNEL32.dll
 0001:00055718       GetModuleHandleW           0000000180056718 f   kernel32:KERNEL32.dll
 0001:0005571e       FreeLibrary                000000018005671e f   kernel32:KERNEL32.dll
 0001:00055724       LoadLibraryExW             0000000180056724 f   kernel32:KERNEL32.dll
 0001:0005572a       SetConsoleCtrlHandler      000000018005672a f   kernel32:KERNEL32.dll
 0001:00055730       HeapFree                   0000000180056730 f   kernel32:KERNEL32.dll
 0001:00055736       HeapReAlloc                0000000180056736 f   kernel32:KERNEL32.dll
 0001:0005573c       HeapQueryInformation       000000018005673c f   kernel32:KERNEL32.dll
 0001:00055742       HeapAlloc                  0000000180056742 f   kernel32:KERNEL32.dll
 0001:00055748       GetConsoleCP               0000000180056748 f   kernel32:KERNEL32.dll
 0001:0005574e       GetConsoleMode             000000018005674e f   kernel32:KERNEL32.dll
 0001:00055754       SetFilePointerEx           0000000180056754 f   kernel32:KERNEL32.dll
 0001:0005575a       OutputDebugStringW         000000018005675a f   kernel32:KERNEL32.dll
 0001:00055760       WaitForSingleObjectEx      0000000180056760 f   kernel32:KERNEL32.dll
 0001:00055766       CreateThread               0000000180056766 f   kernel32:KERNEL32.dll
 0001:0005576c       LoadLibraryW               000000018005676c f   kernel32:KERNEL32.dll
 0001:00055772       OutputDebugStringA         0000000180056772 f   kernel32:KERNEL32.dll
 0001:00055778       WriteConsoleW              0000000180056778 f   kernel32:KERNEL32.dll
 0001:0005577e       GetStringTypeW             000000018005677e f   kernel32:KERNEL32.dll
 0001:00055784       GetTimeFormatEx            0000000180056784 f   kernel32:KERNEL32.dll
 0001:0005578a       GetDateFormatEx            000000018005678a f   kernel32:KERNEL32.dll
 0001:00055790       CompareStringEx            0000000180056790 f   kernel32:KERNEL32.dll
 0001:00055796       GetLocaleInfoEx            0000000180056796 f   kernel32:KERNEL32.dll
 0001:0005579c       GetUserDefaultLocaleName   000000018005679c f   kernel32:KERNEL32.dll
 0001:000557a2       LCMapStringEx              00000001800567a2 f   kernel32:KERNEL32.dll
 0001:000557a8       IsValidLocaleName          00000001800567a8 f   kernel32:KERNEL32.dll
 0001:000557ae       EnumSystemLocalesEx        00000001800567ae f   kernel32:KERNEL32.dll
 0001:000557b4       SetStdHandle               00000001800567b4 f   kernel32:KERNEL32.dll
 0001:000557ba       FlushFileBuffers           00000001800567ba f   kernel32:KERNEL32.dll
 0001:000557c0       CreateFileW                00000001800567c0 f   kernel32:KERNEL32.dll
 0001:000557c6       CloseHandle                00000001800567c6 f   kernel32:KERNEL32.dll
 0002:00000000       __xc_a                     0000000180071000     LIBCMTD:crt0init.obj
 0002:00000230       __xc_z                     0000000180071230     LIBCMTD:crt0init.obj
 0002:00000340       __xi_a                     0000000180071340     LIBCMTD:crt0init.obj
 0002:00000578       __xi_z                     0000000180071578     LIBCMTD:crt0init.obj
 0002:00000688       __xp_a                     0000000180071688     LIBCMTD:crt0init.obj
 0002:000009c0       __xp_z                     00000001800719c0     LIBCMTD:crt0init.obj
 0002:00000ad0       __xt_a                     0000000180071ad0     LIBCMTD:crt0init.obj
 0002:00000be0       __xt_z                     0000000180071be0     LIBCMTD:crt0init.obj
 0002:00000d28       ?min_exponent@?$numeric_limits@O@std@@2HB 0000000180071d28     enginehead.obj
 0002:00000d2c       ?min_exponent10@?$numeric_limits@O@std@@2HB 0000000180071d2c     enginehead.obj
 0002:00000d30       ?has_denorm@_Num_base@std@@2W4float_denorm_style@2@B 0000000180071d30     enginehead.obj
 0002:00000d34       ?has_denorm_loss@_Num_base@std@@2_NB 0000000180071d34     enginehead.obj
 0002:00000d35       ?has_infinity@_Num_base@std@@2_NB 0000000180071d35     enginehead.obj
 0002:00000d36       ?has_quiet_NaN@_Num_base@std@@2_NB 0000000180071d36     enginehead.obj
 0002:00000d37       ?has_signaling_NaN@_Num_base@std@@2_NB 0000000180071d37     enginehead.obj
 0002:00000d38       ?is_bounded@_Num_base@std@@2_NB 0000000180071d38     enginehead.obj
 0002:00000d39       ?is_exact@_Num_base@std@@2_NB 0000000180071d39     enginehead.obj
 0002:00000d3a       ?is_iec559@_Num_base@std@@2_NB 0000000180071d3a     enginehead.obj
 0002:00000d3b       ?is_integer@_Num_base@std@@2_NB 0000000180071d3b     enginehead.obj
 0002:00000d3c       ?is_modulo@_Num_base@std@@2_NB 0000000180071d3c     enginehead.obj
 0002:00000d3d       ?is_signed@_Num_base@std@@2_NB 0000000180071d3d     enginehead.obj
 0002:00000d3e       ?is_specialized@_Num_base@std@@2_NB 0000000180071d3e     enginehead.obj
 0002:00000d3f       ?tinyness_before@_Num_base@std@@2_NB 0000000180071d3f     enginehead.obj
 0002:00000d40       ?traps@_Num_base@std@@2_NB 0000000180071d40     enginehead.obj
 0002:00000d44       ?round_style@_Num_base@std@@2W4float_round_style@2@B 0000000180071d44     enginehead.obj
 0002:00000d48       ?digits@_Num_base@std@@2HB 0000000180071d48     enginehead.obj
 0002:00000d4c       ?digits10@_Num_base@std@@2HB 0000000180071d4c     enginehead.obj
 0002:00000d50       ?max_digits10@_Num_base@std@@2HB 0000000180071d50     enginehead.obj
 0002:00000d54       ?max_exponent@_Num_base@std@@2HB 0000000180071d54     enginehead.obj
 0002:00000d58       ?max_exponent10@_Num_base@std@@2HB 0000000180071d58     enginehead.obj
 0002:00000d5c       ?min_exponent@_Num_base@std@@2HB 0000000180071d5c     enginehead.obj
 0002:00000d60       ?min_exponent10@_Num_base@std@@2HB 0000000180071d60     enginehead.obj
 0002:00000d64       ?radix@_Num_base@std@@2HB  0000000180071d64     enginehead.obj
 0002:00000d68       ?is_bounded@_Num_int_base@std@@2_NB 0000000180071d68     enginehead.obj
 0002:00000d69       ?is_exact@_Num_int_base@std@@2_NB 0000000180071d69     enginehead.obj
 0002:00000d6a       ?is_integer@_Num_int_base@std@@2_NB 0000000180071d6a     enginehead.obj
 0002:00000d6b       ?is_modulo@_Num_int_base@std@@2_NB 0000000180071d6b     enginehead.obj
 0002:00000d6c       ?is_specialized@_Num_int_base@std@@2_NB 0000000180071d6c     enginehead.obj
 0002:00000d70       ?radix@_Num_int_base@std@@2HB 0000000180071d70     enginehead.obj
 0002:00000d74       ?has_denorm@_Num_float_base@std@@2W4float_denorm_style@2@B 0000000180071d74     enginehead.obj
 0002:00000d78       ?has_denorm_loss@_Num_float_base@std@@2_NB 0000000180071d78     enginehead.obj
 0002:00000d79       ?has_infinity@_Num_float_base@std@@2_NB 0000000180071d79     enginehead.obj
 0002:00000d7a       ?has_quiet_NaN@_Num_float_base@std@@2_NB 0000000180071d7a     enginehead.obj
 0002:00000d7b       ?has_signaling_NaN@_Num_float_base@std@@2_NB 0000000180071d7b     enginehead.obj
 0002:00000d7c       ?is_bounded@_Num_float_base@std@@2_NB 0000000180071d7c     enginehead.obj
 0002:00000d7d       ?is_exact@_Num_float_base@std@@2_NB 0000000180071d7d     enginehead.obj
 0002:00000d7e       ?is_iec559@_Num_float_base@std@@2_NB 0000000180071d7e     enginehead.obj
 0002:00000d7f       ?is_integer@_Num_float_base@std@@2_NB 0000000180071d7f     enginehead.obj
 0002:00000d80       ?is_modulo@_Num_float_base@std@@2_NB 0000000180071d80     enginehead.obj
 0002:00000d81       ?is_signed@_Num_float_base@std@@2_NB 0000000180071d81     enginehead.obj
 0002:00000d82       ?is_specialized@_Num_float_base@std@@2_NB 0000000180071d82     enginehead.obj
 0002:00000d83       ?tinyness_before@_Num_float_base@std@@2_NB 0000000180071d83     enginehead.obj
 0002:00000d84       ?traps@_Num_float_base@std@@2_NB 0000000180071d84     enginehead.obj
 0002:00000d88       ?round_style@_Num_float_base@std@@2W4float_round_style@2@B 0000000180071d88     enginehead.obj
 0002:00000d8c       ?radix@_Num_float_base@std@@2HB 0000000180071d8c     enginehead.obj
 0002:00000d90       ?is_signed@?$numeric_limits@D@std@@2_NB 0000000180071d90     enginehead.obj
 0002:00000d94       ?digits@?$numeric_limits@D@std@@2HB 0000000180071d94     enginehead.obj
 0002:00000d98       ?digits10@?$numeric_limits@D@std@@2HB 0000000180071d98     enginehead.obj
 0002:00000d9c       ?is_signed@?$numeric_limits@_W@std@@2_NB 0000000180071d9c     enginehead.obj
 0002:00000da0       ?digits@?$numeric_limits@_W@std@@2HB 0000000180071da0     enginehead.obj
 0002:00000da4       ?digits10@?$numeric_limits@_W@std@@2HB 0000000180071da4     enginehead.obj
 0002:00000da8       ?is_modulo@?$numeric_limits@_N@std@@2_NB 0000000180071da8     enginehead.obj
 0002:00000da9       ?is_signed@?$numeric_limits@_N@std@@2_NB 0000000180071da9     enginehead.obj
 0002:00000dac       ?digits@?$numeric_limits@_N@std@@2HB 0000000180071dac     enginehead.obj
 0002:00000db0       ?digits10@?$numeric_limits@_N@std@@2HB 0000000180071db0     enginehead.obj
 0002:00000db4       ?is_signed@?$numeric_limits@C@std@@2_NB 0000000180071db4     enginehead.obj
 0002:00000db8       ?digits@?$numeric_limits@C@std@@2HB 0000000180071db8     enginehead.obj
 0002:00000dbc       ?digits10@?$numeric_limits@C@std@@2HB 0000000180071dbc     enginehead.obj
 0002:00000dc0       ?value@?$_Sizeof@HU_Nil@std@@U12@U12@U12@U12@U12@U12@@std@@2_KB 0000000180071dc0     enginehead.obj
 0002:00000dc9       ?is_signed@?$numeric_limits@E@std@@2_NB 0000000180071dc9     enginehead.obj
 0002:00000dcc       ?digits@?$numeric_limits@E@std@@2HB 0000000180071dcc     enginehead.obj
 0002:00000dd0       ?digits10@?$numeric_limits@E@std@@2HB 0000000180071dd0     enginehead.obj
 0002:00000dd4       ?is_signed@?$numeric_limits@F@std@@2_NB 0000000180071dd4     enginehead.obj
 0002:00000dd8       ?digits@?$numeric_limits@F@std@@2HB 0000000180071dd8     enginehead.obj
 0002:00000ddc       ?digits10@?$numeric_limits@F@std@@2HB 0000000180071ddc     enginehead.obj
 0002:00000de0       ?is_signed@?$numeric_limits@G@std@@2_NB 0000000180071de0     enginehead.obj
 0002:00000de4       ?digits@?$numeric_limits@G@std@@2HB 0000000180071de4     enginehead.obj
 0002:00000de8       ?digits10@?$numeric_limits@G@std@@2HB 0000000180071de8     enginehead.obj
 0002:00000dec       ?is_signed@?$numeric_limits@H@std@@2_NB 0000000180071dec     enginehead.obj
 0002:00000df0       ?digits@?$numeric_limits@H@std@@2HB 0000000180071df0     enginehead.obj
 0002:00000df4       ?digits10@?$numeric_limits@H@std@@2HB 0000000180071df4     enginehead.obj
 0002:00000df8       ?is_signed@?$numeric_limits@I@std@@2_NB 0000000180071df8     enginehead.obj
 0002:00000dfc       ?digits@?$numeric_limits@I@std@@2HB 0000000180071dfc     enginehead.obj
 0002:00000e00       ?digits10@?$numeric_limits@I@std@@2HB 0000000180071e00     enginehead.obj
 0002:00000e04       ?is_signed@?$numeric_limits@J@std@@2_NB 0000000180071e04     enginehead.obj
 0002:00000e08       ?digits@?$numeric_limits@J@std@@2HB 0000000180071e08     enginehead.obj
 0002:00000e0c       ?digits10@?$numeric_limits@J@std@@2HB 0000000180071e0c     enginehead.obj
 0002:00000e10       ?is_signed@?$numeric_limits@K@std@@2_NB 0000000180071e10     enginehead.obj
 0002:00000e14       ?digits@?$numeric_limits@K@std@@2HB 0000000180071e14     enginehead.obj
 0002:00000e18       ?digits10@?$numeric_limits@K@std@@2HB 0000000180071e18     enginehead.obj
 0002:00000e1c       ?is_signed@?$numeric_limits@_J@std@@2_NB 0000000180071e1c     enginehead.obj
 0002:00000e20       ?value@?$integral_constant@_K$0A@@std@@2_KB 0000000180071e20     enginehead.obj
 0002:00000e2c       ?digits@?$numeric_limits@_J@std@@2HB 0000000180071e2c     enginehead.obj
 0002:00000e30       ?digits10@?$numeric_limits@_J@std@@2HB 0000000180071e30     enginehead.obj
 0002:00000e38       ?value@?$_Sizeof@U_Nil@std@@U12@U12@U12@U12@U12@U12@U12@@std@@2_KB 0000000180071e38     enginehead.obj
 0002:00000e41       ?is_signed@?$numeric_limits@_K@std@@2_NB 0000000180071e41     enginehead.obj
 0002:00000e44       ?digits@?$numeric_limits@_K@std@@2HB 0000000180071e44     enginehead.obj
 0002:00000e48       ?digits10@?$numeric_limits@_K@std@@2HB 0000000180071e48     enginehead.obj
 0002:00000e4c       ?digits@?$numeric_limits@M@std@@2HB 0000000180071e4c     enginehead.obj
 0002:00000e50       ?digits10@?$numeric_limits@M@std@@2HB 0000000180071e50     enginehead.obj
 0002:00000e54       ?max_digits10@?$numeric_limits@M@std@@2HB 0000000180071e54     enginehead.obj
 0002:00000e58       ?max_exponent@?$numeric_limits@M@std@@2HB 0000000180071e58     enginehead.obj
 0002:00000e5c       ?max_exponent10@?$numeric_limits@M@std@@2HB 0000000180071e5c     enginehead.obj
 0002:00000e60       ?min_exponent@?$numeric_limits@M@std@@2HB 0000000180071e60     enginehead.obj
 0002:00000e64       ?min_exponent10@?$numeric_limits@M@std@@2HB 0000000180071e64     enginehead.obj
 0002:00000e68       ?digits@?$numeric_limits@N@std@@2HB 0000000180071e68     enginehead.obj
 0002:00000e6c       ?digits10@?$numeric_limits@N@std@@2HB 0000000180071e6c     enginehead.obj
 0002:00000e70       ?value@?$integral_constant@_N$0A@@std@@2_NB 0000000180071e70     enginehead.obj
 0002:00000e74       ?max_digits10@?$numeric_limits@N@std@@2HB 0000000180071e74     enginehead.obj
 0002:00000e78       ?max_exponent@?$numeric_limits@N@std@@2HB 0000000180071e78     enginehead.obj
 0002:00000e7c       ?max_exponent10@?$numeric_limits@N@std@@2HB 0000000180071e7c     enginehead.obj
 0002:00000e80       ?min_exponent@?$numeric_limits@N@std@@2HB 0000000180071e80     enginehead.obj
 0002:00000e84       ?value@?$integral_constant@_N$00@std@@2_NB 0000000180071e84     enginehead.obj
 0002:00000e88       ?min_exponent10@?$numeric_limits@N@std@@2HB 0000000180071e88     enginehead.obj
 0002:00000e8c       ?digits@?$numeric_limits@O@std@@2HB 0000000180071e8c     enginehead.obj
 0002:00000e90       ?digits10@?$numeric_limits@O@std@@2HB 0000000180071e90     enginehead.obj
 0002:00000e94       ?max_digits10@?$numeric_limits@O@std@@2HB 0000000180071e94     enginehead.obj
 0002:00000e98       ?max_exponent@?$numeric_limits@O@std@@2HB 0000000180071e98     enginehead.obj
 0002:00000e9c       ?max_exponent10@?$numeric_limits@O@std@@2HB 0000000180071e9c     enginehead.obj
 0002:00000ea0       ??_C@_0GG@CNDLGNIC@FAILED?3?5?$CFs?6ERROR?3?5?$CFs?6FILE?5?8?$CFs?8?0?5@ 0000000180071ea0     AppVariables.obj
 0002:00000f20       ??_C@_0BI@LMEKOFIE@source?2AppVariables?4cpp?$AA@ 0000000180071f20     AppVariables.obj
 0002:00000f40       ??_C@_0BN@FBLCBFJL@out?5of?5range?5double?5to?5float?$AA@ 0000000180071f40     AppVariables.obj
 0002:00000f68       ??_C@_0CE@IDEMOJNI@double?$CItoDouble?$CJ?5?$DM?$DN?5?$CIdouble?$CJFLT_@ 0000000180071f68     AppVariables.obj
 0002:00000f98       ??_C@_0CE@OFHDALEG@double?$CItoDouble?$CJ?5?$DO?$DN?5?$CIdouble?$CJFLT_@ 0000000180071f98     AppVariables.obj
 0002:00000fc8       __real@3810000000000000    0000000180071fc8     AppVariables.obj
 0002:00000fd8       __real@47efffffe0000000    0000000180071fd8     AppVariables.obj
 0002:00000ff0       ??_7IEngine@@6B@           0000000180071ff0     CEngine.obj
 0002:00001020       ??_7CEngine@@6B@           0000000180072020     CEngine.obj
 0002:00001048       ??_C@_08CBHCFJJK@platform?$AA@ 0000000180072048     CEngine.obj
 0002:00001058       ??_C@_0BD@JIHMELAK@source?2CEngine?4cpp?$AA@ 0000000180072058     CEngine.obj
 0002:00001070       ??_C@_0CF@GBFIJNCD@Could?5not?5create?5extensions?5mana@ 0000000180072070     CEngine.obj
 0002:000010a0       ??_C@_0BE@PIAFOJOA@m_pExtensionManager?$AA@ 00000001800720a0     CEngine.obj
 0002:000010b8       ??_C@_0CK@NBHCDAGK@Running?5engine?5with?5no?5extension@ 00000001800720b8     CEngine.obj
 0002:000010ec       ??_C@_06LOBMEHPF@engine?$AA@ 00000001800720ec     CEngine.obj
 0002:000010f4       ?MAX_KEYVALUE_STRING_SIZE@Keyvalues@Utility@@2IB 00000001800720f4     CExtensions.obj
 0002:000010f8       ?NUM_USED_ASCII_CHARS@Keyvalues@Utility@@0IB 00000001800720f8     CExtensions.obj
 0002:00001108       ??_7IExtensions@@6B@       0000000180072108     CExtensions.obj
 0002:00001168       ??_7CExtensions@@6B@       0000000180072168     CExtensions.obj
 0002:000011b8       ??_C@_0DK@CDFBJMMO@c?3?2users?2ryan?2desktop?2genesis?2en@ 00000001800721b8     CExtensions.obj
 0002:00001200       ??_C@_0CC@HIBINDHF@Getting?5out?5of?5range?5send?5buffer@ 0000000180072200     CExtensions.obj
 0002:00001228       ??_C@_0CH@BKNFLHAO@index?5?$DO?$DN?50?5?$CG?$CG?5index?5?$DM?5NUM_SEND_B@ 0000000180072228     CExtensions.obj
 0002:00001258       ??_C@_05LAPONLG@false?$AA@ 0000000180072258     CExtensions.obj
 0002:00001260       ??_C@_0BH@KGKOJILL@source?2CExtensions?4cpp?$AA@ 0000000180072260     CExtensions.obj
 0002:00001280       ??_C@_0CI@MCDHFFPE@Unable?5to?5connect?5extension?5dll?5@ 0000000180072280     CExtensions.obj
 0002:000012b0       ??_C@_0L@MENCHPLE@pDLLHandle?$AA@ 00000001800722b0     CExtensions.obj
 0002:000012c0       ??_C@_0ED@MCPFHOGM@Unable?5to?5create?5extension?5?$CFs?5fr@ 00000001800722c0     CExtensions.obj
 0002:00001310       ??_C@_0CF@IELDFLPD@Incomplete?5parameters?5in?5SendBuf@ 0000000180072310     CExtensions.obj
 0002:00001340       ??_C@_0BH@HFFEKBPB@pszSendName?5?$CG?$CG?5pBuffer?$AA@ 0000000180072340     CExtensions.obj
 0002:00001360       ??_C@_0DA@DMPFLGNO@Ran?5out?5of?5extension?5send?5buffer@ 0000000180072360     CExtensions.obj
 0002:000013a0       ??_C@_0CF@MGOHCGHN@m_uiCurSendBuffer?5?$DM?5NUM_SEND_BUF@ 00000001800723a0     CExtensions.obj
 0002:000013d0       ??_C@_0DF@GEIKHPOC@f?3?2dd?2vctools?2crt_bld?2self_64_am@ 00000001800723d0     LIBCMTD:onexit.obj
 0002:00001408       ??_C@_1CC@MGIEJOME@?$AA?$CI?$AAf?$AAo?$AAr?$AAm?$AAa?$AAt?$AA?5?$AA?$CB?$AA?$DN?$AA?5?$AAN?$AAU?$AAL?$AAL?$AA?$CJ?$AA?$AA@ 0000000180072408     LIBCMTD:vsnprnc.obj
 0002:0000142c       ??_C@_15GANGMFKL@?$AA?$CF?$AAs?$AA?$AA@ 000000018007242c     LIBCMTD:vsnprnc.obj
 0002:00001440       ??_C@_1GO@KICJGPPN@?$AAf?$AA?3?$AA?2?$AAd?$AAd?$AA?2?$AAv?$AAc?$AAt?$AAo?$AAo?$AAl?$AAs?$AA?2?$AAc?$AAr?$AAt?$AA_?$AAb?$AAl?$AAd?$AA?2?$AAs?$AAe?$AAl?$AAf?$AA_?$AA6?$AA4?$AA_?$AAa?$AAm@ 0000000180072440     LIBCMTD:vsnprnc.obj
 0002:000014b0       ??_C@_1CE@PCFPEIFI@?$AA_?$AAv?$AAs?$AAn?$AAp?$AAr?$AAi?$AAn?$AAt?$AAf?$AA_?$AAh?$AAe?$AAl?$AAp?$AAe?$AAr?$AA?$AA@ 00000001800724b0     LIBCMTD:vsnprnc.obj
 0002:000014e0       ??_C@_1EC@FABAOFFO@?$AA?$CI?$AAc?$AAo?$AAu?$AAn?$AAt?$AA?5?$AA?$DN?$AA?$DN?$AA?5?$AA0?$AA?$CJ?$AA?5?$AA?$HM?$AA?$HM?$AA?5?$AA?$CI?$AAs?$AAt?$AAr?$AAi?$AAn?$AAg?$AA?5?$AA?$CB?$AA?$DN?$AA?5?$AAN?$AAU?$AAL?$AAL?$AA?$CJ@ 00000001800724e0     LIBCMTD:vsnprnc.obj
 0002:00001528       ??_C@_1BO@MLMCMBKN@?$AAf?$AAo?$AAr?$AAm?$AAa?$AAt?$AA?5?$AA?$CB?$AA?$DN?$AA?5?$AAN?$AAU?$AAL?$AAL?$AA?$AA@ 0000000180072528     LIBCMTD:vsnprnc.obj
 0002:00001548       ??_C@_1BM@BLJALHEF@?$AA_?$AAv?$AAs?$AAp?$AAr?$AAi?$AAn?$AAt?$AAf?$AA_?$AAs?$AA_?$AAl?$AA?$AA@ 0000000180072548     LIBCMTD:vsnprnc.obj
 0002:00001570       ??_C@_1EE@OKCKIGFK@?$AAs?$AAt?$AAr?$AAi?$AAn?$AAg?$AA?5?$AA?$CB?$AA?$DN?$AA?5?$AAN?$AAU?$AAL?$AAL?$AA?5?$AA?$CG?$AA?$CG?$AA?5?$AAs?$AAi?$AAz?$AAe?$AAI?$AAn?$AAB?$AAy?$AAt?$AAe?$AAs?$AA?5?$AA?$DO?$AA?5@ 0000000180072570     LIBCMTD:vsnprnc.obj
 0002:000015b8       ??_C@_1DA@HPBFKMEB@?$AA?$CI?$AA?$CC?$AAB?$AAu?$AAf?$AAf?$AAe?$AAr?$AA?5?$AAt?$AAo?$AAo?$AA?5?$AAs?$AAm?$AAa?$AAl?$AAl?$AA?$CC?$AA?0?$AA?5?$AA0?$AA?$CJ?$AA?$AA@ 00000001800725b8     LIBCMTD:vsnprnc.obj
 0002:000015e8       ??_C@_1BO@MMPELNIM@?$AA_?$AAv?$AAs?$AAn?$AAp?$AAr?$AAi?$AAn?$AAt?$AAf?$AA_?$AAs?$AA_?$AAl?$AA?$AA@ 00000001800725e8     LIBCMTD:vsnprnc.obj
 0002:00001608       ??_C@_1BI@IGILPKD@?$AA_?$AAv?$AAs?$AAp?$AAr?$AAi?$AAn?$AAt?$AAf?$AA_?$AAl?$AA?$AA@ 0000000180072608     LIBCMTD:vsprintf.obj
 0002:00001620       ??_C@_1CC@OLIJCKA@?$AA?$CI?$AAs?$AAt?$AAr?$AAi?$AAn?$AAg?$AA?5?$AA?$CB?$AA?$DN?$AA?5?$AAN?$AAU?$AAL?$AAL?$AA?$CJ?$AA?$AA@ 0000000180072620     LIBCMTD:vsprintf.obj
 0002:00001648       ??_C@_1CE@HMKDJHB@?$AA_?$AAv?$AAs?$AAc?$AAp?$AAr?$AAi?$AAn?$AAt?$AAf?$AA_?$AAh?$AAe?$AAl?$AAp?$AAe?$AAr?$AA?$AA@ 0000000180072648     LIBCMTD:vsprintf.obj
 0002:0000166c       ?ProcessDetach@NativeDll@<CrtImplementationDetails>@@0IB 000000018007266c     LIBCMTD:atof.obj
 0002:00001670       ?ProcessAttach@NativeDll@<CrtImplementationDetails>@@0IB 0000000180072670     LIBCMTD:atof.obj
 0002:00001674       ?ThreadAttach@NativeDll@<CrtImplementationDetails>@@0IB 0000000180072674     LIBCMTD:atof.obj
 0002:00001678       ?ThreadDetach@NativeDll@<CrtImplementationDetails>@@0IB 0000000180072678     LIBCMTD:atof.obj
 0002:0000167c       ?ProcessVerifier@NativeDll@<CrtImplementationDetails>@@0IB 000000018007267c     LIBCMTD:atof.obj
 0002:00001680       ??_C@_1BK@LAOAACLJ@?$AAn?$AAp?$AAt?$AAr?$AA?5?$AA?$CB?$AA?$DN?$AA?5?$AAN?$AAU?$AAL?$AAL?$AA?$AA@ 0000000180072680     LIBCMTD:atof.obj
 0002:000016a0       ??_C@_1GG@HIKOGGCI@?$AAf?$AA?3?$AA?2?$AAd?$AAd?$AA?2?$AAv?$AAc?$AAt?$AAo?$AAo?$AAl?$AAs?$AA?2?$AAc?$AAr?$AAt?$AA_?$AAb?$AAl?$AAd?$AA?2?$AAs?$AAe?$AAl?$AAf?$AA_?$AA6?$AA4?$AA_?$AAa?$AAm@ 00000001800726a0     LIBCMTD:atof.obj
 0002:00001708       ??_C@_1BA@NJCJMLHI@?$AA_?$AAa?$AAt?$AAo?$AAf?$AA_?$AAl?$AA?$AA@ 0000000180072708     LIBCMTD:atof.obj
 0002:00001718       _FPinit                    0000000180072718     LIBCMTD:fpinit.obj
 0002:00001728       ??_7bad_alloc@std@@6B@     0000000180072728     LIBCMTD:new.obj
 0002:00001738       ??_C@_0P@GHFPNOJB@bad?5allocation?$AA@ 0000000180072738     LIBCMTD:new.obj
 0002:00001750       ??_C@_1EO@LHDAJOCM@?$AA_?$AAB?$AAL?$AAO?$AAC?$AAK?$AA_?$AAT?$AAY?$AAP?$AAE?$AA_?$AAI?$AAS?$AA_?$AAV?$AAA?$AAL?$AAI?$AAD?$AA?$CI?$AAp?$AAH?$AAe?$AAa?$AAd?$AA?9?$AA?$DO?$AAn?$AAB?$AAl?$AAo@ 0000000180072750     LIBCMTD:dbgdel.obj
 0002:000017a0       ??_C@_1GO@IECEPLPI@?$AAf?$AA?3?$AA?2?$AAd?$AAd?$AA?2?$AAv?$AAc?$AAt?$AAo?$AAo?$AAl?$AAs?$AA?2?$AAc?$AAr?$AAt?$AA_?$AAb?$AAl?$AAd?$AA?2?$AAs?$AAe?$AAl?$AAf?$AA_?$AA6?$AA4?$AA_?$AAa?$AAm@ 00000001800727a0     LIBCMTD:dbgdel.obj
 0002:00001818       ??_7type_info@@6B@         0000000180072818     LIBCMTD:typinfo.obj
 0002:00001820       ??_C@_1FC@NCPEPIBI@?$AA?$CI?$AA?$CI?$AA_?$AAD?$AAs?$AAt?$AA?$CJ?$AA?$CJ?$AA?5?$AA?$CB?$AA?$DN?$AA?5?$AAN?$AAU?$AAL?$AAL?$AA?5?$AA?$CG?$AA?$CG?$AA?5?$AA?$CI?$AA?$CI?$AA_?$AAS?$AAi?$AAz?$AAe?$AAI?$AAn?$AAB?$AAy?$AAt@ 0000000180072820     LIBCMTD:strncat_s.obj
 0002:00001880       ??_C@_1HE@OENNAEEN@?$AAf?$AA?3?$AA?2?$AAd?$AAd?$AA?2?$AAv?$AAc?$AAt?$AAo?$AAo?$AAl?$AAs?$AA?2?$AAc?$AAr?$AAt?$AA_?$AAb?$AAl?$AAd?$AA?2?$AAs?$AAe?$AAl?$AAf?$AA_?$AA6?$AA4?$AA_?$AAa?$AAm@ 0000000180072880     LIBCMTD:strncat_s.obj
 0002:000018f8       ??_C@_1BE@IAKAIGJB@?$AAs?$AAt?$AAr?$AAn?$AAc?$AAa?$AAt?$AA_?$AAs?$AA?$AA@ 00000001800728f8     LIBCMTD:strncat_s.obj
 0002:00001910       ??_C@_1CG@OFBJMIGJ@?$AA?$CI?$AA?$CI?$AA?$CI?$AA_?$AAS?$AAr?$AAc?$AA?$CJ?$AA?$CJ?$AA?$CJ?$AA?5?$AA?$CB?$AA?$DN?$AA?5?$AAN?$AAU?$AAL?$AAL?$AA?$AA@ 0000000180072910     LIBCMTD:strncat_s.obj
 0002:00001938       ??_C@_1DM@FHLMIEG@?$AAS?$AAt?$AAr?$AAi?$AAn?$AAg?$AA?5?$AAi?$AAs?$AA?5?$AAn?$AAo?$AAt?$AA?5?$AAn?$AAu?$AAl?$AAl?$AA?5?$AAt?$AAe?$AAr?$AAm?$AAi?$AAn?$AAa?$AAt?$AAe?$AAd?$AA?$AA@ 0000000180072938     LIBCMTD:strncat_s.obj
 0002:00001980       ??_C@_1FA@MJKDNFFB@?$AA?$CI?$AAL?$AA?$CC?$AAS?$AAt?$AAr?$AAi?$AAn?$AAg?$AA?5?$AAi?$AAs?$AA?5?$AAn?$AAo?$AAt?$AA?5?$AAn?$AAu?$AAl?$AAl?$AA?5?$AAt?$AAe?$AAr?$AAm?$AAi?$AAn?$AAa?$AAt?$AAe?$AAd@ 0000000180072980     LIBCMTD:strncat_s.obj
 0002:000019d0       ??_C@_1CI@HCPHDDLE@?$AAB?$AAu?$AAf?$AAf?$AAe?$AAr?$AA?5?$AAi?$AAs?$AA?5?$AAt?$AAo?$AAo?$AA?5?$AAs?$AAm?$AAa?$AAl?$AAl?$AA?$AA@ 00000001800729d0     LIBCMTD:strncat_s.obj
 0002:000019f8       ??_C@_1DM@MADKGDLO@?$AA?$CI?$AAL?$AA?$CC?$AAB?$AAu?$AAf?$AAf?$AAe?$AAr?$AA?5?$AAi?$AAs?$AA?5?$AAt?$AAo?$AAo?$AA?5?$AAs?$AAm?$AAa?$AAl?$AAl?$AA?$CC?$AA?5?$AA?$CG?$AA?$CG?$AA?5?$AA0?$AA?$CJ?$AA?$AA@ 00000001800729f8     LIBCMTD:strncat_s.obj
 0002:00001a38       _pDefaultRawDllMain        0000000180072a38     LIBCMTD:dllcrt0.obj
 0002:00001a38       _pRawDllMain               0000000180072a38     LIBCMTD:dllcrt0.obj
 0002:00001a40       ??_C@_0DG@NKFPNEG@f?3?2dd?2vctools?2crt_bld?2self_64_am@ 0000000180072a40     LIBCMTD:dllcrt0.obj
 0002:00001a78       ??_C@_1BI@BGOHAHKC@?$AAm?$AAs?$AAc?$AAo?$AAr?$AAe?$AAe?$AA?4?$AAd?$AAl?$AAl?$AA?$AA@ 0000000180072a78     LIBCMTD:crt0dat.obj
 0002:00001a90       ??_C@_0P@MIGLKIOC@CorExitProcess?$AA@ 0000000180072a90     LIBCMTD:crt0dat.obj
 0002:00001aa0       ??_C@_1BO@LKEBEKJP@?$AAp?$AAV?$AAa?$AAl?$AAu?$AAe?$AA?5?$AA?$CB?$AA?$DN?$AA?5?$AAN?$AAU?$AAL?$AAL?$AA?$AA@ 0000000180072aa0     LIBCMTD:crt0dat.obj
 0002:00001ac0       ??_C@_1GM@EPNCCBAE@?$AAf?$AA?3?$AA?2?$AAd?$AAd?$AA?2?$AAv?$AAc?$AAt?$AAo?$AAo?$AAl?$AAs?$AA?2?$AAc?$AAr?$AAt?$AA_?$AAb?$AAl?$AAd?$AA?2?$AAs?$AAe?$AAl?$AAf?$AA_?$AA6?$AA4?$AA_?$AAa?$AAm@ 0000000180072ac0     LIBCMTD:crt0dat.obj
 0002:00001b30       ??_C@_1BK@PNLDCCDP@?$AA_?$AAg?$AAe?$AAt?$AA_?$AAw?$AAp?$AAg?$AAm?$AAp?$AAt?$AAr?$AA?$AA@ 0000000180072b30     LIBCMTD:crt0dat.obj
 0002:00001b50       ??_C@_1CC@CDIPMFPD@?$AA_?$AAw?$AAp?$AAg?$AAm?$AAp?$AAt?$AAr?$AA?5?$AA?$CB?$AA?$DN?$AA?5?$AAN?$AAU?$AAL?$AAL?$AA?$AA@ 0000000180072b50     LIBCMTD:crt0dat.obj
 0002:00001b78       ??_C@_1BI@COAAPHJK@?$AA_?$AAg?$AAe?$AAt?$AA_?$AAp?$AAg?$AAm?$AAp?$AAt?$AAr?$AA?$AA@ 0000000180072b78     LIBCMTD:crt0dat.obj
 0002:00001b90       ??_C@_1CA@BBNAFCKO@?$AA_?$AAp?$AAg?$AAm?$AAp?$AAt?$AAr?$AA?5?$AA?$CB?$AA?$DN?$AA?5?$AAN?$AAU?$AAL?$AAL?$AA?$AA@ 0000000180072b90     LIBCMTD:crt0dat.obj
 0002:00001bb0       ??_C@_1BK@DJNILIMN@?$AAp?$AAa?$AAt?$AAh?$AA?5?$AA?$CB?$AA?$DN?$AA?5?$AAN?$AAU?$AAL?$AAL?$AA?$AA@ 0000000180072bb0     LIBCMTD:crt0dat.obj
 0002:00001bd0       ??_C@_1DG@KANBJOCK@?$AA_?$AA_?$AAc?$AAo?$AAp?$AAy?$AA_?$AAp?$AAa?$AAt?$AAh?$AA_?$AAt?$AAo?$AA_?$AAw?$AAi?$AAd?$AAe?$AA_?$AAs?$AAt?$AAr?$AAi?$AAn?$AAg?$AA?$AA@ 0000000180072bd0     LIBCMTD:crt0dat.obj
 0002:00001c08       ??_C@_1CA@BGODLPHH@?$AAo?$AAu?$AAt?$AAP?$AAa?$AAt?$AAh?$AA?5?$AA?$CB?$AA?$DN?$AA?5?$AAN?$AAU?$AAL?$AAL?$AA?$AA@ 0000000180072c08     LIBCMTD:crt0dat.obj
 0002:00001c28       ??_C@_0DG@FPOBJAHG@f?3?2dd?2vctools?2crt_bld?2self_64_am@ 0000000180072c28     LIBCMTD:crt0dat.obj
 0002:00001c88       ??_C@_04HJMOFLDF@Free?$AA@ 0000000180072c88     LIBCMTD:dbgheap.obj
 0002:00001c90       ??_C@_06EFAGIKOH@Normal?$AA@ 0000000180072c90     LIBCMTD:dbgheap.obj
 0002:00001c98       ??_C@_03OGPFLFLO@CRT?$AA@  0000000180072c98     LIBCMTD:dbgheap.obj
 0002:00001c9c       ??_C@_06KMEJCCGM@Ignore?$AA@ 0000000180072c9c     LIBCMTD:dbgheap.obj
 0002:00001ca4       ??_C@_06PJIGMIJB@Client?$AA@ 0000000180072ca4     LIBCMTD:dbgheap.obj
 0002:00001cb0       ??_C@_1CE@LJFEPPMP@?$AA_?$AAC?$AAr?$AAt?$AAC?$AAh?$AAe?$AAc?$AAk?$AAM?$AAe?$AAm?$AAo?$AAr?$AAy?$AA?$CI?$AA?$CJ?$AA?$AA@ 0000000180072cb0     LIBCMTD:dbgheap.obj
 0002:00001ce0       ??_C@_1GM@EEGHMGNN@?$AAf?$AA?3?$AA?2?$AAd?$AAd?$AA?2?$AAv?$AAc?$AAt?$AAo?$AAo?$AAl?$AAs?$AA?2?$AAc?$AAr?$AAt?$AA_?$AAb?$AAl?$AAd?$AA?2?$AAs?$AAe?$AAl?$AAf?$AA_?$AA6?$AA4?$AA_?$AAa?$AAm@ 0000000180072ce0     LIBCMTD:dbgheap.obj
 0002:00001d50       ??_C@_0DF@BBEGIFEK@Client?5hook?5allocation?5failure?5a@ 0000000180072d50     LIBCMTD:dbgheap.obj
 0002:00001d88       ??_C@_0CB@CCLOLAHO@Client?5hook?5allocation?5failure?4?6@ 0000000180072d88     LIBCMTD:dbgheap.obj
 0002:00001dac       ??_C@_02DKCKIIND@?$CFs?$AA@ 0000000180072dac     LIBCMTD:dbgheap.obj
 0002:00001db0       ??_C@_0CF@BICKFLAF@Invalid?5allocation?5size?3?5?$CFIu?5byt@ 0000000180072db0     LIBCMTD:dbgheap.obj
 0002:00001dd8       ??_C@_0DC@JEMAGEKG@Error?3?5memory?5allocation?3?5bad?5me@ 0000000180072dd8     LIBCMTD:dbgheap.obj
 0002:00001e10       ??_C@_0DI@KKJPDPGM@Client?5hook?5re?9allocation?5failur@ 0000000180072e10     LIBCMTD:dbgheap.obj
 0002:00001e48       ??_C@_0CE@DOFMDOL@Client?5hook?5re?9allocation?5failur@ 0000000180072e48     LIBCMTD:dbgheap.obj
 0002:00001e70       ??_C@_0ED@GPCPBAGP@Invalid?5allocation?5size?3?5?$CFIu?5byt@ 0000000180072e70     LIBCMTD:dbgheap.obj
 0002:00001ec0       ??_C@_0FA@EFEIGJKG@Error?3?5memory?5allocation?3?5bad?5me@ 0000000180072ec0     LIBCMTD:dbgheap.obj
 0002:00001f10       ??_C@_0EM@LGFLMAGJ@The?5Block?5at?50x?$CFp?5was?5allocated?5@ 0000000180072f10     LIBCMTD:dbgheap.obj
 0002:00001f60       ??_C@_1EE@GFOPCECE@?$AA_?$AAC?$AAr?$AAt?$AAI?$AAs?$AAV?$AAa?$AAl?$AAi?$AAd?$AAH?$AAe?$AAa?$AAp?$AAP?$AAo?$AAi?$AAn?$AAt?$AAe?$AAr?$AA?$CI?$AAp?$AAU?$AAs?$AAe?$AAr?$AAD?$AAa?$AAt?$AAa@ 0000000180072f60     LIBCMTD:dbgheap.obj
 0002:00001fb0       ??_C@_1IK@DCPKDGNH@?$AAp?$AAO?$AAl?$AAd?$AAB?$AAl?$AAo?$AAc?$AAk?$AA?9?$AA?$DO?$AAn?$AAL?$AAi?$AAn?$AAe?$AA?5?$AA?$DN?$AA?$DN?$AA?5?$AAI?$AAG?$AAN?$AAO?$AAR?$AAE?$AA_?$AAL?$AAI?$AAN?$AAE?$AA?5@ 0000000180072fb0     LIBCMTD:dbgheap.obj
 0002:00002040       ??_C@_0DA@HFBKENN@Error?3?5possible?5heap?5corruption?5@ 0000000180073040     LIBCMTD:dbgheap.obj
 0002:00002070       ??_C@_1GE@PCKLOLAO@?$AAf?$AAR?$AAe?$AAa?$AAl?$AAl?$AAo?$AAc?$AA?5?$AA?$HM?$AA?$HM?$AA?5?$AA?$CI?$AA?$CB?$AAf?$AAR?$AAe?$AAa?$AAl?$AAl?$AAo?$AAc?$AA?5?$AA?$CG?$AA?$CG?$AA?5?$AAp?$AAN?$AAe?$AAw?$AAB?$AAl@ 0000000180073070     LIBCMTD:dbgheap.obj
 0002:000020d8       ??_C@_1DC@GEFKNOOL@?$AA_?$AAp?$AAL?$AAa?$AAs?$AAt?$AAB?$AAl?$AAo?$AAc?$AAk?$AA?5?$AA?$DN?$AA?$DN?$AA?5?$AAp?$AAO?$AAl?$AAd?$AAB?$AAl?$AAo?$AAc?$AAk?$AA?$AA@ 00000001800730d8     LIBCMTD:dbgheap.obj
 0002:00002110       ??_C@_1DE@KOOKLFBB@?$AA_?$AAp?$AAF?$AAi?$AAr?$AAs?$AAt?$AAB?$AAl?$AAo?$AAc?$AAk?$AA?5?$AA?$DN?$AA?$DN?$AA?5?$AAp?$AAO?$AAl?$AAd?$AAB?$AAl?$AAo?$AAc?$AAk?$AA?$AA@ 0000000180073110     LIBCMTD:dbgheap.obj
 0002:00002148       ??_C@_1CE@CJACEFBA@?$AAp?$AAU?$AAs?$AAe?$AAr?$AAD?$AAa?$AAt?$AAa?$AA?5?$AA?$CB?$AA?$DN?$AA?5?$AAN?$AAU?$AAL?$AAL?$AA?$AA@ 0000000180073148     LIBCMTD:dbgheap.obj
 0002:00002170       ??_C@_1BI@HAPNGHDP@?$AA_?$AAe?$AAx?$AAp?$AAa?$AAn?$AAd?$AA_?$AAd?$AAb?$AAg?$AA?$AA@ 0000000180073170     LIBCMTD:dbgheap.obj
 0002:00002190       ??_C@_0EJ@HEIBCIMJ@The?5Block?5at?50x?$CFp?5was?5allocated?5@ 0000000180073190     LIBCMTD:dbgheap.obj
 0002:000021e0       ??_C@_0BL@KEIPLFAC@Client?5hook?5free?5failure?4?6?$AA@ 00000001800731e0     LIBCMTD:dbgheap.obj
 0002:00002200       ??_C@_0KI@JGFOHMEB@HEAP?5CORRUPTION?5DETECTED?3?5before@ 0000000180073200     LIBCMTD:dbgheap.obj
 0002:000022b0       ??_C@_0IK@PJCGLBOB@HEAP?5CORRUPTION?5DETECTED?3?5before@ 00000001800732b0     LIBCMTD:dbgheap.obj
 0002:00002340       ??_C@_0KE@MBMNHHHN@HEAP?5CORRUPTION?5DETECTED?3?5after?5@ 0000000180073340     LIBCMTD:dbgheap.obj
 0002:000023f0       ??_C@_0IG@LEMBDCJK@HEAP?5CORRUPTION?5DETECTED?3?5after?5@ 00000001800733f0     LIBCMTD:dbgheap.obj
 0002:00002480       ??_C@_1HK@HPCBMDFG@?$AAp?$AAH?$AAe?$AAa?$AAd?$AA?9?$AA?$DO?$AAn?$AAL?$AAi?$AAn?$AAe?$AA?5?$AA?$DN?$AA?$DN?$AA?5?$AAI?$AAG?$AAN?$AAO?$AAR?$AAE?$AA_?$AAL?$AAI?$AAN?$AAE?$AA?5?$AA?$CG?$AA?$CG?$AA?5?$AAp@ 0000000180073480     LIBCMTD:dbgheap.obj
 0002:00002500       ??_C@_1DM@ODCJIDCP@?$AAp?$AAH?$AAe?$AAa?$AAd?$AA?9?$AA?$DO?$AAn?$AAB?$AAl?$AAo?$AAc?$AAk?$AAU?$AAs?$AAe?$AA?5?$AA?$DN?$AA?$DN?$AA?5?$AAn?$AAB?$AAl?$AAo?$AAc?$AAk?$AAU?$AAs?$AAe?$AA?$AA@ 0000000180073500     LIBCMTD:dbgheap.obj
 0002:00002540       ??_C@_1CK@DMAGEMBG@?$AA_?$AAp?$AAL?$AAa?$AAs?$AAt?$AAB?$AAl?$AAo?$AAc?$AAk?$AA?5?$AA?$DN?$AA?$DN?$AA?5?$AAp?$AAH?$AAe?$AAa?$AAd?$AA?$AA@ 0000000180073540     LIBCMTD:dbgheap.obj
 0002:00002570       ??_C@_1CM@MMAADDMD@?$AA_?$AAp?$AAF?$AAi?$AAr?$AAs?$AAt?$AAB?$AAl?$AAo?$AAc?$AAk?$AA?5?$AA?$DN?$AA?$DN?$AA?5?$AAp?$AAH?$AAe?$AAa?$AAd?$AA?$AA@ 0000000180073570     LIBCMTD:dbgheap.obj
 0002:000025a0       ??_C@_1BG@MBKOGDLD@?$AA_?$AAm?$AAs?$AAi?$AAz?$AAe?$AA_?$AAd?$AAb?$AAg?$AA?$AA@ 00000001800735a0     LIBCMTD:dbgheap.obj
 0002:000025b8       ??_C@_0CE@MKKHMBMK@_heapchk?5fails?5with?5_HEAPBADBEGI@ 00000001800735b8     LIBCMTD:dbgheap.obj
 0002:000025e0       ??_C@_0CD@CPKEAPBD@_heapchk?5fails?5with?5_HEAPBADNODE@ 00000001800735e0     LIBCMTD:dbgheap.obj
 0002:00002608       ??_C@_0CC@MJGLGBDG@_heapchk?5fails?5with?5_HEAPBADEND?4@ 0000000180073608     LIBCMTD:dbgheap.obj
 0002:00002630       ??_C@_0CC@MFFCHFHO@_heapchk?5fails?5with?5_HEAPBADPTR?4@ 0000000180073630     LIBCMTD:dbgheap.obj
 0002:00002658       ??_C@_0CL@HNNNMKMJ@_heapchk?5fails?5with?5unknown?5retu@ 0000000180073658     LIBCMTD:dbgheap.obj
 0002:00002688       ??_C@_07OHKEFPKJ@DAMAGED?$AA@ 0000000180073688     LIBCMTD:dbgheap.obj
 0002:00002690       ??_C@_0KA@IHNJJKPL@HEAP?5CORRUPTION?5DETECTED?3?5on?5top@ 0000000180073690     LIBCMTD:dbgheap.obj
 0002:00002730       ??_C@_0IC@BBJIOOJH@HEAP?5CORRUPTION?5DETECTED?3?5on?5top@ 0000000180073730     LIBCMTD:dbgheap.obj
 0002:000027c0       ??_C@_0EG@DGJMPDBH@?$CFhs?5located?5at?50x?$CFp?5is?5?$CFIu?5bytes@ 00000001800737c0     LIBCMTD:dbgheap.obj
 0002:00002808       ??_C@_0CI@JMLBEDHJ@?$CFhs?5located?5at?50x?$CFp?5is?5?$CFIu?5bytes@ 0000000180073808     LIBCMTD:dbgheap.obj
 0002:00002830       ??_C@_1BHO@NNANJNF@?$AA?$CI?$AAf?$AAN?$AAe?$AAw?$AAB?$AAi?$AAt?$AAs?$AA?$DN?$AA?$DN?$AA_?$AAC?$AAR?$AAT?$AAD?$AAB?$AAG?$AA_?$AAR?$AAE?$AAP?$AAO?$AAR?$AAT?$AA_?$AAF?$AAL?$AAA?$AAG?$AA?$CJ?$AA?5@ 0000000180073830     LIBCMTD:dbgheap.obj
 0002:000029b0       ??_C@_1BO@GJFDNMNF@?$AA_?$AAC?$AAr?$AAt?$AAS?$AAe?$AAt?$AAD?$AAb?$AAg?$AAF?$AAl?$AAa?$AAg?$AA?$AA@ 00000001800739b0     LIBCMTD:dbgheap.obj
 0002:000029d0       ??_C@_1BI@CJGCEEDL@?$AAp?$AAf?$AAn?$AA?5?$AA?$CB?$AA?$DN?$AA?5?$AAN?$AAU?$AAL?$AAL?$AA?$AA@ 00000001800739d0     LIBCMTD:dbgheap.obj
 0002:000029e8       ??_C@_1DE@GJCKCKEC@?$AA_?$AAC?$AAr?$AAt?$AAD?$AAo?$AAF?$AAo?$AAr?$AAA?$AAl?$AAl?$AAC?$AAl?$AAi?$AAe?$AAn?$AAt?$AAO?$AAb?$AAj?$AAe?$AAc?$AAt?$AAs?$AA?$AA@ 00000001800739e8     LIBCMTD:dbgheap.obj
 0002:00002a20       ??_C@_1BM@MIMANDHC@?$AAs?$AAt?$AAa?$AAt?$AAe?$AA?5?$AA?$CB?$AA?$DN?$AA?5?$AAN?$AAU?$AAL?$AAL?$AA?$AA@ 0000000180073a20     LIBCMTD:dbgheap.obj
 0002:00002a40       ??_C@_1CE@NJJKELF@?$AA_?$AAC?$AAr?$AAt?$AAM?$AAe?$AAm?$AAC?$AAh?$AAe?$AAc?$AAk?$AAp?$AAo?$AAi?$AAn?$AAt?$AA?$AA@ 0000000180073a40     LIBCMTD:dbgheap.obj
 0002:00002a68       ??_C@_0DP@LEFMFBOD@Bad?5memory?5block?5found?5at?50x?$CFp?4?6@ 0000000180073a68     LIBCMTD:dbgheap.obj
 0002:00002aa8       ??_C@_0CB@EAAIGELO@Bad?5memory?5block?5found?5at?50x?$CFp?4?6@ 0000000180073aa8     LIBCMTD:dbgheap.obj
 0002:00002ad0       ??_C@_1CE@PDIENACM@?$AA_?$AAC?$AAr?$AAt?$AAM?$AAe?$AAm?$AAD?$AAi?$AAf?$AAf?$AAe?$AAr?$AAe?$AAn?$AAc?$AAe?$AA?$AA@ 0000000180073ad0     LIBCMTD:dbgheap.obj
 0002:00002af8       ??_C@_1CC@DHPFEMMN@?$AAo?$AAl?$AAd?$AAS?$AAt?$AAa?$AAt?$AAe?$AA?5?$AA?$CB?$AA?$DN?$AA?5?$AAN?$AAU?$AAL?$AAL?$AA?$AA@ 0000000180073af8     LIBCMTD:dbgheap.obj
 0002:00002b20       ??_C@_1CC@DFPEDFBP@?$AAn?$AAe?$AAw?$AAS?$AAt?$AAa?$AAt?$AAe?$AA?5?$AA?$CB?$AA?$DN?$AA?5?$AAN?$AAU?$AAL?$AAL?$AA?$AA@ 0000000180073b20     LIBCMTD:dbgheap.obj
 0002:00002b44       ??_C@_05MKKEDADM@?$CF?42X?5?$AA@ 0000000180073b44     LIBCMTD:dbgheap.obj
 0002:00002b50       ??_C@_1CG@LPFIACGM@?$AA_?$AAp?$AAr?$AAi?$AAn?$AAt?$AAM?$AAe?$AAm?$AAB?$AAl?$AAo?$AAc?$AAk?$AAD?$AAa?$AAt?$AAa?$AA?$AA@ 0000000180073b50     LIBCMTD:dbgheap.obj
 0002:00002b78       ??_C@_1BI@KALLJECN@?$AA?$CI?$AA?$CK?$AA_?$AAe?$AAr?$AAr?$AAn?$AAo?$AA?$CI?$AA?$CJ?$AA?$CJ?$AA?$AA@ 0000000180073b78     LIBCMTD:dbgheap.obj
 0002:00002b90       ??_C@_0BA@HJBKCELP@?5Data?3?5?$DM?$CFs?$DO?5?$CFs?6?$AA@ 0000000180073b90     LIBCMTD:dbgheap.obj
 0002:00002ba0       ??_C@_0BE@KCIPKCIA@Dumping?5objects?5?9?$DO?6?$AA@ 0000000180073ba0     LIBCMTD:dbgheap.obj
 0002:00002bb8       ??_C@_0BE@OIEFNFL@?$CDFile?5Error?$CD?$CI?$CFd?$CJ?5?3?5?$AA@ 0000000180073bb8     LIBCMTD:dbgheap.obj
 0002:00002bd0       ??_C@_0L@JMEFFCCJ@?$CFhs?$CI?$CFd?$CJ?5?3?5?$AA@ 0000000180073bd0     LIBCMTD:dbgheap.obj
 0002:00002bdc       ??_C@_06PKLGBFGM@?$HL?$CFld?$HN?5?$AA@ 0000000180073bdc     LIBCMTD:dbgheap.obj
 0002:00002be8       ??_C@_0DD@GHNAAKBB@client?5block?5at?50x?$CFp?0?5subtype?5?$CFx@ 0000000180073be8     LIBCMTD:dbgheap.obj
 0002:00002c20       ??_C@_0CH@FAGDDGPN@normal?5block?5at?50x?$CFp?0?5?$CFIu?5bytes?5@ 0000000180073c20     LIBCMTD:dbgheap.obj
 0002:00002c48       ??_C@_0DA@MDLBNIBM@crt?5block?5at?50x?$CFp?0?5subtype?5?$CFx?0?5?$CF@ 0000000180073c48     LIBCMTD:dbgheap.obj
 0002:00002c78       ??_C@_0BH@GFGKJDCO@Object?5dump?5complete?4?6?$AA@ 0000000180073c78     LIBCMTD:dbgheap.obj
 0002:00002c90       ??_C@_0BI@JBFPOEJA@Detected?5memory?5leaks?$CB?6?$AA@ 0000000180073c90     LIBCMTD:dbgheap.obj
 0002:00002ca8       ??_C@_1CM@MPNIBKGK@?$AA_?$AAC?$AAr?$AAt?$AAM?$AAe?$AAm?$AAD?$AAu?$AAm?$AAp?$AAS?$AAt?$AAa?$AAt?$AAi?$AAs?$AAt?$AAi?$AAc?$AAs?$AA?$AA@ 0000000180073ca8     LIBCMTD:dbgheap.obj
 0002:00002cd8       ??_C@_0BO@DACNIABB@?$CFId?5bytes?5in?5?$CFId?5?$CFhs?5Blocks?4?6?$AA@ 0000000180073cd8     LIBCMTD:dbgheap.obj
 0002:00002cf8       ??_C@_0CB@BLHDAFNE@Largest?5number?5used?3?5?$CFId?5bytes?4?6@ 0000000180073cf8     LIBCMTD:dbgheap.obj
 0002:00002d20       ??_C@_0BP@DEDHGGGI@Total?5allocations?3?5?$CFId?5bytes?4?6?$AA@ 0000000180073d20     LIBCMTD:dbgheap.obj
 0002:00002d40       ??_C@_1CE@NPMGPNNP@?$AAI?$AAS?$AA_?$AA2?$AA_?$AAP?$AAO?$AAW?$AA_?$AAN?$AA?$CI?$AAa?$AAl?$AAi?$AAg?$AAn?$AA?$CJ?$AA?$AA@ 0000000180073d40     LIBCMTD:dbgheap.obj
 0002:00002d68       ??_C@_1DG@DONCJBBJ@?$AA_?$AAa?$AAl?$AAi?$AAg?$AAn?$AAe?$AAd?$AA_?$AAo?$AAf?$AAf?$AAs?$AAe?$AAt?$AA_?$AAm?$AAa?$AAl?$AAl?$AAo?$AAc?$AA_?$AAd?$AAb?$AAg?$AA?$AA@ 0000000180073d68     LIBCMTD:dbgheap.obj
 0002:00002da0       ??_C@_1DK@LFLKFPDA@?$AAo?$AAf?$AAf?$AAs?$AAe?$AAt?$AA?5?$AA?$DN?$AA?$DN?$AA?5?$AA0?$AA?5?$AA?$HM?$AA?$HM?$AA?5?$AAo?$AAf?$AAf?$AAs?$AAe?$AAt?$AA?5?$AA?$DM?$AA?5?$AAs?$AAi?$AAz?$AAe?$AA?$AA@ 0000000180073da0     LIBCMTD:dbgheap.obj
 0002:00002de0       ??_C@_0EI@NDNJMAJK@The?5block?5at?50x?$CFp?5was?5not?5alloca@ 0000000180073de0     LIBCMTD:dbgheap.obj
 0002:00002e28       ??_C@_0DL@PGHMMKNE@Damage?5before?50x?$CFp?5which?5was?5all@ 0000000180073e28     LIBCMTD:dbgheap.obj
 0002:00002e68       ??_C@_1DI@NINIKFFK@?$AA_?$AAa?$AAl?$AAi?$AAg?$AAn?$AAe?$AAd?$AA_?$AAo?$AAf?$AAf?$AAs?$AAe?$AAt?$AA_?$AAr?$AAe?$AAa?$AAl?$AAl?$AAo?$AAc?$AA_?$AAd?$AAb?$AAg?$AA?$AA@ 0000000180073e68     LIBCMTD:dbgheap.obj
 0002:00002ea0       ??_C@_0EF@PGELACII@The?5block?5at?50x?$CFp?5was?5not?5alloca@ 0000000180073ea0     LIBCMTD:dbgheap.obj
 0002:00002ee8       ??_C@_1CC@MOBIKHH@?$AAm?$AAe?$AAm?$AAb?$AAl?$AAo?$AAc?$AAk?$AA?5?$AA?$CB?$AA?$DN?$AA?5?$AAN?$AAU?$AAL?$AAL?$AA?$AA@ 0000000180073ee8     LIBCMTD:dbgheap.obj
 0002:00002f10       ??_C@_1CG@CEGMHIMN@?$AA_?$AAa?$AAl?$AAi?$AAg?$AAn?$AAe?$AAd?$AA_?$AAm?$AAs?$AAi?$AAz?$AAe?$AA_?$AAd?$AAb?$AAg?$AA?$AA@ 0000000180073f10     LIBCMTD:dbgheap.obj
 0002:00002f38       ??_C@_1BI@MFCLPIBM@?$AAs?$AAt?$AAr?$AA?5?$AA?$CB?$AA?$DN?$AA?5?$AAN?$AAU?$AAL?$AAL?$AA?$AA@ 0000000180073f38     LIBCMTD:_flsbuf.obj
 0002:00002f50       ??_C@_1GM@BENPKNAA@?$AAf?$AA?3?$AA?2?$AAd?$AAd?$AA?2?$AAv?$AAc?$AAt?$AAo?$AAo?$AAl?$AAs?$AA?2?$AAc?$AAr?$AAt?$AA_?$AAb?$AAl?$AAd?$AA?2?$AAs?$AAe?$AAl?$AAf?$AA_?$AA6?$AA4?$AA_?$AAa?$AAm@ 0000000180073f50     LIBCMTD:_flsbuf.obj
 0002:00002fc0       ??_C@_1HO@MLMGPAFH@?$AA?$CI?$AA?$CC?$AAi?$AAn?$AAc?$AAo?$AAn?$AAs?$AAi?$AAs?$AAt?$AAe?$AAn?$AAt?$AA?5?$AAI?$AAO?$AAB?$AA?5?$AAf?$AAi?$AAe?$AAl?$AAd?$AAs?$AA?$CC?$AA?0?$AA?5?$AAs?$AAt?$AAr?$AAe@ 0000000180073fc0     LIBCMTD:_flsbuf.obj
 0002:00003058       ??_C@_1BA@GLMCNLEM@?$AAW?$AAa?$AAr?$AAn?$AAi?$AAn?$AAg?$AA?$AA@ 0000000180074058     LIBCMTD:dbgrptw.obj
 0002:00003068       ??_C@_1M@ILHOPKA@?$AAE?$AAr?$AAr?$AAo?$AAr?$AA?$AA@ 0000000180074068     LIBCMTD:dbgrptw.obj
 0002:00003078       ??_C@_1CC@CGHMNGDG@?$AAA?$AAs?$AAs?$AAe?$AAr?$AAt?$AAi?$AAo?$AAn?$AA?5?$AAF?$AAa?$AAi?$AAl?$AAe?$AAd?$AA?$AA@ 0000000180074078     LIBCMTD:dbgrptw.obj
 0002:000030a0       ??_C@_17LGKOMLJ@?$AA?4?$AA?4?$AA?4?$AA?$AA@ 00000001800740a0     LIBCMTD:dbgrptw.obj
 0002:000030b0       ??_C@_1HI@OFEHGPPC@?$AAm?$AAo?$AAd?$AAe?$AA?5?$AA?$DN?$AA?$DN?$AA?5?$AA_?$AAC?$AAR?$AAT?$AA_?$AAR?$AAP?$AAT?$AAH?$AAO?$AAO?$AAK?$AA_?$AAI?$AAN?$AAS?$AAT?$AAA?$AAL?$AAL?$AA?5?$AA?$HM?$AA?$HM?$AA?5@ 00000001800740b0     LIBCMTD:dbgrptw.obj
 0002:00003130       ??_C@_1GK@OPBLBEGA@?$AAf?$AA?3?$AA?2?$AAd?$AAd?$AA?2?$AAv?$AAc?$AAt?$AAo?$AAo?$AAl?$AAs?$AA?2?$AAc?$AAr?$AAt?$AA_?$AAb?$AAl?$AAd?$AA?2?$AAs?$AAe?$AAl?$AAf?$AA_?$AA6?$AA4?$AA_?$AAa?$AAm@ 0000000180074130     LIBCMTD:dbgrptw.obj
 0002:000031a0       ??_C@_1CI@IIHEAKEI@?$AA_?$AAC?$AAr?$AAt?$AAS?$AAe?$AAt?$AAR?$AAe?$AAp?$AAo?$AAr?$AAt?$AAH?$AAo?$AAo?$AAk?$AAW?$AA2?$AA?$AA@ 00000001800741a0     LIBCMTD:dbgrptw.obj
 0002:000031c8       ??_C@_1CG@JBJEFOCM@?$AAp?$AAf?$AAn?$AAN?$AAe?$AAw?$AAH?$AAo?$AAo?$AAk?$AA?5?$AA?$CB?$AA?$DN?$AA?5?$AAN?$AAU?$AAL?$AAL?$AA?$AA@ 00000001800741c8     LIBCMTD:dbgrptw.obj
 0002:000031f0       ??_C@_1FI@PHIAFFHM@?$AA?$CI?$AA?$CC?$AAT?$AAh?$AAe?$AA?5?$AAh?$AAo?$AAo?$AAk?$AA?5?$AAf?$AAu?$AAn?$AAc?$AAt?$AAi?$AAo?$AAn?$AA?5?$AAi?$AAs?$AA?5?$AAn?$AAo?$AAt?$AA?5?$AAi?$AAn?$AA?5?$AAt?$AAh@ 00000001800741f0     LIBCMTD:dbgrptw.obj
 0002:00003248       ??_C@_0DF@OKIEDDMM@f?3?2dd?2vctools?2crt_bld?2self_64_am@ 0000000180074248     LIBCMTD:dbgrptw.obj
 0002:00003280       ??_C@_1CI@PGJIFDEK@?$AA_?$AA_?$AAc?$AAr?$AAt?$AAM?$AAe?$AAs?$AAs?$AAa?$AAg?$AAe?$AAW?$AAi?$AAn?$AAd?$AAo?$AAw?$AAW?$AA?$AA@ 0000000180074280     LIBCMTD:dbgrptw.obj
 0002:000032b0       ??_C@_1GI@DEDNNLCI@?$AAw?$AAc?$AAs?$AAc?$AAp?$AAy?$AA_?$AAs?$AA?$CI?$AAs?$AAz?$AAE?$AAx?$AAe?$AAN?$AAa?$AAm?$AAe?$AA?0?$AA?5?$AA2?$AA6?$AA0?$AA?0?$AA?5?$AAL?$AA?$CC?$AA?$DM?$AAp?$AAr?$AAo?$AAg@ 00000001800742b0     LIBCMTD:dbgrptw.obj
 0002:00003318       ??_C@_1CO@EAEJAADC@?$AA?$DM?$AAp?$AAr?$AAo?$AAg?$AAr?$AAa?$AAm?$AA?5?$AAn?$AAa?$AAm?$AAe?$AA?5?$AAu?$AAn?$AAk?$AAn?$AAo?$AAw?$AAn?$AA?$DO?$AA?$AA@ 0000000180074318     LIBCMTD:dbgrptw.obj
 0002:00003350       ??_C@_1NO@LECLLHOL@?$AAm?$AAe?$AAm?$AAc?$AAp?$AAy?$AA_?$AAs?$AA?$CI?$AAs?$AAz?$AAS?$AAh?$AAo?$AAr?$AAt?$AAP?$AAr?$AAo?$AAg?$AAN?$AAa?$AAm?$AAe?$AA?0?$AA?5?$AAs?$AAi?$AAz?$AAe?$AAo?$AAf@ 0000000180074350     LIBCMTD:dbgrptw.obj
 0002:00003430       ??_C@_1OG@PMPPFHAF@?$AA?6?$AA?6?$AAF?$AAo?$AAr?$AA?5?$AAi?$AAn?$AAf?$AAo?$AAr?$AAm?$AAa?$AAt?$AAi?$AAo?$AAn?$AA?5?$AAo?$AAn?$AA?5?$AAh?$AAo?$AAw?$AA?5?$AAy?$AAo?$AAu?$AAr?$AA?5?$AAp?$AAr@ 0000000180074430     LIBCMTD:dbgrptw.obj
 0002:00003518       ??_C@_11LOCGONAA@?$AA?$AA@ 0000000180074518     LIBCMTD:dbgrptw.obj
 0002:00003520       ??_C@_1BK@PEDCIPMA@?$AAE?$AAx?$AAp?$AAr?$AAe?$AAs?$AAs?$AAi?$AAo?$AAn?$AA?3?$AA?5?$AA?$AA@ 0000000180074520     LIBCMTD:dbgrptw.obj
 0002:0000353c       ??_C@_15IABLJNFO@?$AA?6?$AA?6?$AA?$AA@ 000000018007453c     LIBCMTD:dbgrptw.obj
 0002:00003548       ??_C@_1BA@GLLGCPCK@?$AA?6?$AAL?$AAi?$AAn?$AAe?$AA?3?$AA?5?$AA?$AA@ 0000000180074548     LIBCMTD:dbgrptw.obj
 0002:00003558       ??_C@_1BA@LNHECFIM@?$AA?6?$AAF?$AAi?$AAl?$AAe?$AA?3?$AA?5?$AA?$AA@ 0000000180074558     LIBCMTD:dbgrptw.obj
 0002:00003568       ??_C@_1BE@CGCJKGHI@?$AA?6?$AAM?$AAo?$AAd?$AAu?$AAl?$AAe?$AA?3?$AA?5?$AA?$AA@ 0000000180074568     LIBCMTD:dbgrptw.obj
 0002:00003580       ??_C@_1KM@HNMIBKJH@?$AAD?$AAe?$AAb?$AAu?$AAg?$AA?5?$AA?$CF?$AAs?$AA?$CB?$AA?6?$AA?6?$AAP?$AAr?$AAo?$AAg?$AAr?$AAa?$AAm?$AA?3?$AA?5?$AA?$CF?$AAs?$AA?$CF?$AAs?$AA?$CF?$AAs?$AA?$CF?$AAs?$AA?$CF?$AAs?$AA?$CF?$AAs@ 0000000180074580     LIBCMTD:dbgrptw.obj
 0002:00003630       ??_C@_1JI@EACPGHID@?$AAw?$AAc?$AAs?$AAc?$AAp?$AAy?$AA_?$AAs?$AA?$CI?$AAs?$AAz?$AAO?$AAu?$AAt?$AAM?$AAe?$AAs?$AAs?$AAa?$AAg?$AAe?$AA?0?$AA?5?$AA4?$AA0?$AA9?$AA6?$AA?0?$AA?5?$AAL?$AA?$CC?$AA_@ 0000000180074630     LIBCMTD:dbgrptw.obj
 0002:000036d0       ??_C@_1FG@BBOLDHGF@?$AA_?$AAC?$AAr?$AAt?$AAD?$AAb?$AAg?$AAR?$AAe?$AAp?$AAo?$AAr?$AAt?$AA?3?$AA?5?$AAS?$AAt?$AAr?$AAi?$AAn?$AAg?$AA?5?$AAt?$AAo?$AAo?$AA?5?$AAl?$AAo?$AAn?$AAg?$AA?5?$AAo@ 00000001800746d0     LIBCMTD:dbgrptw.obj
 0002:00003730       ??_C@_1EK@MBDPDCGA@?$AAM?$AAi?$AAc?$AAr?$AAo?$AAs?$AAo?$AAf?$AAt?$AA?5?$AAV?$AAi?$AAs?$AAu?$AAa?$AAl?$AA?5?$AAC?$AA?$CL?$AA?$CL?$AA?5?$AAR?$AAu?$AAn?$AAt?$AAi?$AAm?$AAe?$AA?5?$AAL?$AAi?$AAb@ 0000000180074730     LIBCMTD:dbgrptw.obj
 0002:0000377c       ??_C@_06OJHGLDPL@?$CInull?$CJ?$AA@ 000000018007477c     LIBCMTD:output.obj
 0002:00003788       ??_C@_1O@CEDCILHN@?$AA?$CI?$AAn?$AAu?$AAl?$AAl?$AA?$CJ?$AA?$AA@ 0000000180074788     LIBCMTD:output.obj
 0002:000037a0       __lookuptable              00000001800747a0     LIBCMTD:output.obj
 0002:00003800       ??_C@_1CC@FADMNIL@?$AA?$CI?$AAs?$AAt?$AAr?$AAe?$AAa?$AAm?$AA?5?$AA?$CB?$AA?$DN?$AA?5?$AAN?$AAU?$AAL?$AAL?$AA?$CJ?$AA?$AA@ 0000000180074800     LIBCMTD:output.obj
 0002:00003830       ??_C@_1GK@BJNDONIJ@?$AAf?$AA?3?$AA?2?$AAd?$AAd?$AA?2?$AAv?$AAc?$AAt?$AAo?$AAo?$AAl?$AAs?$AA?2?$AAc?$AAr?$AAt?$AA_?$AAb?$AAl?$AAd?$AA?2?$AAs?$AAe?$AAl?$AAf?$AA_?$AA6?$AA4?$AA_?$AAa?$AAm@ 0000000180074830     LIBCMTD:output.obj
 0002:000038a0       ??_C@_1BE@IONLIDNC@?$AA_?$AAo?$AAu?$AAt?$AAp?$AAu?$AAt?$AA_?$AAl?$AA?$AA@ 00000001800748a0     LIBCMTD:output.obj
 0002:000038c0       ??_C@_1BAA@ODEGEDCK@?$AA?$CI?$AA?5?$AA?$CI?$AA_?$AAS?$AAt?$AAr?$AAe?$AAa?$AAm?$AA?9?$AA?$DO?$AA_?$AAf?$AAl?$AAa?$AAg?$AA?5?$AA?$CG?$AA?5?$AA_?$AAI?$AAO?$AAS?$AAT?$AAR?$AAG?$AA?$CJ?$AA?5?$AA?$HM?$AA?$HM?$AA?5@ 00000001800748c0     LIBCMTD:output.obj
 0002:000039c0       ??_C@_1CC@IFFHEMNF@?$AA?$CI?$AAc?$AAh?$AA?5?$AA?$CB?$AA?$DN?$AA?5?$AA_?$AAT?$AA?$CI?$AA?8?$AA?2?$AA0?$AA?8?$AA?$CJ?$AA?$CJ?$AA?$AA@ 00000001800749c0     LIBCMTD:output.obj
 0002:000039f0       ??_C@_1EK@PNGFDECN@?$AA?$CI?$AA?$CC?$AA?8?$AAn?$AA?8?$AA?5?$AAf?$AAo?$AAr?$AAm?$AAa?$AAt?$AA?5?$AAs?$AAp?$AAe?$AAc?$AAi?$AAf?$AAi?$AAe?$AAr?$AA?5?$AAd?$AAi?$AAs?$AAa?$AAb?$AAl?$AAe?$AAd?$AA?$CC@ 00000001800749f0     LIBCMTD:output.obj
 0002:00003a40       ??_C@_0DF@MNLBDNAL@f?3?2dd?2vctools?2crt_bld?2self_64_am@ 0000000180074a40     LIBCMTD:output.obj
 0002:00003a80       __lookuptable_s            0000000180074a80     LIBCMTD:outputs.obj
 0002:00003ae0       ??_C@_1BI@COFBLHCG@?$AA_?$AAo?$AAu?$AAt?$AAp?$AAu?$AAt?$AA_?$AAs?$AA_?$AAl?$AA?$AA@ 0000000180074ae0     LIBCMTD:outputs.obj
 0002:00003b00       ??_C@_1EE@DMAIGNBG@?$AA?$CI?$AA?$CC?$AAI?$AAn?$AAc?$AAo?$AAr?$AAr?$AAe?$AAc?$AAt?$AA?5?$AAf?$AAo?$AAr?$AAm?$AAa?$AAt?$AA?5?$AAs?$AAp?$AAe?$AAc?$AAi?$AAf?$AAi?$AAe?$AAr?$AA?$CC?$AA?0?$AA?5?$AA0@ 0000000180074b00     LIBCMTD:outputs.obj
 0002:00003b50       ??_C@_1FK@LNCFKALM@?$AA?$CI?$AA?$CI?$AAs?$AAt?$AAa?$AAt?$AAe?$AA?5?$AA?$DN?$AA?$DN?$AA?5?$AAS?$AAT?$AA_?$AAN?$AAO?$AAR?$AAM?$AAA?$AAL?$AA?$CJ?$AA?5?$AA?$HM?$AA?$HM?$AA?5?$AA?$CI?$AAs?$AAt?$AAa?$AAt?$AAe?$AA?5@ 0000000180074b50     LIBCMTD:outputs.obj
 0002:00003bb0       ??_C@_1BI@KANOLAMF@?$AA_?$AAo?$AAu?$AAt?$AAp?$AAu?$AAt?$AA_?$AAp?$AA_?$AAl?$AA?$AA@ 0000000180074bb0     LIBCMTD:outputp.obj
 0002:00003bd0       ??_C@_1JC@PFJNKEIO@?$AA?$CI?$AA?$CI?$AAt?$AAy?$AAp?$AAe?$AA_?$AAp?$AAo?$AAs?$AA?5?$AA?$DO?$AA?$DN?$AA?5?$AA0?$AA?$CJ?$AA?5?$AA?$CG?$AA?$CG?$AA?5?$AA?$CI?$AA?$CK?$AAe?$AAn?$AAd?$AA_?$AAp?$AAo?$AAs?$AA?5?$AA?$DN?$AA?$DN@ 0000000180074bd0     LIBCMTD:outputp.obj
 0002:00003c70       ??_C@_1JE@NMBHOLFI@?$AA?$CI?$AA?$CI?$AAw?$AAi?$AAd?$AAt?$AAh?$AA_?$AAp?$AAo?$AAs?$AA?5?$AA?$DO?$AA?$DN?$AA?5?$AA0?$AA?$CJ?$AA?5?$AA?$CG?$AA?$CG?$AA?5?$AA?$CI?$AA?$CK?$AAe?$AAn?$AAd?$AA_?$AAp?$AAo?$AAs?$AA?5?$AA?$DN@ 0000000180074c70     LIBCMTD:outputp.obj
 0002:00003d10       ??_C@_1II@PIPIMLPF@?$AA_?$AAt?$AAv?$AAa?$AAl?$AAi?$AAd?$AAa?$AAt?$AAe?$AA_?$AAp?$AAa?$AAr?$AAa?$AAm?$AA_?$AAr?$AAe?$AAu?$AAs?$AAe?$AA?$CI?$AA?$CG?$AAp?$AAo?$AAs?$AA_?$AAv?$AAa?$AAl?$AAu@ 0000000180074d10     LIBCMTD:outputp.obj
 0002:00003da0       ??_C@_1JG@JBJBOCFB@?$AA?$CI?$AA?$CI?$AAp?$AAr?$AAe?$AAc?$AAi?$AAs?$AA_?$AAp?$AAo?$AAs?$AA?5?$AA?$DO?$AA?$DN?$AA?5?$AA0?$AA?$CJ?$AA?5?$AA?$CG?$AA?$CG?$AA?5?$AA?$CI?$AA?$CK?$AAe?$AAn?$AAd?$AA_?$AAp?$AAo?$AAs?$AA?5@ 0000000180074da0     LIBCMTD:outputp.obj
 0002:00003e40       ??_C@_1IK@EIEPDKHJ@?$AA_?$AAt?$AAv?$AAa?$AAl?$AAi?$AAd?$AAa?$AAt?$AAe?$AA_?$AAp?$AAa?$AAr?$AAa?$AAm?$AA_?$AAr?$AAe?$AAu?$AAs?$AAe?$AA?$CI?$AA?$CG?$AAp?$AAo?$AAs?$AA_?$AAv?$AAa?$AAl?$AAu@ 0000000180074e40     LIBCMTD:outputp.obj
 0002:00003ed0       ??_C@_1EM@BNPHBBIA@?$AA?$CI?$AA?$CI?$AAt?$AAy?$AAp?$AAe?$AA_?$AAp?$AAo?$AAs?$AA?$DO?$AA?$DN?$AA0?$AA?$CJ?$AA?5?$AA?$CG?$AA?$CG?$AA?5?$AA?$CI?$AAt?$AAy?$AAp?$AAe?$AA_?$AAp?$AAo?$AAs?$AA?$DM?$AA_?$AAA?$AAR?$AAG@ 0000000180074ed0     LIBCMTD:outputp.obj
 0002:00003f20       ??_C@_1IK@MHEDJAMK@?$AA_?$AAt?$AAv?$AAa?$AAl?$AAi?$AAd?$AAa?$AAt?$AAe?$AA_?$AAp?$AAa?$AAr?$AAa?$AAm?$AA_?$AAr?$AAe?$AAu?$AAs?$AAe?$AA?$CI?$AA?$CG?$AAp?$AAo?$AAs?$AA_?$AAv?$AAa?$AAl?$AAu@ 0000000180074f20     LIBCMTD:outputp.obj
 0002:00003fb0       ??_C@_1IG@FDCPLALG@?$AA_?$AAt?$AAv?$AAa?$AAl?$AAi?$AAd?$AAa?$AAt?$AAe?$AA_?$AAp?$AAa?$AAr?$AAa?$AAm?$AA_?$AAr?$AAe?$AAu?$AAs?$AAe?$AA?$CI?$AA?$CG?$AAp?$AAo?$AAs?$AA_?$AAv?$AAa?$AAl?$AAu@ 0000000180074fb0     LIBCMTD:outputp.obj
 0002:00004040       ??_C@_1IG@HJIMKDHC@?$AA_?$AAt?$AAv?$AAa?$AAl?$AAi?$AAd?$AAa?$AAt?$AAe?$AA_?$AAp?$AAa?$AAr?$AAa?$AAm?$AA_?$AAr?$AAe?$AAu?$AAs?$AAe?$AA?$CI?$AA?$CG?$AAp?$AAo?$AAs?$AA_?$AAv?$AAa?$AAl?$AAu@ 0000000180075040     LIBCMTD:outputp.obj
 0002:000040d0       ??_C@_1IM@DNGHAPLB@?$AA_?$AAt?$AAv?$AAa?$AAl?$AAi?$AAd?$AAa?$AAt?$AAe?$AA_?$AAp?$AAa?$AAr?$AAa?$AAm?$AA_?$AAr?$AAe?$AAu?$AAs?$AAe?$AA?$CI?$AA?$CG?$AAp?$AAo?$AAs?$AA_?$AAv?$AAa?$AAl?$AAu@ 00000001800750d0     LIBCMTD:outputp.obj
 0002:00004160       ??_C@_1DG@GOHGNKHE@?$AAp?$AAa?$AAs?$AAs?$AA?5?$AA?$DN?$AA?$DN?$AA?5?$AAF?$AAO?$AAR?$AAM?$AAA?$AAT?$AA_?$AAO?$AAU?$AAT?$AAP?$AAU?$AAT?$AA_?$AAP?$AAA?$AAS?$AAS?$AA?$AA@ 0000000180075160     LIBCMTD:outputp.obj
 0002:000041a0       ??_C@_1IK@NBGDDCBN@?$AA_?$AAt?$AAv?$AAa?$AAl?$AAi?$AAd?$AAa?$AAt?$AAe?$AA_?$AAp?$AAa?$AAr?$AAa?$AAm?$AA_?$AAr?$AAe?$AAu?$AAs?$AAe?$AA?$CI?$AA?$CG?$AAp?$AAo?$AAs?$AA_?$AAv?$AAa?$AAl?$AAu@ 00000001800751a0     LIBCMTD:outputp.obj
 0002:00004230       ??_C@_1JC@OACKELNN@?$AA_?$AAt?$AAv?$AAa?$AAl?$AAi?$AAd?$AAa?$AAt?$AAe?$AA_?$AAp?$AAa?$AAr?$AAa?$AAm?$AA_?$AAr?$AAe?$AAu?$AAs?$AAe?$AA?$CI?$AA?$CG?$AAp?$AAo?$AAs?$AA_?$AAv?$AAa?$AAl?$AAu@ 0000000180075230     LIBCMTD:outputp.obj
 0002:000042d0       ??_C@_1FK@BCPANIEK@?$AA?$CI?$AA?$CC?$AAM?$AAi?$AAs?$AAs?$AAi?$AAn?$AAg?$AA?5?$AAp?$AAo?$AAs?$AAi?$AAt?$AAi?$AAo?$AAn?$AA?5?$AAi?$AAn?$AA?5?$AAt?$AAh?$AAe?$AA?5?$AAf?$AAo?$AAr?$AAm?$AAa?$AAt@ 00000001800752d0     LIBCMTD:outputp.obj
 0002:00004330       ??_C@_1GK@KLOFHDOP@?$AAf?$AA?3?$AA?2?$AAd?$AAd?$AA?2?$AAv?$AAc?$AAt?$AAo?$AAo?$AAl?$AAs?$AA?2?$AAc?$AAr?$AAt?$AA_?$AAb?$AAl?$AAd?$AA?2?$AAs?$AAe?$AAl?$AAf?$AA_?$AA6?$AA4?$AA_?$AAa?$AAm@ 0000000180075330     LIBCMTD:dosmap.obj
 0002:000043a0       ??_C@_1BG@KCMPBBDK@?$AA_?$AAg?$AAe?$AAt?$AA_?$AAe?$AAr?$AAr?$AAn?$AAo?$AA?$AA@ 00000001800753a0     LIBCMTD:dosmap.obj
 0002:000043b8       ??_C@_1BM@INIPHHDD@?$AA_?$AAg?$AAe?$AAt?$AA_?$AAd?$AAo?$AAs?$AAe?$AAr?$AAr?$AAn?$AAo?$AA?$AA@ 00000001800753b8     LIBCMTD:dosmap.obj
 0002:000043d8       ??_C@_1CA@MBDBOHIB@?$AA_?$AAL?$AAo?$AAc?$AAa?$AAl?$AAe?$AA?5?$AA?$CB?$AA?$DN?$AA?5?$AAN?$AAU?$AAL?$AAL?$AA?$AA@ 00000001800753d8     LIBCMTD:strgtold.obj
 0002:00004400       ??_C@_1JA@KMLJJOBI@?$AAf?$AA?3?$AA?2?$AAd?$AAd?$AA?2?$AAv?$AAc?$AAt?$AAo?$AAo?$AAl?$AAs?$AA?2?$AAc?$AAr?$AAt?$AA_?$AAb?$AAl?$AAd?$AA?2?$AAs?$AAe?$AAl?$AAf?$AA_?$AA6?$AA4?$AA_?$AAa?$AAm@ 0000000180075400     LIBCMTD:strgtold.obj
 0002:00004490       ??_C@_1BO@IHLJHOPI@?$AA_?$AA_?$AAs?$AAt?$AAr?$AAg?$AAt?$AAo?$AAl?$AAd?$AA1?$AA2?$AA_?$AAl?$AA?$AA@ 0000000180075490     LIBCMTD:strgtold.obj
 0002:000044b0       ??_C@_1BJK@FEBNHLFF@?$AA?$CI?$AA?$CI?$AAp?$AAt?$AAl?$AAo?$AAc?$AAi?$AA?9?$AA?$DO?$AAl?$AAc?$AA_?$AAc?$AAa?$AAt?$AAe?$AAg?$AAo?$AAr?$AAy?$AA?$FL?$AAc?$AAa?$AAt?$AAe?$AAg?$AAo?$AAr?$AAy?$AA?$FN?$AA?4@ 00000001800754b0     LIBCMTD:localref.obj
 0002:00004650       ??_C@_1GO@OLCKHDCC@?$AAf?$AA?3?$AA?2?$AAd?$AAd?$AA?2?$AAv?$AAc?$AAt?$AAo?$AAo?$AAl?$AAs?$AA?2?$AAc?$AAr?$AAt?$AA_?$AAb?$AAl?$AAd?$AA?2?$AAs?$AAe?$AAl?$AAf?$AA_?$AA6?$AA4?$AA_?$AAa?$AAm@ 0000000180075650     LIBCMTD:localref.obj
 0002:000046e0       ??_C@_1M@HPNHIDJI@?$AAj?$AAa?$AA?9?$AAJ?$AAP?$AA?$AA@ 00000001800756e0     LIBCMTD:mbctype.obj
 0002:000046f0       ??_C@_1M@BIBDDEMK@?$AAz?$AAh?$AA?9?$AAC?$AAN?$AA?$AA@ 00000001800756f0     LIBCMTD:mbctype.obj
 0002:00004700       ??_C@_1M@JLOOOEGK@?$AAk?$AAo?$AA?9?$AAK?$AAR?$AA?$AA@ 0000000180075700     LIBCMTD:mbctype.obj
 0002:00004710       ??_C@_1M@CLNBBOPM@?$AAz?$AAh?$AA?9?$AAT?$AAW?$AA?$AA@ 0000000180075710     LIBCMTD:mbctype.obj
 0002:00004748       ??_C@_0DG@CBLPBEGB@f?3?2dd?2vctools?2crt_bld?2self_64_am@ 0000000180075748     LIBCMTD:mbctype.obj
 0002:00004780       ??_C@_1CI@JELMFMDH@?$AAc?$AA?5?$AA?$DO?$AA?$DN?$AA?5?$AA?9?$AA1?$AA?5?$AA?$CG?$AA?$CG?$AA?5?$AAc?$AA?5?$AA?$DM?$AA?$DN?$AA?5?$AA2?$AA5?$AA5?$AA?$AA@ 0000000180075780     LIBCMTD:isctype.obj
 0002:000047b0       ??_C@_1GM@FOJELOKL@?$AAf?$AA?3?$AA?2?$AAd?$AAd?$AA?2?$AAv?$AAc?$AAt?$AAo?$AAo?$AAl?$AAs?$AA?2?$AAc?$AAr?$AAt?$AA_?$AAb?$AAl?$AAd?$AA?2?$AAs?$AAe?$AAl?$AAf?$AA_?$AA6?$AA4?$AA_?$AAa?$AAm@ 00000001800757b0     LIBCMTD:isctype.obj
 0002:00004820       ??_C@_0DH@BOBGGICJ@f?3?2dd?2vctools?2crt_bld?2self_64_am@ 0000000180075820     LIBCMTD:tidtable.obj
 0002:00004858       ??_C@_03KOEHGMDN@Sun?$AA@  0000000180075858     LIBCMTD:nlsdata.obj
 0002:0000485c       ??_C@_03PDAGKDH@Mon?$AA@   000000018007585c     LIBCMTD:nlsdata.obj
 0002:00004860       ??_C@_03NAGEINEP@Tue?$AA@  0000000180075860     LIBCMTD:nlsdata.obj
 0002:00004864       ??_C@_03MHOMLAJA@Wed?$AA@  0000000180075864     LIBCMTD:nlsdata.obj
 0002:00004868       ??_C@_03IOFIKPDN@Thu?$AA@  0000000180075868     LIBCMTD:nlsdata.obj
 0002:0000486c       ??_C@_03IDIOELNC@Fri?$AA@  000000018007586c     LIBCMTD:nlsdata.obj
 0002:00004870       ??_C@_03FEFJNEK@Sat?$AA@   0000000180075870     LIBCMTD:nlsdata.obj
 0002:00004874       ??_C@_06OOPIFAJ@Sunday?$AA@ 0000000180075874     LIBCMTD:nlsdata.obj
 0002:0000487c       ??_C@_06JLEDEDGH@Monday?$AA@ 000000018007587c     LIBCMTD:nlsdata.obj
 0002:00004888       ??_C@_07BAAGCFCM@Tuesday?$AA@ 0000000180075888     LIBCMTD:nlsdata.obj
 0002:00004890       ??_C@_09DLIGFAKA@Wednesday?$AA@ 0000000180075890     LIBCMTD:nlsdata.obj
 0002:000048a0       ??_C@_08HACCIKIA@Thursday?$AA@ 00000001800758a0     LIBCMTD:nlsdata.obj
 0002:000048ac       ??_C@_06JECMNKMI@Friday?$AA@ 00000001800758ac     LIBCMTD:nlsdata.obj
 0002:000048b8       ??_C@_08INBOOONO@Saturday?$AA@ 00000001800758b8     LIBCMTD:nlsdata.obj
 0002:000048c4       ??_C@_03JIHJHPIE@Jan?$AA@  00000001800758c4     LIBCMTD:nlsdata.obj
 0002:000048c8       ??_C@_03HJBDCHOM@Feb?$AA@  00000001800758c8     LIBCMTD:nlsdata.obj
 0002:000048cc       ??_C@_03ODNJBKGA@Mar?$AA@  00000001800758cc     LIBCMTD:nlsdata.obj
 0002:000048d0       ??_C@_03LEOLGMJP@Apr?$AA@  00000001800758d0     LIBCMTD:nlsdata.obj
 0002:000048d4       ??_C@_03CNMDKL@May?$AA@    00000001800758d4     LIBCMTD:nlsdata.obj
 0002:000048d8       ??_C@_03IDFGHECI@Jun?$AA@  00000001800758d8     LIBCMTD:nlsdata.obj
 0002:000048dc       ??_C@_03LBGABGKK@Jul?$AA@  00000001800758dc     LIBCMTD:nlsdata.obj
 0002:000048e0       ??_C@_03IFJFEIGA@Aug?$AA@  00000001800758e0     LIBCMTD:nlsdata.obj
 0002:000048e4       ??_C@_03GGCAPAJC@Sep?$AA@  00000001800758e4     LIBCMTD:nlsdata.obj
 0002:000048e8       ??_C@_03BMAOKBAD@Oct?$AA@  00000001800758e8     LIBCMTD:nlsdata.obj
 0002:000048ec       ??_C@_03JPJOFNIA@Nov?$AA@  00000001800758ec     LIBCMTD:nlsdata.obj
 0002:000048f0       ??_C@_03MKABNOCG@Dec?$AA@  00000001800758f0     LIBCMTD:nlsdata.obj
 0002:000048f8       ??_C@_07CGJPFGJA@January?$AA@ 00000001800758f8     LIBCMTD:nlsdata.obj
 0002:00004900       ??_C@_08GNJGEPFN@February?$AA@ 0000000180075900     LIBCMTD:nlsdata.obj
 0002:0000490c       ??_C@_05HPCKOFNC@March?$AA@ 000000018007590c     LIBCMTD:nlsdata.obj
 0002:00004914       ??_C@_05DMJDNLEJ@April?$AA@ 0000000180075914     LIBCMTD:nlsdata.obj
 0002:0000491c       ??_C@_04CNLMGBGM@June?$AA@ 000000018007591c     LIBCMTD:nlsdata.obj
 0002:00004924       ??_C@_04MIEPOIFP@July?$AA@ 0000000180075924     LIBCMTD:nlsdata.obj
 0002:0000492c       ??_C@_06LBBHFDDG@August?$AA@ 000000018007592c     LIBCMTD:nlsdata.obj
 0002:00004938       ??_C@_09BHHEALKD@September?$AA@ 0000000180075938     LIBCMTD:nlsdata.obj
 0002:00004948       ??_C@_07JJNFCEND@October?$AA@ 0000000180075948     LIBCMTD:nlsdata.obj
 0002:00004950       ??_C@_08HCHEGEOA@November?$AA@ 0000000180075950     LIBCMTD:nlsdata.obj
 0002:00004960       ??_C@_08EDHMEBNP@December?$AA@ 0000000180075960     LIBCMTD:nlsdata.obj
 0002:0000496c       ??_C@_02DEDBPAFC@AM?$AA@   000000018007596c     LIBCMTD:nlsdata.obj
 0002:00004970       ??_C@_02CJNFDJBF@PM?$AA@   0000000180075970     LIBCMTD:nlsdata.obj
 0002:00004978       ??_C@_08BPBNCDIB@MM?1dd?1yy?$AA@ 0000000180075978     LIBCMTD:nlsdata.obj
 0002:00004988       ??_C@_0BE@CKGJFCPC@dddd?0?5MMMM?5dd?0?5yyyy?$AA@ 0000000180075988     LIBCMTD:nlsdata.obj
 0002:000049a0       ??_C@_08JCCMCCIL@HH?3mm?3ss?$AA@ 00000001800759a0     LIBCMTD:nlsdata.obj
 0002:000049b0       ??_C@_17MBGCMIPB@?$AAS?$AAu?$AAn?$AA?$AA@ 00000001800759b0     LIBCMTD:nlsdata.obj
 0002:000049b8       ??_C@_17KBOMKBF@?$AAM?$AAo?$AAn?$AA?$AA@ 00000001800759b8     LIBCMTD:nlsdata.obj
 0002:000049c0       ??_C@_17BMKGEGOJ@?$AAT?$AAu?$AAe?$AA?$AA@ 00000001800759c0     LIBCMTD:nlsdata.obj
 0002:000049c8       ??_C@_17CJEDCEPE@?$AAW?$AAe?$AAd?$AA?$AA@ 00000001800759c8     LIBCMTD:nlsdata.obj
 0002:000049d0       ??_C@_17PDPHAADD@?$AAT?$AAh?$AAu?$AA?$AA@ 00000001800759d0     LIBCMTD:nlsdata.obj
 0002:000049d8       ??_C@_17HFOLPPLP@?$AAF?$AAr?$AAi?$AA?$AA@ 00000001800759d8     LIBCMTD:nlsdata.obj
 0002:000049e0       ??_C@_17GGIBDPIH@?$AAS?$AAa?$AAt?$AA?$AA@ 00000001800759e0     LIBCMTD:nlsdata.obj
 0002:000049e8       ??_C@_1O@IHNHDHPB@?$AAS?$AAu?$AAn?$AAd?$AAa?$AAy?$AA?$AA@ 00000001800759e8     LIBCMTD:nlsdata.obj
 0002:000049f8       ??_C@_1O@MMNBFLIA@?$AAM?$AAo?$AAn?$AAd?$AAa?$AAy?$AA?$AA@ 00000001800759f8     LIBCMTD:nlsdata.obj
 0002:00004a08       ??_C@_1BA@ENFBFFEK@?$AAT?$AAu?$AAe?$AAs?$AAd?$AAa?$AAy?$AA?$AA@ 0000000180075a08     LIBCMTD:nlsdata.obj
 0002:00004a18       ??_C@_1BE@EBOGMDOH@?$AAW?$AAe?$AAd?$AAn?$AAe?$AAs?$AAd?$AAa?$AAy?$AA?$AA@ 0000000180075a18     LIBCMTD:nlsdata.obj
 0002:00004a30       ??_C@_1BC@HHMNLIHE@?$AAT?$AAh?$AAu?$AAr?$AAs?$AAd?$AAa?$AAy?$AA?$AA@ 0000000180075a30     LIBCMTD:nlsdata.obj
 0002:00004a48       ??_C@_1O@PDICJHAG@?$AAF?$AAr?$AAi?$AAd?$AAa?$AAy?$AA?$AA@ 0000000180075a48     LIBCMTD:nlsdata.obj
 0002:00004a58       ??_C@_1BC@ENMNNPAJ@?$AAS?$AAa?$AAt?$AAu?$AAr?$AAd?$AAa?$AAy?$AA?$AA@ 0000000180075a58     LIBCMTD:nlsdata.obj
 0002:00004a70       ??_C@_17DKNBKCHM@?$AAJ?$AAa?$AAn?$AA?$AA@ 0000000180075a70     LIBCMTD:nlsdata.obj
 0002:00004a78       ??_C@_17LMDJEKJN@?$AAF?$AAe?$AAb?$AA?$AA@ 0000000180075a78     LIBCMTD:nlsdata.obj
 0002:00004a80       ??_C@_17CKNLEDEC@?$AAM?$AAa?$AAr?$AA?$AA@ 0000000180075a80     LIBCMTD:nlsdata.obj
 0002:00004a88       ??_C@_17LFPOIHDD@?$AAA?$AAp?$AAr?$AA?$AA@ 0000000180075a88     LIBCMTD:nlsdata.obj
 0002:00004a90       ??_C@_17PNNKMEED@?$AAM?$AAa?$AAy?$AA?$AA@ 0000000180075a90     LIBCMTD:nlsdata.obj
 0002:00004a98       ??_C@_17KCJGOCPB@?$AAJ?$AAu?$AAn?$AA?$AA@ 0000000180075a98     LIBCMTD:nlsdata.obj
 0002:00004aa0       ??_C@_17IJPCKHK@?$AAJ?$AAu?$AAl?$AA?$AA@ 0000000180075aa0     LIBCMTD:nlsdata.obj
 0002:00004aa8       ??_C@_17ICPELBCN@?$AAA?$AAu?$AAg?$AA?$AA@ 0000000180075aa8     LIBCMTD:nlsdata.obj
 0002:00004ab0       ??_C@_17HCHCOKMG@?$AAS?$AAe?$AAp?$AA?$AA@ 0000000180075ab0     LIBCMTD:nlsdata.obj
 0002:00004ab8       ??_C@_17FNLKOI@?$AAO?$AAc?$AAt?$AA?$AA@ 0000000180075ab8     LIBCMTD:nlsdata.obj
 0002:00004ac0       ??_C@_17BBDMLCIG@?$AAN?$AAo?$AAv?$AA?$AA@ 0000000180075ac0     LIBCMTD:nlsdata.obj
 0002:00004ac8       ??_C@_17EGKACKIF@?$AAD?$AAe?$AAc?$AA?$AA@ 0000000180075ac8     LIBCMTD:nlsdata.obj
 0002:00004ad0       ??_C@_1BA@EFMEIEBA@?$AAJ?$AAa?$AAn?$AAu?$AAa?$AAr?$AAy?$AA?$AA@ 0000000180075ad0     LIBCMTD:nlsdata.obj
 0002:00004ae0       ??_C@_1BC@JGDDFFAM@?$AAF?$AAe?$AAb?$AAr?$AAu?$AAa?$AAr?$AAy?$AA?$AA@ 0000000180075ae0     LIBCMTD:nlsdata.obj
 0002:00004af8       ??_C@_1M@IKEENEDF@?$AAM?$AAa?$AAr?$AAc?$AAh?$AA?$AA@ 0000000180075af8     LIBCMTD:nlsdata.obj
 0002:00004b08       ??_C@_1M@GJNLMHFD@?$AAA?$AAp?$AAr?$AAi?$AAl?$AA?$AA@ 0000000180075b08     LIBCMTD:nlsdata.obj
 0002:00004b18       ??_C@_19EPFLPGAP@?$AAJ?$AAu?$AAn?$AAe?$AA?$AA@ 0000000180075b18     LIBCMTD:nlsdata.obj
 0002:00004b28       ??_C@_19BIFMLPCD@?$AAJ?$AAu?$AAl?$AAy?$AA?$AA@ 0000000180075b28     LIBCMTD:nlsdata.obj
 0002:00004b38       ??_C@_1O@PAHLKOAC@?$AAA?$AAu?$AAg?$AAu?$AAs?$AAt?$AA?$AA@ 0000000180075b38     LIBCMTD:nlsdata.obj
 0002:00004b48       ??_C@_1BE@DKAAMBJL@?$AAS?$AAe?$AAp?$AAt?$AAe?$AAm?$AAb?$AAe?$AAr?$AA?$AA@ 0000000180075b48     LIBCMTD:nlsdata.obj
 0002:00004b60       ??_C@_1BA@EPANDLNG@?$AAO?$AAc?$AAt?$AAo?$AAb?$AAe?$AAr?$AA?$AA@ 0000000180075b60     LIBCMTD:nlsdata.obj
 0002:00004b70       ??_C@_1BC@BGLIFPF@?$AAN?$AAo?$AAv?$AAe?$AAm?$AAb?$AAe?$AAr?$AA?$AA@ 0000000180075b70     LIBCMTD:nlsdata.obj
 0002:00004b88       ??_C@_1BC@FEMKIFH@?$AAD?$AAe?$AAc?$AAe?$AAm?$AAb?$AAe?$AAr?$AA?$AA@ 0000000180075b88     LIBCMTD:nlsdata.obj
 0002:00004b9c       ??_C@_15ODEHAHHF@?$AAA?$AAM?$AA?$AA@ 0000000180075b9c     LIBCMTD:nlsdata.obj
 0002:00004ba4       ??_C@_15CLMNNGEL@?$AAP?$AAM?$AA?$AA@ 0000000180075ba4     LIBCMTD:nlsdata.obj
 0002:00004bb0       ??_C@_1BC@IEBCMHCM@?$AAM?$AAM?$AA?1?$AAd?$AAd?$AA?1?$AAy?$AAy?$AA?$AA@ 0000000180075bb0     LIBCMTD:nlsdata.obj
 0002:00004bc8       ??_C@_1CI@KNAKOEBC@?$AAd?$AAd?$AAd?$AAd?$AA?0?$AA?5?$AAM?$AAM?$AAM?$AAM?$AA?5?$AAd?$AAd?$AA?0?$AA?5?$AAy?$AAy?$AAy?$AAy?$AA?$AA@ 0000000180075bc8     LIBCMTD:nlsdata.obj
 0002:00004bf0       ??_C@_1BC@GDGBMEMK@?$AAH?$AAH?$AA?3?$AAm?$AAm?$AA?3?$AAs?$AAs?$AA?$AA@ 0000000180075bf0     LIBCMTD:nlsdata.obj
 0002:00004c08       ??_C@_1M@BMHNFIME@?$AAe?$AAn?$AA?9?$AAU?$AAS?$AA?$AA@ 0000000180075c08     LIBCMTD:nlsdata.obj
 0002:00004c40       ??_C@_1GK@GEJDGIG@?$AAf?$AA?3?$AA?2?$AAd?$AAd?$AA?2?$AAv?$AAc?$AAt?$AAo?$AAo?$AAl?$AAs?$AA?2?$AAc?$AAr?$AAt?$AA_?$AAb?$AAl?$AAd?$AA?2?$AAs?$AAe?$AAl?$AAf?$AA_?$AA6?$AA4?$AA_?$AAa?$AAm@ 0000000180075c40     LIBCMTD:strtoq.obj
 0002:00004cb0       ??_C@_1BA@BMMDEPNE@?$AAs?$AAt?$AAr?$AAt?$AAo?$AAx?$AAq?$AA?$AA@ 0000000180075cb0     LIBCMTD:strtoq.obj
 0002:00004cc0       ??_C@_1FE@CEHLKAHD@?$AAi?$AAb?$AAa?$AAs?$AAe?$AA?5?$AA?$DN?$AA?$DN?$AA?5?$AA0?$AA?5?$AA?$HM?$AA?$HM?$AA?5?$AA?$CI?$AA2?$AA?5?$AA?$DM?$AA?$DN?$AA?5?$AAi?$AAb?$AAa?$AAs?$AAe?$AA?5?$AA?$CG?$AA?$CG?$AA?5?$AAi?$AAb?$AAa@ 0000000180075cc0     LIBCMTD:strtoq.obj
 0002:00004d40       ??_C@_1GK@OBPHBCHM@?$AAf?$AA?3?$AA?2?$AAd?$AAd?$AA?2?$AAv?$AAc?$AAt?$AAo?$AAo?$AAl?$AAs?$AA?2?$AAc?$AAr?$AAt?$AA_?$AAb?$AAl?$AAd?$AA?2?$AAs?$AAe?$AAl?$AAf?$AA_?$AA6?$AA4?$AA_?$AAa?$AAm@ 0000000180075d40     LIBCMTD:strtol.obj
 0002:00004db0       ??_C@_1BA@LOLAMAJG@?$AAs?$AAt?$AAr?$AAt?$AAo?$AAx?$AAl?$AA?$AA@ 0000000180075db0     LIBCMTD:strtol.obj
 0002:00004dc0       ??_C@_1BI@ICGGMGLK@?$AAb?$AAu?$AAf?$AA?5?$AA?$CB?$AA?$DN?$AA?5?$AAN?$AAU?$AAL?$AAL?$AA?$AA@ 0000000180075dc0     LIBCMTD:cvt.obj
 0002:00004de0       ??_C@_1HI@KBDPHEPE@?$AAf?$AA?3?$AA?2?$AAd?$AAd?$AA?2?$AAv?$AAc?$AAt?$AAo?$AAo?$AAl?$AAs?$AA?2?$AAc?$AAr?$AAt?$AA_?$AAb?$AAl?$AAd?$AA?2?$AAs?$AAe?$AAl?$AAf?$AA_?$AA6?$AA4?$AA_?$AAa?$AAm@ 0000000180075de0     LIBCMTD:cvt.obj
 0002:00004e58       ??_C@_1BE@OLBNEILL@?$AA_?$AAc?$AAf?$AAt?$AAo?$AAe?$AA2?$AA_?$AAl?$AA?$AA@ 0000000180075e58     LIBCMTD:cvt.obj
 0002:00004e70       ??_C@_1CA@CBMNPEO@?$AAs?$AAi?$AAz?$AAe?$AAI?$AAn?$AAB?$AAy?$AAt?$AAe?$AAs?$AA?5?$AA?$DO?$AA?5?$AA0?$AA?$AA@ 0000000180075e70     LIBCMTD:cvt.obj
 0002:00004e90       ??_C@_1HE@NACBNDPP@?$AAs?$AAi?$AAz?$AAe?$AAI?$AAn?$AAB?$AAy?$AAt?$AAe?$AAs?$AA?5?$AA?$DO?$AA?5?$AA?$CI?$AAs?$AAi?$AAz?$AAe?$AA_?$AAt?$AA?$CJ?$AA?$CI?$AA3?$AA?5?$AA?$CL?$AA?5?$AA?$CI?$AAn?$AAd?$AAe?$AAc@ 0000000180075e90     LIBCMTD:cvt.obj
 0002:00004f10       ??_C@_1LE@EOIFGNCJ@?$AAs?$AAt?$AAr?$AAc?$AAp?$AAy?$AA_?$AAs?$AA?$CI?$AAp?$AA?0?$AA?5?$AA?$CI?$AAs?$AAi?$AAz?$AAe?$AAI?$AAn?$AAB?$AAy?$AAt?$AAe?$AAs?$AA?5?$AA?$DN?$AA?$DN?$AA?5?$AA?$CI?$AAs?$AAi?$AAz@ 0000000180075f10     LIBCMTD:cvt.obj
 0002:00004fc4       ??_C@_05KLBDPFGC@e?$CL000?$AA@ 0000000180075fc4     LIBCMTD:cvt.obj
 0002:00004fd0       ??_C@_1BC@INKAPMHI@?$AA_?$AAc?$AAf?$AAt?$AAo?$AAe?$AA_?$AAl?$AA?$AA@ 0000000180075fd0     LIBCMTD:cvt.obj
 0002:00004fe8       ??_C@_1BC@JOKPCIC@?$AA_?$AAc?$AAf?$AAt?$AAo?$AAa?$AA_?$AAl?$AA?$AA@ 0000000180075fe8     LIBCMTD:cvt.obj
 0002:00005000       ??_C@_1FC@IKIMAMJB@?$AAs?$AAi?$AAz?$AAe?$AAI?$AAn?$AAB?$AAy?$AAt?$AAe?$AAs?$AA?5?$AA?$DO?$AA?5?$AA?$CI?$AAs?$AAi?$AAz?$AAe?$AA_?$AAt?$AA?$CJ?$AA?$CI?$AA1?$AA?5?$AA?$CL?$AA?5?$AA4?$AA?5?$AA?$CL?$AA?5?$AAn@ 0000000180076000     LIBCMTD:cvt.obj
 0002:00005058       ??_C@_1BE@CKPDLI@?$AA_?$AAc?$AAf?$AAt?$AAo?$AAf?$AA2?$AA_?$AAl?$AA?$AA@ 0000000180076058     LIBCMTD:cvt.obj
 0002:00005070       ??_C@_1BC@DCPPLJL@?$AA_?$AAc?$AAf?$AAt?$AAo?$AAf?$AA_?$AAl?$AA?$AA@ 0000000180076070     LIBCMTD:cvt.obj
 0002:00005088       ??_C@_1BC@MPIFPLAF@?$AA_?$AAc?$AAf?$AAt?$AAo?$AAg?$AA_?$AAl?$AA?$AA@ 0000000180076088     LIBCMTD:cvt.obj
 0002:000050a0       __real@0000000000000000    00000001800760a0     LIBCMTD:cvt.obj
 0002:00005220       ??_C@_1FK@PGACCAFB@?$AAR?$AA6?$AA0?$AA0?$AA2?$AA?$AN?$AA?6?$AA?9?$AA?5?$AAf?$AAl?$AAo?$AAa?$AAt?$AAi?$AAn?$AAg?$AA?5?$AAp?$AAo?$AAi?$AAn?$AAt?$AA?5?$AAs?$AAu?$AAp?$AAp?$AAo?$AAr?$AAt?$AA?5@ 0000000180076220     LIBCMTD:crt0msg.obj
 0002:00005280       ??_C@_1FE@LLNEDJMD@?$AAR?$AA6?$AA0?$AA0?$AA8?$AA?$AN?$AA?6?$AA?9?$AA?5?$AAn?$AAo?$AAt?$AA?5?$AAe?$AAn?$AAo?$AAu?$AAg?$AAh?$AA?5?$AAs?$AAp?$AAa?$AAc?$AAe?$AA?5?$AAf?$AAo?$AAr?$AA?5?$AAa?$AAr@ 0000000180076280     LIBCMTD:crt0msg.obj
 0002:000052e0       ??_C@_1FI@HONFMGBI@?$AAR?$AA6?$AA0?$AA0?$AA9?$AA?$AN?$AA?6?$AA?9?$AA?5?$AAn?$AAo?$AAt?$AA?5?$AAe?$AAn?$AAo?$AAu?$AAg?$AAh?$AA?5?$AAs?$AAp?$AAa?$AAc?$AAe?$AA?5?$AAf?$AAo?$AAr?$AA?5?$AAe?$AAn@ 00000001800762e0     LIBCMTD:crt0msg.obj
 0002:00005340       ??_C@_1EG@BEHAGFJD@?$AAR?$AA6?$AA0?$AA1?$AA0?$AA?$AN?$AA?6?$AA?9?$AA?5?$AAa?$AAb?$AAo?$AAr?$AAt?$AA?$CI?$AA?$CJ?$AA?5?$AAh?$AAa?$AAs?$AA?5?$AAb?$AAe?$AAe?$AAn?$AA?5?$AAc?$AAa?$AAl?$AAl?$AAe?$AAd@ 0000000180076340     LIBCMTD:crt0msg.obj
 0002:00005390       ??_C@_1FI@LOGNIKDM@?$AAR?$AA6?$AA0?$AA1?$AA6?$AA?$AN?$AA?6?$AA?9?$AA?5?$AAn?$AAo?$AAt?$AA?5?$AAe?$AAn?$AAo?$AAu?$AAg?$AAh?$AA?5?$AAs?$AAp?$AAa?$AAc?$AAe?$AA?5?$AAf?$AAo?$AAr?$AA?5?$AAt?$AAh@ 0000000180076390     LIBCMTD:crt0msg.obj
 0002:000053f0       ??_C@_1FK@BEOGODMC@?$AAR?$AA6?$AA0?$AA1?$AA7?$AA?$AN?$AA?6?$AA?9?$AA?5?$AAu?$AAn?$AAe?$AAx?$AAp?$AAe?$AAc?$AAt?$AAe?$AAd?$AA?5?$AAm?$AAu?$AAl?$AAt?$AAi?$AAt?$AAh?$AAr?$AAe?$AAa?$AAd?$AA?5@ 00000001800763f0     LIBCMTD:crt0msg.obj
 0002:00005450       ??_C@_1EC@JIBHAOPH@?$AAR?$AA6?$AA0?$AA1?$AA8?$AA?$AN?$AA?6?$AA?9?$AA?5?$AAu?$AAn?$AAe?$AAx?$AAp?$AAe?$AAc?$AAt?$AAe?$AAd?$AA?5?$AAh?$AAe?$AAa?$AAp?$AA?5?$AAe?$AAr?$AAr?$AAo?$AAr?$AA?$AN?$AA?6@ 0000000180076450     LIBCMTD:crt0msg.obj
 0002:000054a0       ??_C@_1FC@ECHBIFBC@?$AAR?$AA6?$AA0?$AA1?$AA9?$AA?$AN?$AA?6?$AA?9?$AA?5?$AAu?$AAn?$AAa?$AAb?$AAl?$AAe?$AA?5?$AAt?$AAo?$AA?5?$AAo?$AAp?$AAe?$AAn?$AA?5?$AAc?$AAo?$AAn?$AAs?$AAo?$AAl?$AAe?$AA?5@ 00000001800764a0     LIBCMTD:crt0msg.obj
 0002:00005500       ??_C@_1GK@FHCKBEFA@?$AAR?$AA6?$AA0?$AA2?$AA4?$AA?$AN?$AA?6?$AA?9?$AA?5?$AAn?$AAo?$AAt?$AA?5?$AAe?$AAn?$AAo?$AAu?$AAg?$AAh?$AA?5?$AAs?$AAp?$AAa?$AAc?$AAe?$AA?5?$AAf?$AAo?$AAr?$AA?5?$AA_?$AAo@ 0000000180076500     LIBCMTD:crt0msg.obj
 0002:00005570       ??_C@_1EM@MAADIHMB@?$AAR?$AA6?$AA0?$AA2?$AA5?$AA?$AN?$AA?6?$AA?9?$AA?5?$AAp?$AAu?$AAr?$AAe?$AA?5?$AAv?$AAi?$AAr?$AAt?$AAu?$AAa?$AAl?$AA?5?$AAf?$AAu?$AAn?$AAc?$AAt?$AAi?$AAo?$AAn?$AA?5?$AAc@ 0000000180076570     LIBCMTD:crt0msg.obj
 0002:000055c0       ??_C@_1GK@MCAAGJMO@?$AAR?$AA6?$AA0?$AA2?$AA6?$AA?$AN?$AA?6?$AA?9?$AA?5?$AAn?$AAo?$AAt?$AA?5?$AAe?$AAn?$AAo?$AAu?$AAg?$AAh?$AA?5?$AAs?$AAp?$AAa?$AAc?$AAe?$AA?5?$AAf?$AAo?$AAr?$AA?5?$AAs?$AAt@ 00000001800765c0     LIBCMTD:crt0msg.obj
 0002:00005630       ??_C@_1GK@MFGOKLAG@?$AAR?$AA6?$AA0?$AA2?$AA7?$AA?$AN?$AA?6?$AA?9?$AA?5?$AAn?$AAo?$AAt?$AA?5?$AAe?$AAn?$AAo?$AAu?$AAg?$AAh?$AA?5?$AAs?$AAp?$AAa?$AAc?$AAe?$AA?5?$AAf?$AAo?$AAr?$AA?5?$AAl?$AAo@ 0000000180076630     LIBCMTD:crt0msg.obj
 0002:000056a0       ??_C@_1EK@HHFLMAOL@?$AAR?$AA6?$AA0?$AA2?$AA8?$AA?$AN?$AA?6?$AA?9?$AA?5?$AAu?$AAn?$AAa?$AAb?$AAl?$AAe?$AA?5?$AAt?$AAo?$AA?5?$AAi?$AAn?$AAi?$AAt?$AAi?$AAa?$AAl?$AAi?$AAz?$AAe?$AA?5?$AAh?$AAe@ 00000001800766a0     LIBCMTD:crt0msg.obj
 0002:000056f0       ??_C@_1DO@BMFCDCD@?$AAR?$AA6?$AA0?$AA3?$AA0?$AA?$AN?$AA?6?$AA?9?$AA?5?$AAC?$AAR?$AAT?$AA?5?$AAn?$AAo?$AAt?$AA?5?$AAi?$AAn?$AAi?$AAt?$AAi?$AAa?$AAl?$AAi?$AAz?$AAe?$AAd?$AA?$AN?$AA?6?$AA?$AA@ 00000001800766f0     LIBCMTD:crt0msg.obj
 0002:00005730       ??_C@_1MG@ENCOOIDF@?$AAR?$AA6?$AA0?$AA3?$AA1?$AA?$AN?$AA?6?$AA?9?$AA?5?$AAA?$AAt?$AAt?$AAe?$AAm?$AAp?$AAt?$AA?5?$AAt?$AAo?$AA?5?$AAi?$AAn?$AAi?$AAt?$AAi?$AAa?$AAl?$AAi?$AAz?$AAe?$AA?5?$AAt@ 0000000180076730     LIBCMTD:crt0msg.obj
 0002:00005800       ??_C@_1GG@GOPILAJP@?$AAR?$AA6?$AA0?$AA3?$AA2?$AA?$AN?$AA?6?$AA?9?$AA?5?$AAn?$AAo?$AAt?$AA?5?$AAe?$AAn?$AAo?$AAu?$AAg?$AAh?$AA?5?$AAs?$AAp?$AAa?$AAc?$AAe?$AA?5?$AAf?$AAo?$AAr?$AA?5?$AAl?$AAo@ 0000000180076800     LIBCMTD:crt0msg.obj
 0002:00005870       ??_C@_1BOO@KGEDBGAJ@?$AAR?$AA6?$AA0?$AA3?$AA3?$AA?$AN?$AA?6?$AA?9?$AA?5?$AAA?$AAt?$AAt?$AAe?$AAm?$AAp?$AAt?$AA?5?$AAt?$AAo?$AA?5?$AAu?$AAs?$AAe?$AA?5?$AAM?$AAS?$AAI?$AAL?$AA?5?$AAc?$AAo?$AAd@ 0000000180076870     LIBCMTD:crt0msg.obj
 0002:00005a60       ??_C@_1GG@MKFPEKFO@?$AAR?$AA6?$AA0?$AA3?$AA4?$AA?$AN?$AA?6?$AA?9?$AA?5?$AAi?$AAn?$AAc?$AAo?$AAn?$AAs?$AAi?$AAs?$AAt?$AAe?$AAn?$AAt?$AA?5?$AAo?$AAn?$AAe?$AAx?$AAi?$AAt?$AA?5?$AAb?$AAe?$AAg@ 0000000180076a60     LIBCMTD:crt0msg.obj
 0002:00005ac8       ??_C@_1BO@BFCDCGC@?$AAD?$AAO?$AAM?$AAA?$AAI?$AAN?$AA?5?$AAe?$AAr?$AAr?$AAo?$AAr?$AA?$AN?$AA?6?$AA?$AA@ 0000000180076ac8     LIBCMTD:crt0msg.obj
 0002:00005ae8       ??_C@_1BK@KMOMNAAI@?$AAS?$AAI?$AAN?$AAG?$AA?5?$AAe?$AAr?$AAr?$AAo?$AAr?$AA?$AN?$AA?6?$AA?$AA@ 0000000180076ae8     LIBCMTD:crt0msg.obj
 0002:00005b08       ??_C@_1BM@JBBEPPHI@?$AAT?$AAL?$AAO?$AAS?$AAS?$AA?5?$AAe?$AAr?$AAr?$AAo?$AAr?$AA?$AN?$AA?6?$AA?$AA@ 0000000180076b08     LIBCMTD:crt0msg.obj
 0002:00005b24       ??_C@_15JNBOKNOG@?$AA?$AN?$AA?6?$AA?$AA@ 0000000180076b24     LIBCMTD:crt0msg.obj
 0002:00005b30       ??_C@_1BO@BKOMIGKJ@?$AAr?$AAu?$AAn?$AAt?$AAi?$AAm?$AAe?$AA?5?$AAe?$AAr?$AAr?$AAo?$AAr?$AA?5?$AA?$AA@ 0000000180076b30     LIBCMTD:crt0msg.obj
 0002:00005b50       ??_C@_1GM@DBEHMII@?$AAf?$AA?3?$AA?2?$AAd?$AAd?$AA?2?$AAv?$AAc?$AAt?$AAo?$AAo?$AAl?$AAs?$AA?2?$AAc?$AAr?$AAt?$AA_?$AAb?$AAl?$AAd?$AA?2?$AAs?$AAe?$AAl?$AAf?$AA_?$AA6?$AA4?$AA_?$AAa?$AAm@ 0000000180076b50     LIBCMTD:crt0msg.obj
 0002:00005bc0       ??_C@_1BI@EAHMBMEC@?$AA_?$AAN?$AAM?$AAS?$AAG?$AA_?$AAW?$AAR?$AAI?$AAT?$AAE?$AA?$AA@ 0000000180076bc0     LIBCMTD:crt0msg.obj
 0002:00005be0       ??_C@_1KO@BKLCKNFL@?$AAw?$AAc?$AAs?$AAc?$AAp?$AAy?$AA_?$AAs?$AA?$CI?$AAo?$AAu?$AAt?$AAm?$AAs?$AAg?$AA?0?$AA?5?$AA?$CI?$AAs?$AAi?$AAz?$AAe?$AAo?$AAf?$AA?$CI?$AAo?$AAu?$AAt?$AAm?$AAs?$AAg?$AA?$CJ@ 0000000180076be0     LIBCMTD:crt0msg.obj
 0002:00005c90       ??_C@_1DE@JNGNBFGO@?$AAR?$AAu?$AAn?$AAt?$AAi?$AAm?$AAe?$AA?5?$AAE?$AAr?$AAr?$AAo?$AAr?$AA?$CB?$AA?6?$AA?6?$AAP?$AAr?$AAo?$AAg?$AAr?$AAa?$AAm?$AA?3?$AA?5?$AA?$AA@ 0000000180076c90     LIBCMTD:crt0msg.obj
 0002:00005cd0       ??_C@_1HK@FJJNAABO@?$AAw?$AAc?$AAs?$AAc?$AAp?$AAy?$AA_?$AAs?$AA?$CI?$AAp?$AAr?$AAo?$AAg?$AAn?$AAa?$AAm?$AAe?$AA?0?$AA?5?$AAp?$AAr?$AAo?$AAg?$AAn?$AAa?$AAm?$AAe?$AA_?$AAs?$AAi?$AAz?$AAe@ 0000000180076cd0     LIBCMTD:crt0msg.obj
 0002:00005d50       ??_C@_1HI@FLHKGEBE@?$AAw?$AAc?$AAs?$AAn?$AAc?$AAp?$AAy?$AA_?$AAs?$AA?$CI?$AAp?$AAc?$AAh?$AA?0?$AA?5?$AAp?$AAr?$AAo?$AAg?$AAn?$AAa?$AAm?$AAe?$AA_?$AAs?$AAi?$AAz?$AAe?$AA?5?$AA?9?$AA?5?$AA?$CI@ 0000000180076d50     LIBCMTD:crt0msg.obj
 0002:00005dd0       ??_C@_1IA@DCJGKHFO@?$AAw?$AAc?$AAs?$AAc?$AAa?$AAt?$AA_?$AAs?$AA?$CI?$AAo?$AAu?$AAt?$AAm?$AAs?$AAg?$AA?0?$AA?5?$AA?$CI?$AAs?$AAi?$AAz?$AAe?$AAo?$AAf?$AA?$CI?$AAo?$AAu?$AAt?$AAm?$AAs?$AAg?$AA?$CJ@ 0000000180076dd0     LIBCMTD:crt0msg.obj
 0002:00005e50       ??_C@_1IG@NMONDPP@?$AAw?$AAc?$AAs?$AAc?$AAa?$AAt?$AA_?$AAs?$AA?$CI?$AAo?$AAu?$AAt?$AAm?$AAs?$AAg?$AA?0?$AA?5?$AA?$CI?$AAs?$AAi?$AAz?$AAe?$AAo?$AAf?$AA?$CI?$AAo?$AAu?$AAt?$AAm?$AAs?$AAg?$AA?$CJ@ 0000000180076e50     LIBCMTD:crt0msg.obj
 0002:00005ed8       ??_C@_0DH@IHLNMPAN@f?3?2dd?2vctools?2crt_bld?2self_64_am@ 0000000180076ed8     LIBCMTD:inithelp.obj
 0002:00005f10       ??_C@_1GO@GMNCABKN@?$AAf?$AA?3?$AA?2?$AAd?$AAd?$AA?2?$AAv?$AAc?$AAt?$AAo?$AAo?$AAl?$AAs?$AA?2?$AAc?$AAr?$AAt?$AA_?$AAb?$AAl?$AAd?$AA?2?$AAs?$AAe?$AAl?$AAf?$AA_?$AA6?$AA4?$AA_?$AAa?$AAm@ 0000000180076f10     LIBCMTD:inithelp.obj
 0002:00005f80       ??_C@_1CA@KHHCPEI@?$AA_?$AA_?$AAg?$AAe?$AAt?$AAl?$AAo?$AAc?$AAa?$AAl?$AAe?$AAi?$AAn?$AAf?$AAo?$AA?$AA@ 0000000180076f80     LIBCMTD:inithelp.obj
 0002:00005fa0       ??_C@_1GO@NGIGJNHH@?$AAs?$AAt?$AAr?$AAn?$AAc?$AAp?$AAy?$AA_?$AAs?$AA?$CI?$AA?$CK?$AAs?$AAt?$AAr?$AAa?$AAd?$AAd?$AAr?$AAe?$AAs?$AAs?$AA?0?$AA?5?$AAo?$AAu?$AAt?$AAs?$AAi?$AAz?$AAe?$AA?0?$AA?5@ 0000000180076fa0     LIBCMTD:inithelp.obj
 0002:00006018       ??_7exception@std@@6B@     0000000180077018     LIBCMTD:stdexcpt.obj
 0002:00006028       ??_C@_0BC@EOODALEL@Unknown?5exception?$AA@ 0000000180077028     LIBCMTD:stdexcpt.obj
 0002:00006048       ??_7bad_cast@std@@6B@      0000000180077048     LIBCMTD:stdexcpt.obj
 0002:00006060       ??_7bad_typeid@std@@6B@    0000000180077060     LIBCMTD:stdexcpt.obj
 0002:00006078       ??_7__non_rtti_object@std@@6B@ 0000000180077078     LIBCMTD:stdexcpt.obj
 0002:00006088       ??_C@_1BC@JLLICHIC@?$AAp?$AAn?$AAh?$AA?5?$AA?$DN?$AA?$DN?$AA?5?$AA0?$AA?$AA@ 0000000180077088     LIBCMTD:handler.obj
 0002:000060a0       ??_C@_1HA@DENGNKAH@?$AAf?$AA?3?$AA?2?$AAd?$AAd?$AA?2?$AAv?$AAc?$AAt?$AAo?$AAo?$AAl?$AAs?$AA?2?$AAc?$AAr?$AAt?$AA_?$AAb?$AAl?$AAd?$AA?2?$AAs?$AAe?$AAl?$AAf?$AA_?$AA6?$AA4?$AA_?$AAa?$AAm@ 00000001800770a0     LIBCMTD:handler.obj
 0002:00006150       ??_C@_0DE@NIIINDPP@f?3?2dd?2vctools?2crt_bld?2self_64_am@ 0000000180077150     LIBCMTD:mlock.obj
 0002:00006188       ??_C@_1CK@GELGGBDK@?$AAp?$AAN?$AAo?$AAd?$AAe?$AA?9?$AA?$DO?$AA_?$AAN?$AAe?$AAx?$AAt?$AA?5?$AA?$CB?$AA?$DN?$AA?5?$AAN?$AAU?$AAL?$AAL?$AA?$AA@ 0000000180077188     LIBCMTD:typname.obj
 0002:000061c0       ??_C@_1IA@CLCNOEMA@?$AAf?$AA?3?$AA?2?$AAd?$AAd?$AA?2?$AAv?$AAc?$AAt?$AAo?$AAo?$AAl?$AAs?$AA?2?$AAc?$AAr?$AAt?$AA_?$AAb?$AAl?$AAd?$AA?2?$AAs?$AAe?$AAl?$AAf?$AA_?$AA6?$AA4?$AA_?$AAa?$AAm@ 00000001800771c0     LIBCMTD:typname.obj
 0002:00006240       ??_C@_1CM@OOICDMK@?$AAt?$AAy?$AAp?$AAe?$AA_?$AAi?$AAn?$AAf?$AAo?$AA?3?$AA?3?$AA_?$AAN?$AAa?$AAm?$AAe?$AA_?$AAb?$AAa?$AAs?$AAe?$AA?$AA@ 0000000180077240     LIBCMTD:typname.obj
 0002:00006270       ??_C@_1JK@NAFNEPGC@?$AAs?$AAt?$AAr?$AAc?$AAp?$AAy?$AA_?$AAs?$AA?5?$AA?$CI?$AA?$CI?$AAc?$AAh?$AAa?$AAr?$AA?5?$AA?$CK?$AA?$CJ?$AA?$CI?$AA?$CI?$AAt?$AAy?$AAp?$AAe?$AA_?$AAi?$AAn?$AAf?$AAo?$AA?5?$AA?$CK?$AA?$CJ@ 0000000180077270     LIBCMTD:typname.obj
 0002:00006310       ??_C@_1DO@OJJLFJPE@?$AAt?$AAy?$AAp?$AAe?$AA_?$AAi?$AAn?$AAf?$AAo?$AA?3?$AA?3?$AA_?$AAN?$AAa?$AAm?$AAe?$AA_?$AAb?$AAa?$AAs?$AAe?$AA_?$AAi?$AAn?$AAt?$AAe?$AAr?$AAn?$AAa?$AAl?$AA?$AA@ 0000000180077310     LIBCMTD:typname.obj
 0002:00006350       ??_C@_1GI@EAJKJPED@?$AAs?$AAt?$AAr?$AAc?$AAp?$AAy?$AA_?$AAs?$AA?5?$AA?$CI?$AAp?$AAT?$AAm?$AAp?$AAT?$AAy?$AAp?$AAe?$AAN?$AAa?$AAm?$AAe?$AA?0?$AA?5?$AAl?$AAe?$AAn?$AA?$CL?$AA2?$AA?0?$AA?5?$AA?$CI@ 0000000180077350     LIBCMTD:typname.obj
 0002:000063c0       _XcptActTab                00000001800773c0     LIBCMTD:winxfltr.obj
 0002:00006480       _XcptActTabCount           0000000180077480     LIBCMTD:winxfltr.obj
 0002:00006484       _XcptActTabSize            0000000180077484     LIBCMTD:winxfltr.obj
 0002:00006488       _First_FPE_Indx            0000000180077488     LIBCMTD:winxfltr.obj
 0002:0000648c       _Num_FPE                   000000018007748c     LIBCMTD:winxfltr.obj
 0002:00006490       ??_C@_1BC@DENNNKIM@?$AA_?$AAc?$AAr?$AAt?$AAh?$AAe?$AAa?$AAp?$AA?$AA@ 0000000180077490     LIBCMTD:heapinit.obj
 0002:000064b0       ??_C@_1GO@EBGJMFI@?$AAf?$AA?3?$AA?2?$AAd?$AAd?$AA?2?$AAv?$AAc?$AAt?$AAo?$AAo?$AAl?$AAs?$AA?2?$AAc?$AAr?$AAt?$AA_?$AAb?$AAl?$AAd?$AA?2?$AAs?$AAe?$AAl?$AAf?$AA_?$AA6?$AA4?$AA_?$AAa?$AAm@ 00000001800774b0     LIBCMTD:heapinit.obj
 0002:00006520       ??_C@_0DF@MJBFINAE@f?3?2dd?2vctools?2crt_bld?2self_64_am@ 0000000180077520     LIBCMTD:ioinit.obj
 0002:00006558       ??_C@_0DG@CIKGHJB@f?3?2dd?2vctools?2crt_bld?2self_64_am@ 0000000180077558     LIBCMTD:stdargv.obj
 0002:00006590       ??_C@_0DG@PKDKGAIM@f?3?2dd?2vctools?2crt_bld?2self_64_am@ 0000000180077590     LIBCMTD:stdenvp.obj
 0002:000065d0       ??_C@_1GM@EPOINBMA@?$AAf?$AA?3?$AA?2?$AAd?$AAd?$AA?2?$AAv?$AAc?$AAt?$AAo?$AAo?$AAl?$AAs?$AA?2?$AAc?$AAr?$AAt?$AA_?$AAb?$AAl?$AAd?$AA?2?$AAs?$AAe?$AAl?$AAf?$AA_?$AA6?$AA4?$AA_?$AAa?$AAm@ 00000001800775d0     LIBCMTD:stdenvp.obj
 0002:00006640       ??_C@_1BC@GHMCNHHL@?$AA_?$AAs?$AAe?$AAt?$AAe?$AAn?$AAv?$AAp?$AA?$AA@ 0000000180077640     LIBCMTD:stdenvp.obj
 0002:00006658       ??_C@_1DE@MMOGFGHF@?$AAs?$AAt?$AAr?$AAc?$AAp?$AAy?$AA_?$AAs?$AA?$CI?$AA?$CK?$AAe?$AAn?$AAv?$AA?0?$AA?5?$AAc?$AAc?$AAh?$AAa?$AAr?$AAs?$AA?0?$AA?5?$AAp?$AA?$CJ?$AA?$AA@ 0000000180077658     LIBCMTD:stdenvp.obj
 0002:00006690       ??_C@_0DE@ONNEBBOK@f?3?2dd?2vctools?2crt_bld?2self_64_am@ 0000000180077690     LIBCMTD:a_env.obj
 0002:000066c8       ??_C@_0BE@JOGNEJCI@GetCurrentPackageId?$AA@ 00000001800776c8     LIBCMTD:winapisupp.obj
 0002:000066e0       ??_C@_1BK@MGMFAEKH@?$AAk?$AAe?$AAr?$AAn?$AAe?$AAl?$AA3?$AA2?$AA?4?$AAd?$AAl?$AAl?$AA?$AA@ 00000001800776e0     LIBCMTD:winapisupp.obj
 0002:00006700       ??_C@_1CK@GFDNDKK@?$AA_?$AAR?$AAa?$AAn?$AAd?$AAo?$AAm?$AAV?$AAa?$AAl?$AAu?$AAe?$AA?5?$AA?$CB?$AA?$DN?$AA?5?$AAN?$AAU?$AAL?$AAL?$AA?$AA@ 0000000180077700     LIBCMTD:rand_s.obj
 0002:00006730       ??_C@_1GK@BPOMKGBH@?$AAf?$AA?3?$AA?2?$AAd?$AAd?$AA?2?$AAv?$AAc?$AAt?$AAo?$AAo?$AAl?$AAs?$AA?2?$AAc?$AAr?$AAt?$AA_?$AAb?$AAl?$AAd?$AA?2?$AAs?$AAe?$AAl?$AAf?$AA_?$AA6?$AA4?$AA_?$AAa?$AAm@ 0000000180077730     LIBCMTD:rand_s.obj
 0002:000067a0       ??_C@_1O@IJGPPOGF@?$AAr?$AAa?$AAn?$AAd?$AA_?$AAs?$AA?$AA@ 00000001800777a0     LIBCMTD:rand_s.obj
 0002:000067b0       ??_C@_1BK@GAEMIDIL@?$AAA?$AAD?$AAV?$AAA?$AAP?$AAI?$AA3?$AA2?$AA?4?$AAD?$AAL?$AAL?$AA?$AA@ 00000001800777b0     LIBCMTD:rand_s.obj
 0002:000067d0       ??_C@_1GA@EBEDGGGB@?$AA?$CI?$AA?$CC?$AAr?$AAa?$AAn?$AAd?$AA_?$AAs?$AA?5?$AAi?$AAs?$AA?5?$AAn?$AAo?$AAt?$AA?5?$AAa?$AAv?$AAa?$AAi?$AAl?$AAa?$AAb?$AAl?$AAe?$AA?5?$AAo?$AAn?$AA?5?$AAt?$AAh?$AAi@ 00000001800777d0     LIBCMTD:rand_s.obj
 0002:00006830       ??_C@_0BC@JEAENNKH@SystemFunction036?$AA@ 0000000180077830     LIBCMTD:rand_s.obj
 0002:00006848       ??_C@_0DF@FDDLMKNK@f?3?2dd?2vctools?2crt_bld?2self_64_am@ 0000000180077848     LIBCMTD:winsig.obj
 0002:00006880       ??_C@_1DO@MLNEDKGB@?$AA?$CI?$AA?$CC?$AAI?$AAn?$AAv?$AAa?$AAl?$AAi?$AAd?$AA?5?$AAs?$AAi?$AAg?$AAn?$AAa?$AAl?$AA?5?$AAo?$AAr?$AA?5?$AAe?$AAr?$AAr?$AAo?$AAr?$AA?$CC?$AA?0?$AA?5?$AA0?$AA?$CJ?$AA?$AA@ 0000000180077880     LIBCMTD:winsig.obj
 0002:000068c0       ??_C@_1GK@GNJJJBGC@?$AAf?$AA?3?$AA?2?$AAd?$AAd?$AA?2?$AAv?$AAc?$AAt?$AAo?$AAo?$AAl?$AAs?$AA?2?$AAc?$AAr?$AAt?$AA_?$AAb?$AAl?$AAd?$AA?2?$AAs?$AAe?$AAl?$AAf?$AA_?$AA6?$AA4?$AA_?$AAa?$AAm@ 00000001800778c0     LIBCMTD:winsig.obj
 0002:00006930       ??_C@_1O@EJLDHPPL@?$AAs?$AAi?$AAg?$AAn?$AAa?$AAl?$AA?$AA@ 0000000180077930     LIBCMTD:winsig.obj
 0002:00006940       ??_C@_1M@DMJEIKHL@?$AAr?$AAa?$AAi?$AAs?$AAe?$AA?$AA@ 0000000180077940     LIBCMTD:winsig.obj
 0002:00006950       ??_C@_1GM@EPPIIABD@?$AAf?$AA?3?$AA?2?$AAd?$AAd?$AA?2?$AAv?$AAc?$AAt?$AAo?$AAo?$AAl?$AAs?$AA?2?$AAc?$AAr?$AAt?$AA_?$AAb?$AAl?$AAd?$AA?2?$AAs?$AAe?$AAl?$AAf?$AA_?$AA6?$AA4?$AA_?$AAa?$AAm@ 0000000180077950     LIBCMTD:_sftbuf.obj
 0002:000069c0       ??_C@_0DG@NKGMMPE@f?3?2dd?2vctools?2crt_bld?2self_64_am@ 00000001800779c0     LIBCMTD:_sftbuf.obj
 0002:000069f8       ??_C@_1CO@KCKAACMI@?$AAf?$AAl?$AAa?$AAg?$AA?5?$AA?$DN?$AA?$DN?$AA?5?$AA0?$AA?5?$AA?$HM?$AA?$HM?$AA?5?$AAf?$AAl?$AAa?$AAg?$AA?5?$AA?$DN?$AA?$DN?$AA?5?$AA1?$AA?$AA@ 00000001800779f8     LIBCMTD:_sftbuf.obj
 0002:00006a38       ??_C@_1BO@KFIJIAEA@?$AAp?$AAB?$AAl?$AAo?$AAc?$AAk?$AA?5?$AA?$CB?$AA?$DN?$AA?5?$AAN?$AAU?$AAL?$AAL?$AA?$AA@ 0000000180077a38     LIBCMTD:expand.obj
 0002:00006a60       ??_C@_1GK@CPPIAPOD@?$AAf?$AA?3?$AA?2?$AAd?$AAd?$AA?2?$AAv?$AAc?$AAt?$AAo?$AAo?$AAl?$AAs?$AA?2?$AAc?$AAr?$AAt?$AA_?$AAb?$AAl?$AAd?$AA?2?$AAs?$AAe?$AAl?$AAf?$AA_?$AA6?$AA4?$AA_?$AAa?$AAm@ 0000000180077a60     LIBCMTD:expand.obj
 0002:00006ad0       ??_C@_1BK@JMCGJOCC@?$AA_?$AAe?$AAx?$AAp?$AAa?$AAn?$AAd?$AA_?$AAb?$AAa?$AAs?$AAe?$AA?$AA@ 0000000180077ad0     LIBCMTD:expand.obj
 0002:00006b08       ??_C@_03KHICJKCI@?4?4?4?$AA@ 0000000180077b08     LIBCMTD:dbgrpt.obj
 0002:00006b10       ??_C@_1CG@GNMJDMIO@?$AA_?$AAC?$AAr?$AAt?$AAS?$AAe?$AAt?$AAR?$AAe?$AAp?$AAo?$AAr?$AAt?$AAH?$AAo?$AAo?$AAk?$AA2?$AA?$AA@ 0000000180077b10     LIBCMTD:dbgrpt.obj
 0002:00006b38       ??_C@_1CI@IDOKFLAJ@?$AA_?$AA_?$AAc?$AAr?$AAt?$AAM?$AAe?$AAs?$AAs?$AAa?$AAg?$AAe?$AAW?$AAi?$AAn?$AAd?$AAo?$AAw?$AAA?$AA?$AA@ 0000000180077b38     LIBCMTD:dbgrpt.obj
 0002:00006b60       ??_C@_1GG@DLDHOIGE@?$AAs?$AAt?$AAr?$AAc?$AAp?$AAy?$AA_?$AAs?$AA?$CI?$AAs?$AAz?$AAE?$AAx?$AAe?$AAN?$AAa?$AAm?$AAe?$AA?0?$AA?5?$AA2?$AA6?$AA0?$AA?0?$AA?5?$AA?$CC?$AA?$DM?$AAp?$AAr?$AAo?$AAg?$AAr@ 0000000180077b60     LIBCMTD:dbgrpt.obj
 0002:00006bc8       ??_C@_0BH@DNAGHKFM@?$DMprogram?5name?5unknown?$DO?$AA@ 0000000180077bc8     LIBCMTD:dbgrpt.obj
 0002:00006bdf       ??_C@_00CNPNBAHC@?$AA@     0000000180077bdf     LIBCMTD:dbgrpt.obj
 0002:00006be0       ??_C@_1LG@BEHAHJLI@?$AAD?$AAe?$AAb?$AAu?$AAg?$AA?5?$AA?$CF?$AAs?$AA?$CB?$AA?6?$AA?6?$AAP?$AAr?$AAo?$AAg?$AAr?$AAa?$AAm?$AA?3?$AA?5?$AA?$CF?$AAh?$AAs?$AA?$CF?$AAs?$AA?$CF?$AAs?$AA?$CF?$AAh?$AAs?$AA?$CF?$AAs@ 0000000180077be0     LIBCMTD:dbgrpt.obj
 0002:00006ca0       ??_C@_1GM@GFCCCIAA@?$AAf?$AA?3?$AA?2?$AAd?$AAd?$AA?2?$AAv?$AAc?$AAt?$AAo?$AAo?$AAl?$AAs?$AA?2?$AAc?$AAr?$AAt?$AA_?$AAb?$AAl?$AAd?$AA?2?$AAs?$AAe?$AAl?$AAf?$AA_?$AA6?$AA4?$AA_?$AAa?$AAm@ 0000000180077ca0     LIBCMTD:sprintf.obj
 0002:00006d10       ??_C@_1BA@KBJJGFFE@?$AAs?$AAp?$AAr?$AAi?$AAn?$AAt?$AAf?$AA?$AA@ 0000000180077d10     LIBCMTD:sprintf.obj
 0002:00006d20       ??_C@_0DE@PMGNLEO@f?3?2dd?2vctools?2crt_bld?2self_64_am@ 0000000180077d20     LIBCMTD:_file.obj
 0002:00006d60       ??_C@_1GK@JPBKPHOG@?$AAf?$AA?3?$AA?2?$AAd?$AAd?$AA?2?$AAv?$AAc?$AAt?$AAo?$AAo?$AAl?$AAs?$AA?2?$AAc?$AAr?$AAt?$AA_?$AAb?$AAl?$AAd?$AA?2?$AAs?$AAe?$AAl?$AAf?$AA_?$AA6?$AA4?$AA_?$AAa?$AAm@ 0000000180077d60     LIBCMTD:fileno.obj
 0002:00006dd0       ??_C@_1BA@JGHIEKKM@?$AA_?$AAf?$AAi?$AAl?$AAe?$AAn?$AAo?$AA?$AA@ 0000000180077dd0     LIBCMTD:fileno.obj
 0002:00006de0       ??_C@_1FO@LPCLHKGE@?$AA?$CI?$AAf?$AAh?$AA?5?$AA?$DO?$AA?$DN?$AA?5?$AA0?$AA?5?$AA?$CG?$AA?$CG?$AA?5?$AA?$CI?$AAu?$AAn?$AAs?$AAi?$AAg?$AAn?$AAe?$AAd?$AA?$CJ?$AAf?$AAh?$AA?5?$AA?$DM?$AA?5?$AA?$CI?$AAu?$AAn?$AAs?$AAi@ 0000000180077de0     LIBCMTD:isatty.obj
 0002:00006e40       ??_C@_1GK@NBOOCPHJ@?$AAf?$AA?3?$AA?2?$AAd?$AAd?$AA?2?$AAv?$AAc?$AAt?$AAo?$AAo?$AAl?$AAs?$AA?2?$AAc?$AAr?$AAt?$AA_?$AAb?$AAl?$AAd?$AA?2?$AAs?$AAe?$AAl?$AAf?$AA_?$AA6?$AA4?$AA_?$AAa?$AAm@ 0000000180077e40     LIBCMTD:isatty.obj
 0002:00006eb0       ??_C@_1BA@LEBDGIHM@?$AA_?$AAi?$AAs?$AAa?$AAt?$AAt?$AAy?$AA?$AA@ 0000000180077eb0     LIBCMTD:isatty.obj
 0002:00006ec0       ??_C@_1GI@JGDMGFHE@?$AAf?$AA?3?$AA?2?$AAd?$AAd?$AA?2?$AAv?$AAc?$AAt?$AAo?$AAo?$AAl?$AAs?$AA?2?$AAc?$AAr?$AAt?$AA_?$AAb?$AAl?$AAd?$AA?2?$AAs?$AAe?$AAl?$AAf?$AA_?$AA6?$AA4?$AA_?$AAa?$AAm@ 0000000180077ec0     LIBCMTD:write.obj
 0002:00006f28       ??_C@_1O@KOFKDHPL@?$AA_?$AAw?$AAr?$AAi?$AAt?$AAe?$AA?$AA@ 0000000180077f28     LIBCMTD:write.obj
 0002:00006f38       ??_C@_1CM@OKGMMMDH@?$AA?$CI?$AA_?$AAo?$AAs?$AAf?$AAi?$AAl?$AAe?$AA?$CI?$AAf?$AAh?$AA?$CJ?$AA?5?$AA?$CG?$AA?5?$AAF?$AAO?$AAP?$AAE?$AAN?$AA?$CJ?$AA?$AA@ 0000000180077f38     LIBCMTD:write.obj
 0002:00006f70       ??_C@_1JE@ECKHFIFP@?$AA?$CI?$AA?$CC?$AAI?$AAn?$AAv?$AAa?$AAl?$AAi?$AAd?$AA?5?$AAf?$AAi?$AAl?$AAe?$AA?5?$AAd?$AAe?$AAs?$AAc?$AAr?$AAi?$AAp?$AAt?$AAo?$AAr?$AA?4?$AA?5?$AAF?$AAi?$AAl?$AAe?$AA?5@ 0000000180077f70     LIBCMTD:write.obj
 0002:00007008       ??_C@_1BM@KFJLMBPG@?$AA?$CI?$AAb?$AAu?$AAf?$AA?5?$AA?$CB?$AA?$DN?$AA?5?$AAN?$AAU?$AAL?$AAL?$AA?$CJ?$AA?$AA@ 0000000180078008     LIBCMTD:write.obj
 0002:00007028       ??_C@_1BM@NCANHCIP@?$AA_?$AAw?$AAr?$AAi?$AAt?$AAe?$AA_?$AAn?$AAo?$AAl?$AAo?$AAc?$AAk?$AA?$AA@ 0000000180078028     LIBCMTD:write.obj
 0002:00007048       ??_C@_1CC@EEOLPHGO@?$AA?$CI?$AA?$CI?$AAc?$AAn?$AAt?$AA?5?$AA?$CG?$AA?5?$AA1?$AA?$CJ?$AA?5?$AA?$DN?$AA?$DN?$AA?5?$AA0?$AA?$CJ?$AA?$AA@ 0000000180078048     LIBCMTD:write.obj
 0002:00007070       ??_C@_1DI@CNMHHHLG@?$AAi?$AAs?$AAl?$AAe?$AAa?$AAd?$AAb?$AAy?$AAt?$AAe?$AA?$CI?$AA_?$AAd?$AAb?$AAc?$AAs?$AAB?$AAu?$AAf?$AAf?$AAe?$AAr?$AA?$CI?$AAf?$AAh?$AA?$CJ?$AA?$CJ?$AA?$AA@ 0000000180078070     LIBCMTD:write.obj
 0002:000070b0       ??_C@_1GO@FPPADPCM@?$AAf?$AA?3?$AA?2?$AAd?$AAd?$AA?2?$AAv?$AAc?$AAt?$AAo?$AAo?$AAl?$AAs?$AA?2?$AAc?$AAr?$AAt?$AA_?$AAb?$AAl?$AAd?$AA?2?$AAs?$AAe?$AAl?$AAf?$AA_?$AA6?$AA4?$AA_?$AAa?$AAm@ 00000001800780b0     LIBCMTD:lseeki64.obj
 0002:00007120       ??_C@_1BE@KHFBJMNM@?$AA_?$AAl?$AAs?$AAe?$AAe?$AAk?$AAi?$AA6?$AA4?$AA?$AA@ 0000000180078120     LIBCMTD:lseeki64.obj
 0002:00007140       ??_C@_1GM@EDDLLPPP@?$AAf?$AA?3?$AA?2?$AAd?$AAd?$AA?2?$AAv?$AAc?$AAt?$AAo?$AAo?$AAl?$AAs?$AA?2?$AAc?$AAr?$AAt?$AA_?$AAb?$AAl?$AAd?$AA?2?$AAs?$AAe?$AAl?$AAf?$AA_?$AA6?$AA4?$AA_?$AAa?$AAm@ 0000000180078140     LIBCMTD:_getbuf.obj
 0002:000071b0       ??_C@_0DG@HCAFNIGK@f?3?2dd?2vctools?2crt_bld?2self_64_am@ 00000001800781b0     LIBCMTD:_getbuf.obj
 0002:000071e8       ??_C@_1BI@GKKCBDMD@?$AAd?$AAs?$AAt?$AA?5?$AA?$CB?$AA?$DN?$AA?5?$AAN?$AAU?$AAL?$AAL?$AA?$AA@ 00000001800781e8     LIBCMTD:memcpy_s.obj
 0002:00007200       ??_C@_1GO@EDMFKEMH@?$AAf?$AA?3?$AA?2?$AAd?$AAd?$AA?2?$AAv?$AAc?$AAt?$AAo?$AAo?$AAl?$AAs?$AA?2?$AAc?$AAr?$AAt?$AA_?$AAb?$AAl?$AAd?$AA?2?$AAs?$AAe?$AAl?$AAf?$AA_?$AA6?$AA4?$AA_?$AAa?$AAm@ 0000000180078200     LIBCMTD:memcpy_s.obj
 0002:00007270       ??_C@_1BC@GKHDJMGB@?$AAm?$AAe?$AAm?$AAc?$AAp?$AAy?$AA_?$AAs?$AA?$AA@ 0000000180078270     LIBCMTD:memcpy_s.obj
 0002:00007288       ??_C@_1BI@DCHLDCPP@?$AAs?$AAr?$AAc?$AA?5?$AA?$CB?$AA?$DN?$AA?5?$AAN?$AAU?$AAL?$AAL?$AA?$AA@ 0000000180078288     LIBCMTD:memcpy_s.obj
 0002:000072a0       ??_C@_1CK@DDKKOLAN@?$AAs?$AAi?$AAz?$AAe?$AAI?$AAn?$AAB?$AAy?$AAt?$AAe?$AAs?$AA?5?$AA?$DO?$AA?$DN?$AA?5?$AAc?$AAo?$AAu?$AAn?$AAt?$AA?$AA@ 00000001800782a0     LIBCMTD:memcpy_s.obj
 0002:000072d0       ??_C@_1FC@PFMLEHKI@?$AA?$CI?$AA?$CI?$AA_?$AAD?$AAs?$AAt?$AA?$CJ?$AA?$CJ?$AA?5?$AA?$CB?$AA?$DN?$AA?5?$AAN?$AAU?$AAL?$AAL?$AA?5?$AA?$CG?$AA?$CG?$AA?5?$AA?$CI?$AA?$CI?$AA_?$AAS?$AAi?$AAz?$AAe?$AAI?$AAn?$AAW?$AAo?$AAr@ 00000001800782d0     LIBCMTD:wcscpy_s.obj
 0002:00007330       ??_C@_1HC@HEGDJOLJ@?$AAf?$AA?3?$AA?2?$AAd?$AAd?$AA?2?$AAv?$AAc?$AAt?$AAo?$AAo?$AAl?$AAs?$AA?2?$AAc?$AAr?$AAt?$AA_?$AAb?$AAl?$AAd?$AA?2?$AAs?$AAe?$AAl?$AAf?$AA_?$AA6?$AA4?$AA_?$AAa?$AAm@ 0000000180078330     LIBCMTD:wcscpy_s.obj
 0002:000073a8       ??_C@_1BC@KIONAFPO@?$AAw?$AAc?$AAs?$AAc?$AAp?$AAy?$AA_?$AAs?$AA?$AA@ 00000001800783a8     LIBCMTD:wcscpy_s.obj
 0002:000073c0       ??_C@_1GO@KNENHDGE@?$AAf?$AA?3?$AA?2?$AAd?$AAd?$AA?2?$AAv?$AAc?$AAt?$AAo?$AAo?$AAl?$AAs?$AA?2?$AAc?$AAr?$AAt?$AA_?$AAb?$AAl?$AAd?$AA?2?$AAs?$AAe?$AAl?$AAf?$AA_?$AA6?$AA4?$AA_?$AAa?$AAm@ 00000001800783c0     LIBCMTD:swprintf.obj
 0002:00007430       ??_C@_1BE@BMIJMLDD@?$AA_?$AAs?$AAw?$AAp?$AAr?$AAi?$AAn?$AAt?$AAf?$AA?$AA@ 0000000180078430     LIBCMTD:swprintf.obj
 0002:00007448       ??_C@_1BG@GOEBHBDC@?$AAU?$AAS?$AAE?$AAR?$AA3?$AA2?$AA?4?$AAD?$AAL?$AAL?$AA?$AA@ 0000000180078448     LIBCMTD:crtmboxw.obj
 0002:00007460       ??_C@_0M@DLDCCGNP@MessageBoxW?$AA@ 0000000180078460     LIBCMTD:crtmboxw.obj
 0002:00007470       ??_C@_0BA@HNOPNCHB@GetActiveWindow?$AA@ 0000000180078470     LIBCMTD:crtmboxw.obj
 0002:00007480       ??_C@_0BD@HHGDFDBJ@GetLastActivePopup?$AA@ 0000000180078480     LIBCMTD:crtmboxw.obj
 0002:00007498       ??_C@_0BK@DEKFELLI@GetUserObjectInformationW?$AA@ 0000000180078498     LIBCMTD:crtmboxw.obj
 0002:000074b8       ??_C@_0BI@DFKBFLJE@GetProcessWindowStation?$AA@ 00000001800784b8     LIBCMTD:crtmboxw.obj
 0002:000074d0       ??_C@_1FA@IFFFOLDJ@?$AAn?$AAR?$AAp?$AAt?$AAT?$AAy?$AAp?$AAe?$AA?5?$AA?$DO?$AA?$DN?$AA?5?$AA0?$AA?5?$AA?$CG?$AA?$CG?$AA?5?$AAn?$AAR?$AAp?$AAt?$AAT?$AAy?$AAp?$AAe?$AA?5?$AA?$DM?$AA?5?$AA_?$AAC?$AAR?$AAT@ 00000001800784d0     LIBCMTD:dbgrptt.obj
 0002:00007520       ??_C@_1GM@CBJEPOJA@?$AAf?$AA?3?$AA?2?$AAd?$AAd?$AA?2?$AAv?$AAc?$AAt?$AAo?$AAo?$AAl?$AAs?$AA?2?$AAc?$AAr?$AAt?$AA_?$AAb?$AAl?$AAd?$AA?2?$AAs?$AAe?$AAl?$AAf?$AA_?$AA6?$AA4?$AA_?$AAa?$AAm@ 0000000180078520     LIBCMTD:dbgrptt.obj
 0002:00007590       ??_C@_1CE@FIHIECNJ@?$AA_?$AAC?$AAr?$AAt?$AAS?$AAe?$AAt?$AAR?$AAe?$AAp?$AAo?$AAr?$AAt?$AAM?$AAo?$AAd?$AAe?$AA?$AA@ 0000000180078590     LIBCMTD:dbgrptt.obj
 0002:000075c0       ??_C@_1NK@LOFHIHFC@?$AAf?$AAM?$AAo?$AAd?$AAe?$AA?5?$AA?$DN?$AA?$DN?$AA?5?$AA_?$AAC?$AAR?$AAT?$AAD?$AAB?$AAG?$AA_?$AAR?$AAE?$AAP?$AAO?$AAR?$AAT?$AA_?$AAM?$AAO?$AAD?$AAE?$AA?5?$AA?$HM?$AA?$HM?$AA?5@ 00000001800785c0     LIBCMTD:dbgrptt.obj
 0002:000076a0       ??_C@_1CE@IKKEDCME@?$AA_?$AAC?$AAr?$AAt?$AAS?$AAe?$AAt?$AAR?$AAe?$AAp?$AAo?$AAr?$AAt?$AAF?$AAi?$AAl?$AAe?$AA?$AA@ 00000001800786a0     LIBCMTD:dbgrptt.obj
 0002:000076c8       ??_C@_1CA@KHJHLKA@?$AA_?$AAV?$AAC?$AAr?$AAt?$AAD?$AAb?$AAg?$AAR?$AAe?$AAp?$AAo?$AAr?$AAt?$AAA?$AA?$AA@ 00000001800786c8     LIBCMTD:dbgrptt.obj
 0002:000076f0       ??_C@_1FA@JPHJBHEM@?$AA_?$AAi?$AAt?$AAo?$AAa?$AA_?$AAs?$AA?$CI?$AAn?$AAL?$AAi?$AAn?$AAe?$AA?0?$AA?5?$AAs?$AAz?$AAL?$AAi?$AAn?$AAe?$AAM?$AAe?$AAs?$AAs?$AAa?$AAg?$AAe?$AA?0?$AA?5?$AA4?$AA0@ 00000001800786f0     LIBCMTD:dbgrptt.obj
 0002:00007740       ??_C@_0CG@BNGLOCEO@Second?5Chance?5Assertion?5Failed?3?5@ 0000000180078740     LIBCMTD:dbgrptt.obj
 0002:00007768       ??_C@_0P@DFJNDPOP@?$DMfile?5unknown?$DO?$AA@ 0000000180078768     LIBCMTD:dbgrptt.obj
 0002:00007778       ??_C@_07BHGABMGB@?0?5Line?5?$AA@ 0000000180078778     LIBCMTD:dbgrptt.obj
 0002:00007780       ??_C@_01EEMJAFIK@?6?$AA@   0000000180078780     LIBCMTD:dbgrptt.obj
 0002:00007790       ??_C@_1JI@GAALPGBM@?$AAs?$AAt?$AAr?$AAc?$AAp?$AAy?$AA_?$AAs?$AA?$CI?$AAs?$AAz?$AAU?$AAs?$AAe?$AAr?$AAM?$AAe?$AAs?$AAs?$AAa?$AAg?$AAe?$AA?0?$AA?5?$AA4?$AA0?$AA9?$AA6?$AA?0?$AA?5?$AA?$CC?$AA_@ 0000000180078790     LIBCMTD:dbgrptt.obj
 0002:00007828       ??_C@_0CL@EACFGMNB@_CrtDbgReport?3?5String?5too?5long?5o@ 0000000180078828     LIBCMTD:dbgrptt.obj
 0002:00007860       ??_C@_1KK@GIGAEDMO@?$AAs?$AAt?$AAr?$AAc?$AAp?$AAy?$AA_?$AAs?$AA?$CI?$AAs?$AAz?$AAL?$AAi?$AAn?$AAe?$AAM?$AAe?$AAs?$AAs?$AAa?$AAg?$AAe?$AA?0?$AA?5?$AA4?$AA0?$AA9?$AA6?$AA?0?$AA?5?$AAs?$AAz@ 0000000180078860     LIBCMTD:dbgrptt.obj
 0002:00007910       ??_C@_0BD@CAENFOHP@Assertion?5failed?3?5?$AA@ 0000000180078910     LIBCMTD:dbgrptt.obj
 0002:00007928       ??_C@_0BC@LAIDCHCH@Assertion?5failed?$CB?$AA@ 0000000180078928     LIBCMTD:dbgrptt.obj
 0002:00007940       ??_C@_1FK@NPGBPOFO@?$AAs?$AAt?$AAr?$AAc?$AAa?$AAt?$AA_?$AAs?$AA?$CI?$AAs?$AAz?$AAL?$AAi?$AAn?$AAe?$AAM?$AAe?$AAs?$AAs?$AAa?$AAg?$AAe?$AA?0?$AA?5?$AA4?$AA0?$AA9?$AA6?$AA?0?$AA?5?$AAs?$AAz@ 0000000180078940     LIBCMTD:dbgrptt.obj
 0002:000079a0       ??_C@_1EI@CACDLAFK@?$AAs?$AAt?$AAr?$AAc?$AAa?$AAt?$AA_?$AAs?$AA?$CI?$AAs?$AAz?$AAL?$AAi?$AAn?$AAe?$AAM?$AAe?$AAs?$AAs?$AAa?$AAg?$AAe?$AA?0?$AA?5?$AA4?$AA0?$AA9?$AA6?$AA?0?$AA?5?$AA?$CC?$AA?2@ 00000001800789a0     LIBCMTD:dbgrptt.obj
 0002:000079e8       ??_C@_01LIIJDEN@?$AN?$AA@  00000001800789e8     LIBCMTD:dbgrptt.obj
 0002:000079f0       ??_C@_1EI@LDHJEDO@?$AAs?$AAt?$AAr?$AAc?$AAa?$AAt?$AA_?$AAs?$AA?$CI?$AAs?$AAz?$AAL?$AAi?$AAn?$AAe?$AAM?$AAe?$AAs?$AAs?$AAa?$AAg?$AAe?$AA?0?$AA?5?$AA4?$AA0?$AA9?$AA6?$AA?0?$AA?5?$AA?$CC?$AA?2@ 00000001800789f0     LIBCMTD:dbgrptt.obj
 0002:00007a38       ??_C@_0M@IPILFDFN@?$CFs?$CI?$CFd?$CJ?5?3?5?$CFs?$AA@ 0000000180078a38     LIBCMTD:dbgrptt.obj
 0002:00007a50       ??_C@_1JG@CPKCIOEE@?$AAs?$AAt?$AAr?$AAc?$AAp?$AAy?$AA_?$AAs?$AA?$CI?$AAs?$AAz?$AAO?$AAu?$AAt?$AAM?$AAe?$AAs?$AAs?$AAa?$AAg?$AAe?$AA?0?$AA?5?$AA4?$AA0?$AA9?$AA6?$AA?0?$AA?5?$AA?$CC?$AA_?$AAC@ 0000000180078a50     LIBCMTD:dbgrptt.obj
 0002:00007af0       ??_C@_1FI@IBIOIHEG@?$AAs?$AAt?$AAr?$AAc?$AAp?$AAy?$AA_?$AAs?$AA?$CI?$AAs?$AAz?$AAO?$AAu?$AAt?$AAM?$AAe?$AAs?$AAs?$AAa?$AAg?$AAe?$AA?0?$AA?5?$AA4?$AA0?$AA9?$AA6?$AA?0?$AA?5?$AAs?$AAz?$AAL@ 0000000180078af0     LIBCMTD:dbgrptt.obj
 0002:00007b50       ??_C@_1IM@OOKIFKOH@?$AAe?$AA?5?$AA?$DN?$AA?5?$AAm?$AAb?$AAs?$AAt?$AAo?$AAw?$AAc?$AAs?$AA_?$AAs?$AA?$CI?$AA?$CG?$AAr?$AAe?$AAt?$AA?0?$AA?5?$AAs?$AAz?$AAO?$AAu?$AAt?$AAM?$AAe?$AAs?$AAs?$AAa?$AAg@ 0000000180078b50     LIBCMTD:dbgrptt.obj
 0002:00007be0       ??_C@_1MC@IGEECMDB@?$AAw?$AAc?$AAs?$AAc?$AAp?$AAy?$AA_?$AAs?$AA?$CI?$AAs?$AAz?$AAO?$AAu?$AAt?$AAM?$AAe?$AAs?$AAs?$AAa?$AAg?$AAe?$AA2?$AA?0?$AA?5?$AA4?$AA0?$AA9?$AA6?$AA?0?$AA?5?$AAL?$AA?$CC@ 0000000180078be0     LIBCMTD:dbgrptt.obj
 0002:00007cb0       ??_C@_1HO@PJOFIKFE@?$AA_?$AAC?$AAr?$AAt?$AAD?$AAb?$AAg?$AAR?$AAe?$AAp?$AAo?$AAr?$AAt?$AA?3?$AA?5?$AAS?$AAt?$AAr?$AAi?$AAn?$AAg?$AA?5?$AAt?$AAo?$AAo?$AA?5?$AAl?$AAo?$AAn?$AAg?$AA?5?$AAo@ 0000000180078cb0     LIBCMTD:dbgrptt.obj
 0002:00007d30       ??_C@_1CA@HPALHDOD@?$AA_?$AAV?$AAC?$AAr?$AAt?$AAD?$AAb?$AAg?$AAR?$AAe?$AAp?$AAo?$AAr?$AAt?$AAW?$AA?$AA@ 0000000180078d30     LIBCMTD:dbgrptt.obj
 0002:00007d50       ??_C@_1FA@CNLLOMHI@?$AA_?$AAi?$AAt?$AAo?$AAw?$AA_?$AAs?$AA?$CI?$AAn?$AAL?$AAi?$AAn?$AAe?$AA?0?$AA?5?$AAs?$AAz?$AAL?$AAi?$AAn?$AAe?$AAM?$AAe?$AAs?$AAs?$AAa?$AAg?$AAe?$AA?0?$AA?5?$AA4?$AA0@ 0000000180078d50     LIBCMTD:dbgrptt.obj
 0002:00007da0       ??_C@_1EM@MJFLEDMB@?$AAS?$AAe?$AAc?$AAo?$AAn?$AAd?$AA?5?$AAC?$AAh?$AAa?$AAn?$AAc?$AAe?$AA?5?$AAA?$AAs?$AAs?$AAe?$AAr?$AAt?$AAi?$AAo?$AAn?$AA?5?$AAF?$AAa?$AAi?$AAl?$AAe?$AAd?$AA?3?$AA?5@ 0000000180078da0     LIBCMTD:dbgrptt.obj
 0002:00007df0       ??_C@_1BO@OCHMLCAG@?$AA?$DM?$AAf?$AAi?$AAl?$AAe?$AA?5?$AAu?$AAn?$AAk?$AAn?$AAo?$AAw?$AAn?$AA?$DO?$AA?$AA@ 0000000180078df0     LIBCMTD:dbgrptt.obj
 0002:00007e10       ??_C@_1BA@ELMMDCFC@?$AA?0?$AA?5?$AAL?$AAi?$AAn?$AAe?$AA?5?$AA?$AA@ 0000000180078e10     LIBCMTD:dbgrptt.obj
 0002:00007e20       ??_C@_13LBAGMAIH@?$AA?6?$AA?$AA@ 0000000180078e20     LIBCMTD:dbgrptt.obj
 0002:00007e30       ??_C@_1JK@KHFABAEO@?$AAw?$AAc?$AAs?$AAc?$AAp?$AAy?$AA_?$AAs?$AA?$CI?$AAs?$AAz?$AAU?$AAs?$AAe?$AAr?$AAM?$AAe?$AAs?$AAs?$AAa?$AAg?$AAe?$AA?0?$AA?5?$AA4?$AA0?$AA9?$AA6?$AA?0?$AA?5?$AAL?$AA?$CC@ 0000000180078e30     LIBCMTD:dbgrptt.obj
 0002:00007ed0       ??_C@_1KO@DGAHENCH@?$AAw?$AAc?$AAs?$AAc?$AAp?$AAy?$AA_?$AAs?$AA?$CI?$AAs?$AAz?$AAL?$AAi?$AAn?$AAe?$AAM?$AAe?$AAs?$AAs?$AAa?$AAg?$AAe?$AA?0?$AA?5?$AA4?$AA0?$AA9?$AA6?$AA?0?$AA?5?$AAs?$AAz@ 0000000180078ed0     LIBCMTD:dbgrptt.obj
 0002:00007f80       ??_C@_1CG@FFFGGODN@?$AAA?$AAs?$AAs?$AAe?$AAr?$AAt?$AAi?$AAo?$AAn?$AA?5?$AAf?$AAa?$AAi?$AAl?$AAe?$AAd?$AA?3?$AA?5?$AA?$AA@ 0000000180078f80     LIBCMTD:dbgrptt.obj
 0002:00007fa8       ??_C@_1CE@OJBNHDMO@?$AAA?$AAs?$AAs?$AAe?$AAr?$AAt?$AAi?$AAo?$AAn?$AA?5?$AAf?$AAa?$AAi?$AAl?$AAe?$AAd?$AA?$CB?$AA?$AA@ 0000000180078fa8     LIBCMTD:dbgrptt.obj
 0002:00007fd0       ??_C@_1FK@HPADHBBD@?$AAw?$AAc?$AAs?$AAc?$AAa?$AAt?$AA_?$AAs?$AA?$CI?$AAs?$AAz?$AAL?$AAi?$AAn?$AAe?$AAM?$AAe?$AAs?$AAs?$AAa?$AAg?$AAe?$AA?0?$AA?5?$AA4?$AA0?$AA9?$AA6?$AA?0?$AA?5?$AAs?$AAz@ 0000000180078fd0     LIBCMTD:dbgrptt.obj
 0002:00008030       ??_C@_1EK@NMDFGHMF@?$AAw?$AAc?$AAs?$AAc?$AAa?$AAt?$AA_?$AAs?$AA?$CI?$AAs?$AAz?$AAL?$AAi?$AAn?$AAe?$AAM?$AAe?$AAs?$AAs?$AAa?$AAg?$AAe?$AA?0?$AA?5?$AA4?$AA0?$AA9?$AA6?$AA?0?$AA?5?$AAL?$AA?$CC@ 0000000180079030     LIBCMTD:dbgrptt.obj
 0002:0000807c       ??_C@_13CMNBPIDO@?$AA?$AN?$AA?$AA@ 000000018007907c     LIBCMTD:dbgrptt.obj
 0002:00008080       ??_C@_1EK@PHCBEDKB@?$AAw?$AAc?$AAs?$AAc?$AAa?$AAt?$AA_?$AAs?$AA?$CI?$AAs?$AAz?$AAL?$AAi?$AAn?$AAe?$AAM?$AAe?$AAs?$AAs?$AAa?$AAg?$AAe?$AA?0?$AA?5?$AA4?$AA0?$AA9?$AA6?$AA?0?$AA?5?$AAL?$AA?$CC@ 0000000180079080     LIBCMTD:dbgrptt.obj
 0002:000080d0       ??_C@_1BI@JIDBEPIG@?$AA?$CF?$AAs?$AA?$CI?$AA?$CF?$AAd?$AA?$CJ?$AA?5?$AA?3?$AA?5?$AA?$CF?$AAs?$AA?$AA@ 00000001800790d0     LIBCMTD:dbgrptt.obj
 0002:000080f0       ??_C@_1FI@DBAIJPJE@?$AAw?$AAc?$AAs?$AAc?$AAp?$AAy?$AA_?$AAs?$AA?$CI?$AAs?$AAz?$AAO?$AAu?$AAt?$AAM?$AAe?$AAs?$AAs?$AAa?$AAg?$AAe?$AA?0?$AA?5?$AA4?$AA0?$AA9?$AA6?$AA?0?$AA?5?$AAs?$AAz?$AAL@ 00000001800790f0     LIBCMTD:dbgrptt.obj
 0002:00008150       ??_C@_1JC@EOAPFDLN@?$AAw?$AAc?$AAs?$AAt?$AAo?$AAm?$AAb?$AAs?$AA_?$AAs?$AA?$CI?$AA?$CI?$AA?$CI?$AAv?$AAo?$AAi?$AAd?$AA?5?$AA?$CK?$AA?$CJ?$AA0?$AA?$CJ?$AA?0?$AA?5?$AAs?$AAz?$AAO?$AAu?$AAt?$AAM?$AAe?$AAs@ 0000000180079150     LIBCMTD:dbgrptt.obj
 0002:000081f0       ??_C@_1MA@LBAMNNOB@?$AAs?$AAt?$AAr?$AAc?$AAp?$AAy?$AA_?$AAs?$AA?$CI?$AAs?$AAz?$AAO?$AAu?$AAt?$AAM?$AAe?$AAs?$AAs?$AAa?$AAg?$AAe?$AA2?$AA?0?$AA?5?$AA4?$AA0?$AA9?$AA6?$AA?0?$AA?5?$AA?$CC?$AA_@ 00000001800791f0     LIBCMTD:dbgrptt.obj
 0002:000082b0       ??_C@_0DP@GNPEPHJD@_CrtDbgReport?3?5String?5too?5long?5o@ 00000001800792b0     LIBCMTD:dbgrptt.obj
 0002:000082f0       ??_C@_1IE@CPGKIAGP@?$AAw?$AAc?$AAs?$AAt?$AAo?$AAm?$AAb?$AAs?$AA_?$AAs?$AA?$CI?$AA?$CG?$AAr?$AAe?$AAt?$AA?0?$AA?5?$AAs?$AAz?$AAa?$AAO?$AAu?$AAt?$AAM?$AAe?$AAs?$AAs?$AAa?$AAg?$AAe?$AA?0?$AA?5@ 00000001800792f0     LIBCMTD:dbgrptt.obj
 0002:00008380       ??_C@_1GK@NJMLMCDB@?$AAf?$AA?3?$AA?2?$AAd?$AAd?$AA?2?$AAv?$AAc?$AAt?$AAo?$AAo?$AAl?$AAs?$AA?2?$AAc?$AAr?$AAt?$AA_?$AAb?$AAl?$AAd?$AA?2?$AAs?$AAe?$AAl?$AAf?$AA_?$AA6?$AA4?$AA_?$AAa?$AAm@ 0000000180079380     LIBCMTD:printf.obj
 0002:000083f0       ??_C@_1O@GKDHFACN@?$AAp?$AAr?$AAi?$AAn?$AAt?$AAf?$AA?$AA@ 00000001800793f0     LIBCMTD:printf.obj
 0002:00008400       ??_C@_1CO@HFMIILNF@?$AAs?$AAi?$AAz?$AAe?$AAI?$AAn?$AAB?$AAy?$AAt?$AAe?$AAs?$AA?5?$AA?$DM?$AA?$DN?$AA?5?$AAI?$AAN?$AAT?$AA_?$AAM?$AAA?$AAX?$AA?$AA@ 0000000180079400     LIBCMTD:wctomb.obj
 0002:00008430       ??_C@_1GK@GFLGMDNK@?$AAf?$AA?3?$AA?2?$AAd?$AAd?$AA?2?$AAv?$AAc?$AAt?$AAo?$AAo?$AAl?$AAs?$AA?2?$AAc?$AAr?$AAt?$AA_?$AAb?$AAl?$AAd?$AA?2?$AAs?$AAe?$AAl?$AAf?$AA_?$AA6?$AA4?$AA_?$AAa?$AAm@ 0000000180079430     LIBCMTD:wctomb.obj
 0002:000084a0       ??_C@_1BI@IEADNOHF@?$AA_?$AAw?$AAc?$AAt?$AAo?$AAm?$AAb?$AA_?$AAs?$AA_?$AAl?$AA?$AA@ 00000001800794a0     LIBCMTD:wctomb.obj
 0002:000084b8       ??_C@_0DG@PCFGJMBI@f?3?2dd?2vctools?2crt_bld?2self_64_am@ 00000001800794b8     LIBCMTD:initmon.obj
 0002:000084f0       ??_C@_1DM@GKAPAMDO@?$AAp?$AAl?$AAo?$AAc?$AAi?$AA?9?$AA?$DO?$AAl?$AAc?$AAo?$AAn?$AAv?$AA_?$AAm?$AAo?$AAn?$AA_?$AAr?$AAe?$AAf?$AAc?$AAo?$AAu?$AAn?$AAt?$AA?5?$AA?$DO?$AA?5?$AA0?$AA?$AA@ 00000001800794f0     LIBCMTD:initmon.obj
 0002:00008530       ??_C@_1GM@PDPOIHME@?$AAf?$AA?3?$AA?2?$AAd?$AAd?$AA?2?$AAv?$AAc?$AAt?$AAo?$AAo?$AAl?$AAs?$AA?2?$AAc?$AAr?$AAt?$AA_?$AAb?$AAl?$AAd?$AA?2?$AAs?$AAe?$AAl?$AAf?$AA_?$AA6?$AA4?$AA_?$AAa?$AAm@ 0000000180079530     LIBCMTD:initmon.obj
 0002:000085a0       ??_C@_0DG@EMCHMOHL@f?3?2dd?2vctools?2crt_bld?2self_64_am@ 00000001800795a0     LIBCMTD:initnum.obj
 0002:000085d8       ??_C@_1DM@IFKAINNE@?$AAp?$AAl?$AAo?$AAc?$AAi?$AA?9?$AA?$DO?$AAl?$AAc?$AAo?$AAn?$AAv?$AA_?$AAn?$AAu?$AAm?$AA_?$AAr?$AAe?$AAf?$AAc?$AAo?$AAu?$AAn?$AAt?$AA?5?$AA?$DO?$AA?5?$AA0?$AA?$AA@ 00000001800795d8     LIBCMTD:initnum.obj
 0002:00008620       ??_C@_1GM@DKGDEDPG@?$AAf?$AA?3?$AA?2?$AAd?$AAd?$AA?2?$AAv?$AAc?$AAt?$AAo?$AAo?$AAl?$AAs?$AA?2?$AAc?$AAr?$AAt?$AA_?$AAb?$AAl?$AAd?$AA?2?$AAs?$AAe?$AAl?$AAf?$AA_?$AA6?$AA4?$AA_?$AAa?$AAm@ 0000000180079620     LIBCMTD:initnum.obj
 0002:00008690       ??_C@_0DH@KKGHHNB@f?3?2dd?2vctools?2crt_bld?2self_64_am@ 0000000180079690     LIBCMTD:inittime.obj
 0002:000086d0       ??_C@_1EE@FDHCFDHN@?$AAp?$AAl?$AAo?$AAc?$AAi?$AA?9?$AA?$DO?$AAl?$AAc?$AA_?$AAt?$AAi?$AAm?$AAe?$AA_?$AAc?$AAu?$AAr?$AAr?$AA?9?$AA?$DO?$AAr?$AAe?$AAf?$AAc?$AAo?$AAu?$AAn?$AAt?$AA?5?$AA?$DO?$AA?5@ 00000001800796d0     LIBCMTD:inittime.obj
 0002:00008720       ??_C@_1GO@POAGLFBM@?$AAf?$AA?3?$AA?2?$AAd?$AAd?$AA?2?$AAv?$AAc?$AAt?$AAo?$AAo?$AAl?$AAs?$AA?2?$AAc?$AAr?$AAt?$AA_?$AAb?$AAl?$AAd?$AA?2?$AAs?$AAe?$AAl?$AAf?$AA_?$AA6?$AA4?$AA_?$AAa?$AAm@ 0000000180079720     LIBCMTD:inittime.obj
 0002:00008790       ??_C@_1FE@KNPCCODH@?$AA?$CI?$AA?$CC?$AAC?$AAo?$AAr?$AAr?$AAu?$AAp?$AAt?$AAe?$AAd?$AA?5?$AAp?$AAo?$AAi?$AAn?$AAt?$AAe?$AAr?$AA?5?$AAp?$AAa?$AAs?$AAs?$AAe?$AAd?$AA?5?$AAt?$AAo?$AA?5?$AA_?$AAf@ 0000000180079790     LIBCMTD:a_map.obj
 0002:000087f0       ??_C@_1GK@ODBLNICG@?$AAf?$AA?3?$AA?2?$AAd?$AAd?$AA?2?$AAv?$AAc?$AAt?$AAo?$AAo?$AAl?$AAs?$AA?2?$AAc?$AAr?$AAt?$AA_?$AAb?$AAl?$AAd?$AA?2?$AAs?$AAe?$AAl?$AAf?$AA_?$AA6?$AA4?$AA_?$AAa?$AAm@ 00000001800797f0     LIBCMTD:a_map.obj
 0002:00008900       __lc_category              0000000180079900     LIBCMTD:wsetloca.obj
 0002:00008990       ??_C@_1O@GIFLHMA@?$AAL?$AAC?$AA_?$AAA?$AAL?$AAL?$AA?$AA@ 0000000180079990     LIBCMTD:wsetloca.obj
 0002:000089a0       ??_C@_1BG@PPOMIBNJ@?$AAL?$AAC?$AA_?$AAC?$AAO?$AAL?$AAL?$AAA?$AAT?$AAE?$AA?$AA@ 00000001800799a0     LIBCMTD:wsetloca.obj
 0002:000089b8       ??_C@_1BC@FFJGAPJM@?$AAL?$AAC?$AA_?$AAC?$AAT?$AAY?$AAP?$AAE?$AA?$AA@ 00000001800799b8     LIBCMTD:wsetloca.obj
 0002:000089d0       ??_C@_1BI@PCKFNJFB@?$AAL?$AAC?$AA_?$AAM?$AAO?$AAN?$AAE?$AAT?$AAA?$AAR?$AAY?$AA?$AA@ 00000001800799d0     LIBCMTD:wsetloca.obj
 0002:000089e8       ??_C@_1BG@ENIEDKID@?$AAL?$AAC?$AA_?$AAN?$AAU?$AAM?$AAE?$AAR?$AAI?$AAC?$AA?$AA@ 00000001800799e8     LIBCMTD:wsetloca.obj
 0002:00008a00       ??_C@_1BA@HAAOMIIG@?$AAL?$AAC?$AA_?$AAT?$AAI?$AAM?$AAE?$AA?$AA@ 0000000180079a00     LIBCMTD:wsetloca.obj
 0002:00008a90       ??_C@_1GA@LDEGDKD@?$AA?$CI?$AA?$CC?$AAI?$AAn?$AAv?$AAa?$AAl?$AAi?$AAd?$AA?5?$AAp?$AAa?$AAr?$AAa?$AAm?$AAe?$AAt?$AAe?$AAr?$AA?5?$AAf?$AAo?$AAr?$AA?5?$AA_?$AAc?$AAo?$AAn?$AAf?$AAi?$AAg?$AAt@ 0000000180079a90     LIBCMTD:wsetloca.obj
 0002:00008af0       ??_C@_1GO@PGHIOOKM@?$AAf?$AA?3?$AA?2?$AAd?$AAd?$AA?2?$AAv?$AAc?$AAt?$AAo?$AAo?$AAl?$AAs?$AA?2?$AAc?$AAr?$AAt?$AA_?$AAb?$AAl?$AAd?$AA?2?$AAs?$AAe?$AAl?$AAf?$AA_?$AA6?$AA4?$AA_?$AAa?$AAm@ 0000000180079af0     LIBCMTD:wsetloca.obj
 0002:00008b60       ??_C@_1CI@FGIONOJM@?$AA_?$AAc?$AAo?$AAn?$AAf?$AAi?$AAg?$AAt?$AAh?$AAr?$AAe?$AAa?$AAd?$AAl?$AAo?$AAc?$AAa?$AAl?$AAe?$AA?$AA@ 0000000180079b60     LIBCMTD:wsetloca.obj
 0002:00008b88       ??_C@_0DH@HAHIHJNC@f?3?2dd?2vctools?2crt_bld?2self_64_am@ 0000000180079b88     LIBCMTD:wsetloca.obj
 0002:00008bc0       ??_C@_1FG@OHLFEKMC@?$AAL?$AAC?$AA_?$AAM?$AAI?$AAN?$AA?5?$AA?$DM?$AA?$DN?$AA?5?$AA_?$AAc?$AAa?$AAt?$AAe?$AAg?$AAo?$AAr?$AAy?$AA?5?$AA?$CG?$AA?$CG?$AA?5?$AA_?$AAc?$AAa?$AAt?$AAe?$AAg?$AAo?$AAr?$AAy@ 0000000180079bc0     LIBCMTD:wsetloca.obj
 0002:00008c18       ??_C@_1BI@KJNPAEHL@?$AA_?$AAw?$AAs?$AAe?$AAt?$AAl?$AAo?$AAc?$AAa?$AAl?$AAe?$AA?$AA@ 0000000180079c18     LIBCMTD:wsetloca.obj
 0002:00008c30       ??_C@_15NBPDDFIP@?$AA?$DN?$AA?$DL?$AA?$AA@ 0000000180079c30     LIBCMTD:wsetloca.obj
 0002:00008c38       ??_C@_13PJJBFPED@?$AA?$DL?$AA?$AA@ 0000000180079c38     LIBCMTD:wsetloca.obj
 0002:00008c40       ??_C@_1CG@DKJCBBPP@?$AA_?$AAw?$AAs?$AAe?$AAt?$AAl?$AAo?$AAc?$AAa?$AAl?$AAe?$AA_?$AAn?$AAo?$AAl?$AAo?$AAc?$AAk?$AA?$AA@ 0000000180079c40     LIBCMTD:wsetloca.obj
 0002:00008c70       ??_C@_1IA@DGCOPCLP@?$AAw?$AAc?$AAs?$AAn?$AAc?$AAp?$AAy?$AA_?$AAs?$AA?$CI?$AAl?$AAc?$AAt?$AAe?$AAm?$AAp?$AA?0?$AA?5?$AA?$CI?$AAs?$AAi?$AAz?$AAe?$AAo?$AAf?$AA?$CI?$AAl?$AAc?$AAt?$AAe?$AAm?$AAp@ 0000000180079c70     LIBCMTD:wsetloca.obj
 0002:00008cf0       ??_C@_1CI@ODOPEMNJ@?$AA_?$AAw?$AAs?$AAe?$AAt?$AAl?$AAo?$AAc?$AAa?$AAl?$AAe?$AA_?$AAs?$AAe?$AAt?$AA_?$AAc?$AAa?$AAt?$AA?$AA@ 0000000180079cf0     LIBCMTD:wsetloca.obj
 0002:00008d20       ??_C@_1EM@MHOCNIAA@?$AAw?$AAc?$AAs?$AAc?$AAp?$AAy?$AA_?$AAs?$AA?$CI?$AAp?$AAc?$AAh?$AA_?$AAc?$AAa?$AAt?$AA_?$AAl?$AAo?$AAc?$AAa?$AAl?$AAe?$AA?0?$AA?5?$AAc?$AAc?$AAh?$AA?0?$AA?5?$AAl?$AAc@ 0000000180079d20     LIBCMTD:wsetloca.obj
 0002:00008d6c       ??_C@_13NMPKAAJP@?$AA?$DN?$AA?$AA@ 0000000180079d6c     LIBCMTD:wsetloca.obj
 0002:00008d70       ??_C@_1CI@LKOPFFBD@?$AA_?$AAw?$AAs?$AAe?$AAt?$AAl?$AAo?$AAc?$AAa?$AAl?$AAe?$AA_?$AAg?$AAe?$AAt?$AA_?$AAa?$AAl?$AAl?$AA?$AA@ 0000000180079d70     LIBCMTD:wsetloca.obj
 0002:00008d98       ??_C@_1DC@HMLJMODP@?$AAw?$AAc?$AAs?$AAc?$AAa?$AAt?$AA_?$AAs?$AA?$CI?$AAp?$AAc?$AAh?$AA?0?$AA?5?$AAc?$AAc?$AAh?$AA?0?$AA?5?$AAL?$AA?$CC?$AA?$DL?$AA?$CC?$AA?$CJ?$AA?$AA@ 0000000180079d98     LIBCMTD:wsetloca.obj
 0002:00008dd0       ??_C@_1BM@OIIBLEFG@?$AA_?$AAe?$AAx?$AAp?$AAa?$AAn?$AAd?$AAl?$AAo?$AAc?$AAa?$AAl?$AAe?$AA?$AA@ 0000000180079dd0     LIBCMTD:wsetloca.obj
 0002:00008df0       ??_C@_1BFG@FHLOBJGM@?$AAw?$AAc?$AAs?$AAn?$AAc?$AAp?$AAy?$AA_?$AAs?$AA?$CI?$AAl?$AAo?$AAc?$AAa?$AAl?$AAe?$AAN?$AAa?$AAm?$AAe?$AAO?$AAu?$AAt?$AAp?$AAu?$AAt?$AA?0?$AA?5?$AAl?$AAo?$AAc?$AAa@ 0000000180079df0     LIBCMTD:wsetloca.obj
 0002:00008f50       ??_C@_1EI@OCINLCHN@?$AAw?$AAc?$AAs?$AAc?$AAp?$AAy?$AA_?$AAs?$AA?$CI?$AAo?$AAu?$AAt?$AAp?$AAu?$AAt?$AA?0?$AA?5?$AAs?$AAi?$AAz?$AAe?$AAI?$AAn?$AAC?$AAh?$AAa?$AAr?$AAs?$AA?0?$AA?5?$AAL?$AA?$CC@ 0000000180079f50     LIBCMTD:wsetloca.obj
 0002:00008f98       ??_C@_13FHBKNHDA@?$AAC?$AA?$AA@ 0000000180079f98     LIBCMTD:wsetloca.obj
 0002:00008fa0       ??_C@_1MO@NNCNEOAP@?$AAw?$AAc?$AAs?$AAn?$AAc?$AAp?$AAy?$AA_?$AAs?$AA?$CI?$AAl?$AAo?$AAc?$AAa?$AAl?$AAe?$AAN?$AAa?$AAm?$AAe?$AAO?$AAu?$AAt?$AAp?$AAu?$AAt?$AA?0?$AA?5?$AAl?$AAo?$AAc?$AAa@ 0000000180079fa0     LIBCMTD:wsetloca.obj
 0002:00009070       ??_C@_1IG@MKDIEKFD@?$AAw?$AAc?$AAs?$AAn?$AAc?$AAp?$AAy?$AA_?$AAs?$AA?$CI?$AAc?$AAa?$AAc?$AAh?$AAe?$AAo?$AAu?$AAt?$AA?0?$AA?5?$AAc?$AAa?$AAc?$AAh?$AAe?$AAo?$AAu?$AAt?$AAL?$AAe?$AAn?$AA?0@ 000000018007a070     LIBCMTD:wsetloca.obj
 0002:00009100       ??_C@_1KK@KMIFPBBC@?$AAw?$AAc?$AAs?$AAn?$AAc?$AAp?$AAy?$AA_?$AAs?$AA?$CI?$AAl?$AAo?$AAc?$AAa?$AAl?$AAe?$AAN?$AAa?$AAm?$AAe?$AAO?$AAu?$AAt?$AAp?$AAu?$AAt?$AA?0?$AA?5?$AAl?$AAo?$AAc?$AAa@ 000000018007a100     LIBCMTD:wsetloca.obj
 0002:000091b0       ??_C@_1BEK@OJDMMIMP@?$AAw?$AAc?$AAs?$AAn?$AAc?$AAp?$AAy?$AA_?$AAs?$AA?$CI?$AA_?$AAp?$AAs?$AAe?$AAt?$AAl?$AAo?$AAc?$AA_?$AAd?$AAa?$AAt?$AAa?$AA?9?$AA?$DO?$AA_?$AAc?$AAa?$AAc?$AAh?$AAe?$AAL@ 000000018007a1b0     LIBCMTD:wsetloca.obj
 0002:00009300       ??_C@_1BGG@FCLLNAOE@?$AAw?$AAc?$AAs?$AAn?$AAc?$AAp?$AAy?$AA_?$AAs?$AA?$CI?$AA_?$AAp?$AAs?$AAe?$AAt?$AAl?$AAo?$AAc?$AA_?$AAd?$AAa?$AAt?$AAa?$AA?9?$AA?$DO?$AA_?$AAc?$AAa?$AAc?$AAh?$AAe?$AAL@ 000000018007a300     LIBCMTD:wsetloca.obj
 0002:00009470       ??_C@_1IC@FCCDBGLL@?$AAw?$AAc?$AAs?$AAn?$AAc?$AAp?$AAy?$AA_?$AAs?$AA?$CI?$AAc?$AAa?$AAc?$AAh?$AAe?$AAi?$AAn?$AA?0?$AA?5?$AAc?$AAa?$AAc?$AAh?$AAe?$AAi?$AAn?$AAL?$AAe?$AAn?$AA?0?$AA?5?$AAe@ 000000018007a470     LIBCMTD:wsetloca.obj
 0002:00009500       ??_C@_1FA@HOOAAHFF@?$AAw?$AAc?$AAs?$AAc?$AAp?$AAy?$AA_?$AAs?$AA?$CI?$AAo?$AAu?$AAt?$AAp?$AAu?$AAt?$AA?0?$AA?5?$AAs?$AAi?$AAz?$AAe?$AAI?$AAn?$AAC?$AAh?$AAa?$AAr?$AAs?$AA?0?$AA?5?$AAc?$AAa@ 000000018007a500     LIBCMTD:wsetloca.obj
 0002:00009550       ??_C@_1BC@LEOKFFML@?$AA_?$AAw?$AAc?$AAs?$AAc?$AAa?$AAt?$AAs?$AA?$AA@ 000000018007a550     LIBCMTD:wsetloca.obj
 0002:00009570       ??_C@_1CCE@OOPDKDD@?$AAw?$AAc?$AAs?$AAc?$AAa?$AAt?$AA_?$AAs?$AA?$CI?$AAo?$AAu?$AAt?$AAs?$AAt?$AAr?$AA?0?$AA?5?$AAn?$AAu?$AAm?$AAb?$AAe?$AAr?$AAO?$AAf?$AAE?$AAl?$AAe?$AAm?$AAe?$AAn?$AAt@ 000000018007a570     LIBCMTD:wsetloca.obj
 0002:00009798       ??_C@_1BK@GNCHCGCN@?$AA_?$AA_?$AAl?$AAc?$AA_?$AAw?$AAc?$AAs?$AAt?$AAo?$AAl?$AAc?$AA?$AA@ 000000018007a798     LIBCMTD:wsetloca.obj
 0002:000097c0       ??_C@_1NI@NELJHJBO@?$AAw?$AAc?$AAs?$AAn?$AAc?$AAp?$AAy?$AA_?$AAs?$AA?$CI?$AAn?$AAa?$AAm?$AAe?$AAs?$AA?9?$AA?$DO?$AAs?$AAz?$AAC?$AAo?$AAd?$AAe?$AAP?$AAa?$AAg?$AAe?$AA?0?$AA?5?$AA?$CI?$AAs?$AAi@ 000000018007a7c0     LIBCMTD:wsetloca.obj
 0002:00009898       ??_C@_17MBJJLFDM@?$AA_?$AA?4?$AA?0?$AA?$AA@ 000000018007a898     LIBCMTD:wsetloca.obj
 0002:000098a0       ??_C@_1MO@PBGOIBFL@?$AAw?$AAc?$AAs?$AAn?$AAc?$AAp?$AAy?$AA_?$AAs?$AA?$CI?$AAn?$AAa?$AAm?$AAe?$AAs?$AA?9?$AA?$DO?$AAs?$AAz?$AAL?$AAa?$AAn?$AAg?$AAu?$AAa?$AAg?$AAe?$AA?0?$AA?5?$AA?$CI?$AAs?$AAi@ 000000018007a8a0     LIBCMTD:wsetloca.obj
 0002:00009970       ??_C@_1MI@CLMFNAAJ@?$AAw?$AAc?$AAs?$AAn?$AAc?$AAp?$AAy?$AA_?$AAs?$AA?$CI?$AAn?$AAa?$AAm?$AAe?$AAs?$AA?9?$AA?$DO?$AAs?$AAz?$AAC?$AAo?$AAu?$AAn?$AAt?$AAr?$AAy?$AA?0?$AA?5?$AA?$CI?$AAs?$AAi?$AAz@ 000000018007a970     LIBCMTD:wsetloca.obj
 0002:00009a40       ??_C@_1MO@NBFBMKCB@?$AAw?$AAc?$AAs?$AAn?$AAc?$AAp?$AAy?$AA_?$AAs?$AA?$CI?$AAn?$AAa?$AAm?$AAe?$AAs?$AA?9?$AA?$DO?$AAs?$AAz?$AAC?$AAo?$AAd?$AAe?$AAP?$AAa?$AAg?$AAe?$AA?0?$AA?5?$AA?$CI?$AAs?$AAi@ 000000018007aa40     LIBCMTD:wsetloca.obj
 0002:00009b10       ??_C@_1BK@HEBMGPEK@?$AA_?$AA_?$AAl?$AAc?$AA_?$AAl?$AAc?$AAt?$AAo?$AAw?$AAc?$AAs?$AA?$AA@ 000000018007ab10     LIBCMTD:wsetloca.obj
 0002:00009b30       ??_C@_1GM@FOFMGOEK@?$AAw?$AAc?$AAs?$AAc?$AAp?$AAy?$AA_?$AAs?$AA?$CI?$AAl?$AAo?$AAc?$AAa?$AAl?$AAe?$AA?0?$AA?5?$AAn?$AAu?$AAm?$AAb?$AAe?$AAr?$AAO?$AAf?$AAE?$AAl?$AAe?$AAm?$AAe?$AAn?$AAt@ 000000018007ab30     LIBCMTD:wsetloca.obj
 0002:00009b9c       ??_C@_13ENNFDPBH@?$AA_?$AA?$AA@ 000000018007ab9c     LIBCMTD:wsetloca.obj
 0002:00009ba0       ??_C@_13JOFGPIOO@?$AA?4?$AA?$AA@ 000000018007aba0     LIBCMTD:wsetloca.obj
 0002:00009ba8       ??_C@_1CG@HCGEAFEA@?$AA_?$AA_?$AAc?$AAo?$AAp?$AAy?$AA_?$AAl?$AAo?$AAc?$AAa?$AAl?$AAe?$AA_?$AAn?$AAa?$AAm?$AAe?$AA?$AA@ 000000018007aba8     LIBCMTD:wsetloca.obj
 0002:00009bd0       ??_C@_1GI@HBNMCKGD@?$AAw?$AAc?$AAs?$AAn?$AAc?$AAp?$AAy?$AA_?$AAs?$AA?$CI?$AAl?$AAo?$AAc?$AAa?$AAl?$AAe?$AAN?$AAa?$AAm?$AAe?$AAC?$AAo?$AAp?$AAy?$AA?0?$AA?5?$AAc?$AAc?$AAh?$AA?$CL?$AA1?$AA?0@ 000000018007abd0     LIBCMTD:wsetloca.obj
 0002:00009c40       __newctype                 000000018007ac40     LIBCMTD:ctype.obj
 0002:00009f40       _wctype                    000000018007af40     LIBCMTD:ctype.obj
 0002:0000a150       __newclmap                 000000018007b150     LIBCMTD:ctype.obj
 0002:0000a2d0       __newcumap                 000000018007b2d0     LIBCMTD:ctype.obj
 0002:0000a450       ??_C@_1BC@CFJEPFGF@?$AAs?$AAt?$AAr?$AAc?$AAp?$AAy?$AA_?$AAs?$AA?$AA@ 000000018007b450     LIBCMTD:strcpy_s.obj
 0002:0000a470       ??_C@_1GO@IEIEDFFF@?$AAf?$AA?3?$AA?2?$AAd?$AAd?$AA?2?$AAv?$AAc?$AAt?$AAo?$AAo?$AAl?$AAs?$AA?2?$AAc?$AAr?$AAt?$AA_?$AAb?$AAl?$AAd?$AA?2?$AAs?$AAe?$AAl?$AAf?$AA_?$AA6?$AA4?$AA_?$AAa?$AAm@ 000000018007b470     LIBCMTD:_fptostr.obj
 0002:0000a4e0       ??_C@_1BC@OPALLEB@?$AA_?$AAf?$AAp?$AAt?$AAo?$AAs?$AAt?$AAr?$AA?$AA@ 000000018007b4e0     LIBCMTD:_fptostr.obj
 0002:0000a500       ??_C@_1GM@CEDLGDDI@?$AAs?$AAi?$AAz?$AAe?$AAI?$AAn?$AAB?$AAy?$AAt?$AAe?$AAs?$AA?5?$AA?$DO?$AA?5?$AA?$CI?$AAs?$AAi?$AAz?$AAe?$AA_?$AAt?$AA?$CJ?$AA?$CI?$AA?$CI?$AAd?$AAi?$AAg?$AAi?$AAt?$AAs?$AA?5?$AA?$DO@ 000000018007b500     LIBCMTD:_fptostr.obj
 0002:0000a570       ??_C@_1BK@CLIEHFDF@?$AAp?$AAf?$AAl?$AAt?$AA?5?$AA?$CB?$AA?$DN?$AA?5?$AAN?$AAU?$AAL?$AAL?$AA?$AA@ 000000018007b570     LIBCMTD:_fptostr.obj
 0002:0000a590       ??_C@_1HM@JLHEPEIG@?$AAf?$AA?3?$AA?2?$AAd?$AAd?$AA?2?$AAv?$AAc?$AAt?$AAo?$AAo?$AAl?$AAs?$AA?2?$AAc?$AAr?$AAt?$AA_?$AAb?$AAl?$AAd?$AA?2?$AAs?$AAe?$AAl?$AAf?$AA_?$AA6?$AA4?$AA_?$AAa?$AAm@ 000000018007b590     LIBCMTD:cfout.obj
 0002:0000a610       ??_C@_1BC@BPMMEHLK@?$AA_?$AAf?$AAl?$AAt?$AAo?$AAu?$AAt?$AA2?$AA?$AA@ 000000018007b610     LIBCMTD:cfout.obj
 0002:0000a630       ??_C@_1FK@KODCOBKF@?$AAs?$AAt?$AAr?$AAc?$AAp?$AAy?$AA_?$AAs?$AA?$CI?$AAr?$AAe?$AAs?$AAu?$AAl?$AAt?$AAs?$AAt?$AAr?$AA?0?$AA?5?$AAr?$AAe?$AAs?$AAu?$AAl?$AAt?$AAs?$AAi?$AAz?$AAe?$AA?0?$AA?5@ 000000018007b630     LIBCMTD:cfout.obj
 0002:0000a690       ??_C@_1EM@EGEEBJLG@?$AA?$CI?$AAo?$AAp?$AAt?$AAi?$AAo?$AAn?$AAs?$AA?5?$AA?$CG?$AA?5?$AA?$HO?$AA_?$AAT?$AAW?$AAO?$AA_?$AAD?$AAI?$AAG?$AAI?$AAT?$AA_?$AAE?$AAX?$AAP?$AAO?$AAN?$AAE?$AAN?$AAT?$AA?$CJ@ 000000018007b690     LIBCMTD:outputformat.obj
 0002:0000a6e0       ??_C@_1HG@BAICKAJE@?$AAf?$AA?3?$AA?2?$AAd?$AAd?$AA?2?$AAv?$AAc?$AAt?$AAo?$AAo?$AAl?$AAs?$AA?2?$AAc?$AAr?$AAt?$AA_?$AAb?$AAl?$AAd?$AA?2?$AAs?$AAe?$AAl?$AAf?$AA_?$AA6?$AA4?$AA_?$AAa?$AAm@ 000000018007b6e0     LIBCMTD:outputformat.obj
 0002:0000a758       ??_C@_1CG@EBJECAJM@?$AA_?$AAs?$AAe?$AAt?$AA_?$AAo?$AAu?$AAt?$AAp?$AAu?$AAt?$AA_?$AAf?$AAo?$AAr?$AAm?$AAa?$AAt?$AA?$AA@ 000000018007b758     LIBCMTD:outputformat.obj
 0002:0000a780       ??_C@_1HC@LMNIDGBJ@?$AAf?$AA?3?$AA?2?$AAd?$AAd?$AA?2?$AAv?$AAc?$AAt?$AAo?$AAo?$AAl?$AAs?$AA?2?$AAc?$AAr?$AAt?$AA_?$AAb?$AAl?$AAd?$AA?2?$AAs?$AAe?$AAl?$AAf?$AA_?$AA6?$AA4?$AA_?$AAa?$AAm@ 000000018007b780     LIBCMTD:wcscat_s.obj
 0002:0000a7f8       ??_C@_1BC@PLIEPKPJ@?$AAw?$AAc?$AAs?$AAc?$AAa?$AAt?$AA_?$AAs?$AA?$AA@ 000000018007b7f8     LIBCMTD:wcscat_s.obj
 0002:0000a810       ??_C@_1HE@CMGGKMON@?$AAf?$AA?3?$AA?2?$AAd?$AAd?$AA?2?$AAv?$AAc?$AAt?$AAo?$AAo?$AAl?$AAs?$AA?2?$AAc?$AAr?$AAt?$AA_?$AAb?$AAl?$AAd?$AA?2?$AAs?$AAe?$AAl?$AAf?$AA_?$AA6?$AA4?$AA_?$AAa?$AAm@ 000000018007b810     LIBCMTD:wcsncpy_s.obj
 0002:0000a888       ??_C@_1BE@PMMBFFCC@?$AAw?$AAc?$AAs?$AAn?$AAc?$AAp?$AAy?$AA_?$AAs?$AA?$AA@ 000000018007b888     LIBCMTD:wcsncpy_s.obj
 0002:0000a8a0       ??_C@_1DE@BCNCAIK@?$AA?$CI?$AA?$CC?$AAI?$AAn?$AAv?$AAa?$AAl?$AAi?$AAd?$AA?5?$AAe?$AAr?$AAr?$AAo?$AAr?$AA_?$AAm?$AAo?$AAd?$AAe?$AA?$CC?$AA?0?$AA?5?$AA0?$AA?$CJ?$AA?$AA@ 000000018007b8a0     LIBCMTD:errmode.obj
 0002:0000a8e0       ??_C@_1GM@CPDLDAAM@?$AAf?$AA?3?$AA?2?$AAd?$AAd?$AA?2?$AAv?$AAc?$AAt?$AAo?$AAo?$AAl?$AAs?$AA?2?$AAc?$AAr?$AAt?$AA_?$AAb?$AAl?$AAd?$AA?2?$AAs?$AAe?$AAl?$AAf?$AA_?$AA6?$AA4?$AA_?$AAa?$AAm@ 000000018007b8e0     LIBCMTD:errmode.obj
 0002:0000a950       ??_C@_1CA@LFDHAMEM@?$AA_?$AAs?$AAe?$AAt?$AA_?$AAe?$AAr?$AAr?$AAo?$AAr?$AA_?$AAm?$AAo?$AAd?$AAe?$AA?$AA@ 000000018007b950     LIBCMTD:errmode.obj
 0002:0000a970       ??_C@_1BE@NDMJHJJG@?$AAs?$AAt?$AAr?$AAn?$AAc?$AAp?$AAy?$AA_?$AAs?$AA?$AA@ 000000018007b970     LIBCMTD:strncpy_s.obj
 0002:0000aca0       ??_C@_08EHJDFFNH@__based?$CI?$AA@ 000000018007bca0     LIBCMTD:undname.obj
 0002:0000acb0       ??_C@_07KOLFKCDI@__cdecl?$AA@ 000000018007bcb0     LIBCMTD:undname.obj
 0002:0000acb8       ??_C@_08GHMPAG@__pascal?$AA@ 000000018007bcb8     LIBCMTD:undname.obj
 0002:0000acc8       ??_C@_09IFJBGAPI@__stdcall?$AA@ 000000018007bcc8     LIBCMTD:undname.obj
 0002:0000acd8       ??_C@_0L@NPHFGOKO@__thiscall?$AA@ 000000018007bcd8     LIBCMTD:undname.obj
 0002:0000ace8       ??_C@_0L@JMKHOMEK@__fastcall?$AA@ 000000018007bce8     LIBCMTD:undname.obj
 0002:0000acf8       ??_C@_09HIJEGCPM@__clrcall?$AA@ 000000018007bcf8     LIBCMTD:undname.obj
 0002:0000ad04       ??_C@_06GHPCKEAG@__eabi?$AA@ 000000018007bd04     LIBCMTD:undname.obj
 0002:0000ad10       ??_C@_07JOMMBBKO@__ptr64?$AA@ 000000018007bd10     LIBCMTD:undname.obj
 0002:0000ad18       ??_C@_0L@PILCLIHE@__restrict?$AA@ 000000018007bd18     LIBCMTD:undname.obj
 0002:0000ad28       ??_C@_0M@GFIIJFMG@__unaligned?$AA@ 000000018007bd28     LIBCMTD:undname.obj
 0002:0000ad38       ??_C@_09DHDLOLLB@restrict?$CI?$AA@ 000000018007bd38     LIBCMTD:undname.obj
 0002:0000ad44       ??_C@_04NIHEBCM@?5new?$AA@ 000000018007bd44     LIBCMTD:undname.obj
 0002:0000ad50       ??_C@_07FPCDHGMM@?5delete?$AA@ 000000018007bd50     LIBCMTD:undname.obj
 0002:0000ad58       ??_C@_01NEMOKFLO@?$DN?$AA@ 000000018007bd58     LIBCMTD:undname.obj
 0002:0000ad5c       ??_C@_02GPIOPFAK@?$DO?$DO?$AA@ 000000018007bd5c     LIBCMTD:undname.obj
 0002:0000ad60       ??_C@_02FODMEDOG@?$DM?$DM?$AA@ 000000018007bd60     LIBCMTD:undname.obj
 0002:0000ad64       ??_C@_01DCLJPIOD@?$CB?$AA@ 000000018007bd64     LIBCMTD:undname.obj
 0002:0000ad68       ??_C@_02EGOFBIJA@?$DN?$DN?$AA@ 000000018007bd68     LIBCMTD:undname.obj
 0002:0000ad6c       ??_C@_02FDNJECIE@?$CB?$DN?$AA@ 000000018007bd6c     LIBCMTD:undname.obj
 0002:0000ad70       ??_C@_02GPECMEKF@?$FL?$FN?$AA@ 000000018007bd70     LIBCMTD:undname.obj
 0002:0000ad78       ??_C@_08LHJFAFGD@operator?$AA@ 000000018007bd78     LIBCMTD:undname.obj
 0002:0000ad84       ??_C@_02HBOOOICD@?9?$DO?$AA@ 000000018007bd84     LIBCMTD:undname.obj
 0002:0000ad88       ??_C@_01NBENCBCI@?$CK?$AA@ 000000018007bd88     LIBCMTD:undname.obj
 0002:0000ad8c       ??_C@_02ECNGHCIF@?$CL?$CL?$AA@ 000000018007bd8c     LIBCMTD:undname.obj
 0002:0000ad90       ??_C@_02BAABKJLB@?9?9?$AA@ 000000018007bd90     LIBCMTD:undname.obj
 0002:0000ad94       ??_C@_01JOAMLHOP@?9?$AA@   000000018007bd94     LIBCMTD:undname.obj
 0002:0000ad98       ??_C@_01MIFGBAGJ@?$CL?$AA@ 000000018007bd98     LIBCMTD:undname.obj
 0002:0000ad9c       ??_C@_01HNPIGOCE@?$CG?$AA@ 000000018007bd9c     LIBCMTD:undname.obj
 0002:0000ada0       ??_C@_03MNHNFDLC@?9?$DO?$CK?$AA@ 000000018007bda0     LIBCMTD:undname.obj
 0002:0000ada4       ??_C@_01KMDKNFGN@?1?$AA@   000000018007bda4     LIBCMTD:undname.obj
 0002:0000ada8       ??_C@_01FGNFDNOH@?$CF?$AA@ 000000018007bda8     LIBCMTD:undname.obj
 0002:0000adac       ??_C@_01MNNFJEPP@?$DM?$AA@ 000000018007bdac     LIBCMTD:undname.obj
 0002:0000adb0       ??_C@_02EHCHHCKH@?$DM?$DN?$AA@ 000000018007bdb0     LIBCMTD:undname.obj
 0002:0000adb4       ??_C@_01PPODPGHN@?$DO?$AA@ 000000018007bdb4     LIBCMTD:undname.obj
 0002:0000adb8       ??_C@_02EEKDKGMJ@?$DO?$DN?$AA@ 000000018007bdb8     LIBCMTD:undname.obj
 0002:0000adbc       ??_C@_01IHBHIGKO@?0?$AA@   000000018007bdbc     LIBCMTD:undname.obj
 0002:0000adc0       ??_C@_02HCKGKOFO@?$CI?$CJ?$AA@ 000000018007bdc0     LIBCMTD:undname.obj
 0002:0000adc4       ??_C@_01PJKLJHI@?$HO?$AA@  000000018007bdc4     LIBCMTD:undname.obj
 0002:0000adc8       ??_C@_01JKBOJNNK@?$FO?$AA@ 000000018007bdc8     LIBCMTD:undname.obj
 0002:0000adcc       ??_C@_01DNKMNLPK@?$HM?$AA@ 000000018007bdcc     LIBCMTD:undname.obj
 0002:0000add0       ??_C@_02PPKAJPJL@?$CG?$CG?$AA@ 000000018007bdd0     LIBCMTD:undname.obj
 0002:0000add4       ??_C@_02NONPIBCD@?$HM?$HM?$AA@ 000000018007bdd4     LIBCMTD:undname.obj
 0002:0000add8       ??_C@_02FPIMKNGF@?$CK?$DN?$AA@ 000000018007bdd8     LIBCMTD:undname.obj
 0002:0000addc       ??_C@_02FOEOMHFC@?$CL?$DN?$AA@ 000000018007bddc     LIBCMTD:undname.obj
 0002:0000ade0       ??_C@_02FKMDLLOA@?9?$DN?$AA@ 000000018007bde0     LIBCMTD:undname.obj
 0002:0000ade4       ??_C@_02FJEHGPIO@?1?$DN?$AA@ 000000018007bde4     LIBCMTD:undname.obj
 0002:0000ade8       ??_C@_02FENAOKFI@?$CF?$DN?$AA@ 000000018007bde8     LIBCMTD:undname.obj
 0002:0000adec       ??_C@_03IKFCCPFF@?$DO?$DO?$DN?$AA@ 000000018007bdec     LIBCMTD:undname.obj
 0002:0000adf0       ??_C@_03CDNPDDLA@?$DM?$DM?$DN?$AA@ 000000018007bdf0     LIBCMTD:undname.obj
 0002:0000adf4       ??_C@_02FGJGFEAB@?$CG?$DN?$AA@ 000000018007bdf4     LIBCMTD:undname.obj
 0002:0000adf8       ??_C@_02DHLNPPGH@?$HM?$DN?$AA@ 000000018007bdf8     LIBCMTD:undname.obj
 0002:0000adfc       ??_C@_02MHEGNOJ@?$FO?$DN?$AA@ 000000018007bdfc     LIBCMTD:undname.obj
 0002:0000ae00       ??_C@_09IFPLHPGF@?$GAvftable?8?$AA@ 000000018007be00     LIBCMTD:undname.obj
 0002:0000ae10       ??_C@_09BLBHBJP@?$GAvbtable?8?$AA@ 000000018007be10     LIBCMTD:undname.obj
 0002:0000ae20       ??_C@_07FEEIOKP@?$GAvcall?8?$AA@ 000000018007be20     LIBCMTD:undname.obj
 0002:0000ae28       ??_C@_08LLFFHHDJ@?$GAtypeof?8?$AA@ 000000018007be28     LIBCMTD:undname.obj
 0002:0000ae38       ??_C@_0BF@KDPPACIK@?$GAlocal?5static?5guard?8?$AA@ 000000018007be38     LIBCMTD:undname.obj
 0002:0000ae50       ??_C@_08OBABFOLI@?$GAstring?8?$AA@ 000000018007be50     LIBCMTD:undname.obj
 0002:0000ae60       ??_C@_0BD@JDLKDPAB@?$GAvbase?5destructor?8?$AA@ 000000018007be60     LIBCMTD:undname.obj
 0002:0000ae78       ??_C@_0BN@DEGPLNFK@?$GAvector?5deleting?5destructor?8?$AA@ 000000018007be78     LIBCMTD:undname.obj
 0002:0000ae98       ??_C@_0BO@OBMKPJIG@?$GAdefault?5constructor?5closure?8?$AA@ 000000018007be98     LIBCMTD:undname.obj
 0002:0000aeb8       ??_C@_0BN@IMDCHIKM@?$GAscalar?5deleting?5destructor?8?$AA@ 000000018007beb8     LIBCMTD:undname.obj
 0002:0000aed8       ??_C@_0BO@PFGOCPJJ@?$GAvector?5constructor?5iterator?8?$AA@ 000000018007bed8     LIBCMTD:undname.obj
 0002:0000aef8       ??_C@_0BN@LFPFMEDL@?$GAvector?5destructor?5iterator?8?$AA@ 000000018007bef8     LIBCMTD:undname.obj
 0002:0000af18       ??_C@_0CE@IKBNEHA@?$GAvector?5vbase?5constructor?5iterat@ 000000018007bf18     LIBCMTD:undname.obj
 0002:0000af40       ??_C@_0BL@NILFHHPC@?$GAvirtual?5displacement?5map?8?$AA@ 000000018007bf40     LIBCMTD:undname.obj
 0002:0000af60       ??_C@_0CB@JONCMFFK@?$GAeh?5vector?5constructor?5iterator?8@ 000000018007bf60     LIBCMTD:undname.obj
 0002:0000af88       ??_C@_0CA@GCEOPDGL@?$GAeh?5vector?5destructor?5iterator?8?$AA@ 000000018007bf88     LIBCMTD:undname.obj
 0002:0000afa8       ??_C@_0CH@OOJPLCPH@?$GAeh?5vector?5vbase?5constructor?5ite@ 000000018007bfa8     LIBCMTD:undname.obj
 0002:0000afd0       ??_C@_0BL@LLKPOHJI@?$GAcopy?5constructor?5closure?8?$AA@ 000000018007bfd0     LIBCMTD:undname.obj
 0002:0000aff0       ??_C@_0BA@KBCDOMBN@?$GAudt?5returning?8?$AA@ 000000018007bff0     LIBCMTD:undname.obj
 0002:0000b000       ??_C@_03KLGMFNMG@?$GAEH?$AA@ 000000018007c000     LIBCMTD:undname.obj
 0002:0000b004       ??_C@_05KHLCHHI@?$GARTTI?$AA@ 000000018007c004     LIBCMTD:undname.obj
 0002:0000b010       ??_C@_0BA@KKLDJDLB@?$GAlocal?5vftable?8?$AA@ 000000018007c010     LIBCMTD:undname.obj
 0002:0000b020       ??_C@_0CE@IIHCMGGL@?$GAlocal?5vftable?5constructor?5closu@ 000000018007c020     LIBCMTD:undname.obj
 0002:0000b044       ??_C@_06FHBGPFGH@?5new?$FL?$FN?$AA@ 000000018007c044     LIBCMTD:undname.obj
 0002:0000b050       ??_C@_09LBNFPBCA@?5delete?$FL?$FN?$AA@ 000000018007c050     LIBCMTD:undname.obj
 0002:0000b060       ??_C@_0P@HJKNJFNN@?$GAomni?5callsig?8?$AA@ 000000018007c060     LIBCMTD:undname.obj
 0002:0000b070       ??_C@_0BL@CNOONJFP@?$GAplacement?5delete?5closure?8?$AA@ 000000018007c070     LIBCMTD:undname.obj
 0002:0000b090       ??_C@_0BN@CKNJLHMB@?$GAplacement?5delete?$FL?$FN?5closure?8?$AA@ 000000018007c090     LIBCMTD:undname.obj
 0002:0000b0b0       ??_C@_0CG@CFDHKGGD@?$GAmanaged?5vector?5constructor?5iter@ 000000018007c0b0     LIBCMTD:undname.obj
 0002:0000b0d8       ??_C@_0CF@IMGKMJNO@?$GAmanaged?5vector?5destructor?5itera@ 000000018007c0d8     LIBCMTD:undname.obj
 0002:0000b100       ??_C@_0CG@HLDDJMAG@?$GAeh?5vector?5copy?5constructor?5iter@ 000000018007c100     LIBCMTD:undname.obj
 0002:0000b128       ??_C@_0CM@FCBBDIGB@?$GAeh?5vector?5vbase?5copy?5constructo@ 000000018007c128     LIBCMTD:undname.obj
 0002:0000b158       ??_C@_0BL@CLIPGLGB@?$GAdynamic?5initializer?5for?5?8?$AA@ 000000018007c158     LIBCMTD:undname.obj
 0002:0000b178       ??_C@_0CB@PDBIFEP@?$GAdynamic?5atexit?5destructor?5for?5?8@ 000000018007c178     LIBCMTD:undname.obj
 0002:0000b1a0       ??_C@_0CD@CGAJBKEJ@?$GAvector?5copy?5constructor?5iterato@ 000000018007c1a0     LIBCMTD:undname.obj
 0002:0000b1c8       ??_C@_0CJ@GJELGAMM@?$GAvector?5vbase?5copy?5constructor?5i@ 000000018007c1c8     LIBCMTD:undname.obj
 0002:0000b1f8       ??_C@_0CL@FGIJHLCE@?$GAmanaged?5vector?5copy?5constructor@ 000000018007c1f8     LIBCMTD:undname.obj
 0002:0000b228       ??_C@_0BM@PMGGMLDN@?$GAlocal?5static?5thread?5guard?8?$AA@ 000000018007c228     LIBCMTD:undname.obj
 0002:0000b248       ??_C@_0BC@DAFEJGAK@?5Type?5Descriptor?8?$AA@ 000000018007c248     LIBCMTD:undname.obj
 0002:0000b260       ??_C@_0BM@LDKODKLH@?5Base?5Class?5Descriptor?5at?5?$CI?$AA@ 000000018007c260     LIBCMTD:undname.obj
 0002:0000b280       ??_C@_0BD@LGICGFMM@?5Base?5Class?5Array?8?$AA@ 000000018007c280     LIBCMTD:undname.obj
 0002:0000b298       ??_C@_0BN@MECKDCOJ@?5Class?5Hierarchy?5Descriptor?8?$AA@ 000000018007c298     LIBCMTD:undname.obj
 0002:0000b2b8       ??_C@_0BK@CFCOFLF@?5Complete?5Object?5Locator?8?$AA@ 000000018007c2b8     LIBCMTD:undname.obj
 0002:0000b308       ??_C@_04HEJADOOB@CV?3?5?$AA@ 000000018007c308     LIBCMTD:undname.obj
 0002:0000b310       ??_C@_02MOLJINC@?3?3?$AA@  000000018007c310     LIBCMTD:undname.obj
 0002:0000b318       ??_C@_0BE@JAEOCHPE@template?9parameter?9?$AA@ 000000018007c318     LIBCMTD:undname.obj
 0002:0000b330       ??_C@_0O@KHGCOMHP@generic?9type?9?$AA@ 000000018007c330     LIBCMTD:undname.obj
 0002:0000b340       ??_C@_01NLNLIGKH@?$GA?$AA@ 000000018007c340     LIBCMTD:undname.obj
 0002:0000b344       ??_C@_01GEODFPGF@?8?$AA@   000000018007c344     LIBCMTD:undname.obj
 0002:0000b348       ??_C@_0BG@JNJLAMPM@?$GAanonymous?5namespace?8?$AA@ 000000018007c348     LIBCMTD:undname.obj
 0002:0000b360       ??_C@_02OHHJMEON@?8?8?$AA@ 000000018007c360     LIBCMTD:undname.obj
 0002:0000b368       ??_C@_0BN@IBLMMFAP@?$GAnon?9type?9template?9parameter?$AA@ 000000018007c368     LIBCMTD:undname.obj
 0002:0000b388       ??_C@_04GKJNKENE@void?$AA@ 000000018007c388     LIBCMTD:undname.obj
 0002:0000b390       ??_C@_0BE@EODMJLIF@?$GAtemplate?9parameter?$AA@ 000000018007c390     LIBCMTD:undname.obj
 0002:0000b3a4       ??_C@_04HIBGFPH@NULL?$AA@  000000018007c3a4     LIBCMTD:undname.obj
 0002:0000b3ac       ??_C@_03OPGICMGF@?$HN?8?5?$AA@ 000000018007c3ac     LIBCMTD:undname.obj
 0002:0000b3b0       ??_C@_02IGFCGPIL@?$HN?8?$AA@ 000000018007c3b0     LIBCMTD:undname.obj
 0002:0000b3b4       ??_C@_01CLKCMJKC@?5?$AA@   000000018007c3b4     LIBCMTD:undname.obj
 0002:0000b3b8       ??_C@_0N@CBHHHENL@?$GAvtordispex?$HL?$AA@ 000000018007c3b8     LIBCMTD:undname.obj
 0002:0000b3c8       ??_C@_0L@GHPFDFH@?$GAvtordisp?$HL?$AA@ 000000018007c3c8     LIBCMTD:undname.obj
 0002:0000b3d8       ??_C@_0L@HNGCOGAE@?$GAadjustor?$HL?$AA@ 000000018007c3d8     LIBCMTD:undname.obj
 0002:0000b3e8       ??_C@_0CB@KJDOOODE@?$GAlocal?5static?5destructor?5helper?8@ 000000018007c3e8     LIBCMTD:undname.obj
 0002:0000b410       ??_C@_0DB@ILEFOCIJ@?$GAtemplate?5static?5data?5member?5con@ 000000018007c410     LIBCMTD:undname.obj
 0002:0000b448       ??_C@_0DA@HGFJFBBE@?$GAtemplate?5static?5data?5member?5des@ 000000018007c448     LIBCMTD:undname.obj
 0002:0000b478       ??_C@_07PGOEDBHP@static?5?$AA@ 000000018007c478     LIBCMTD:undname.obj
 0002:0000b480       ??_C@_08NIEOINHE@virtual?5?$AA@ 000000018007c480     LIBCMTD:undname.obj
 0002:0000b490       ??_C@_09LAPHOOG@private?3?5?$AA@ 000000018007c490     LIBCMTD:undname.obj
 0002:0000b4a0       ??_C@_0M@GAIFPFIP@protected?3?5?$AA@ 000000018007c4a0     LIBCMTD:undname.obj
 0002:0000b4b0       ??_C@_08GPDDCMKI@public?3?5?$AA@ 000000018007c4b0     LIBCMTD:undname.obj
 0002:0000b4c0       ??_C@_08KJLFOPNE@?$FLthunk?$FN?3?$AA@ 000000018007c4c0     LIBCMTD:undname.obj
 0002:0000b4d0       ??_C@_0M@DHNBOJMP@extern?5?$CCC?$CC?5?$AA@ 000000018007c4d0     LIBCMTD:undname.obj
 0002:0000b4dc       ??_C@_02KCKGHPCA@?$CJ?5?$AA@ 000000018007c4dc     LIBCMTD:undname.obj
 0002:0000b4e0       ??_C@_05CIHEBHNO@char?5?$AA@ 000000018007c4e0     LIBCMTD:undname.obj
 0002:0000b4e8       ??_C@_06EHJMALKF@short?5?$AA@ 000000018007c4e8     LIBCMTD:undname.obj
 0002:0000b4f0       ??_C@_04LAHKHJMA@int?5?$AA@ 000000018007c4f0     LIBCMTD:undname.obj
 0002:0000b4f8       ??_C@_05CJIMAING@long?5?$AA@ 000000018007c4f8     LIBCMTD:undname.obj
 0002:0000b500       ??_C@_09EBBEKKIH@unsigned?5?$AA@ 000000018007c500     LIBCMTD:undname.obj
 0002:0000b50c       ??_C@_05BEFAKPML@void?5?$AA@ 000000018007c50c     LIBCMTD:undname.obj
 0002:0000b518       ??_C@_08PABEKFH@volatile?$AA@ 000000018007c518     LIBCMTD:undname.obj
 0002:0000b528       ??_C@_0P@GCOCNKDM@std?3?3nullptr_t?$AA@ 000000018007c528     LIBCMTD:undname.obj
 0002:0000b538       ??_C@_0L@EGPHHEKN@?$DMellipsis?$DO?$AA@ 000000018007c538     LIBCMTD:undname.obj
 0002:0000b544       ??_C@_04EENFHACM@?0?4?4?4?$AA@ 000000018007c544     LIBCMTD:undname.obj
 0002:0000b550       ??_C@_0M@ELJOJFFH@?0?$DMellipsis?$DO?$AA@ 000000018007c550     LIBCMTD:undname.obj
 0002:0000b560       ??_C@_07HDJPLPEK@?5throw?$CI?$AA@ 000000018007c560     LIBCMTD:undname.obj
 0002:0000b568       ??_C@_03PBJBJNON@cpu?$AA@  000000018007c568     LIBCMTD:undname.obj
 0002:0000b56c       ??_C@_03DCBBJBAA@amp?$AA@  000000018007c56c     LIBCMTD:undname.obj
 0002:0000b570       ??_C@_02KEGNLNML@?0?5?$AA@ 000000018007c570     LIBCMTD:undname.obj
 0002:0000b574       ??_C@_04ENMBGAPA@char?$AA@ 000000018007c574     LIBCMTD:undname.obj
 0002:0000b57c       ??_C@_05BFKKPKCG@short?$AA@ 000000018007c57c     LIBCMTD:undname.obj
 0002:0000b584       ??_C@_03JBIPMCLC@int?$AA@  000000018007c584     LIBCMTD:undname.obj
 0002:0000b588       ??_C@_04GOKPGOLB@long?$AA@ 000000018007c588     LIBCMTD:undname.obj
 0002:0000b590       ??_C@_05KNFBNCOH@float?$AA@ 000000018007c590     LIBCMTD:undname.obj
 0002:0000b598       ??_C@_06BNJCAIGJ@double?$AA@ 000000018007c598     LIBCMTD:undname.obj
 0002:0000b5a0       ??_C@_04DDKJGDCM@bool?$AA@ 000000018007c5a0     LIBCMTD:undname.obj
 0002:0000b5a8       ??_C@_06EBGKOKIG@__int8?$AA@ 000000018007c5a8     LIBCMTD:undname.obj
 0002:0000b5b0       ??_C@_07ICFHOGAF@__int16?$AA@ 000000018007c5b0     LIBCMTD:undname.obj
 0002:0000b5b8       ??_C@_07OFLPPHGP@__int32?$AA@ 000000018007c5b8     LIBCMTD:undname.obj
 0002:0000b5c0       ??_C@_07LFCOJCAC@__int64?$AA@ 000000018007c5c0     LIBCMTD:undname.obj
 0002:0000b5c8       ??_C@_08GAHOLHEO@__int128?$AA@ 000000018007c5c8     LIBCMTD:undname.obj
 0002:0000b5d8       ??_C@_09EEKGDCPH@?$DMunknown?$DO?$AA@ 000000018007c5d8     LIBCMTD:undname.obj
 0002:0000b5e8       ??_C@_07CLGGIAMF@wchar_t?$AA@ 000000018007c5e8     LIBCMTD:undname.obj
 0002:0000b5f0       ??_C@_06GCICPBLB@__w64?5?$AA@ 000000018007c5f0     LIBCMTD:undname.obj
 0002:0000b5f8       ??_C@_07NFANNNEC@UNKNOWN?$AA@ 000000018007c5f8     LIBCMTD:undname.obj
 0002:0000b600       ??_C@_07EDHNAJHC@signed?5?$AA@ 000000018007c600     LIBCMTD:undname.obj
 0002:0000b608       ??_C@_05BNCCCJPP@const?$AA@ 000000018007c608     LIBCMTD:undname.obj
 0002:0000b610       ??_C@_09EFNPDFFP@?5volatile?$AA@ 000000018007c610     LIBCMTD:undname.obj
 0002:0000b620       ??_C@_0P@GCIFDJCJ@?$GAunknown?5ecsu?8?$AA@ 000000018007c620     LIBCMTD:undname.obj
 0002:0000b630       ??_C@_06MOJHIBMG@union?5?$AA@ 000000018007c630     LIBCMTD:undname.obj
 0002:0000b638       ??_C@_07DIBCDNGL@struct?5?$AA@ 000000018007c638     LIBCMTD:undname.obj
 0002:0000b640       ??_C@_06LJBABKPM@class?5?$AA@ 000000018007c640     LIBCMTD:undname.obj
 0002:0000b648       ??_C@_08KOFANOFK@coclass?5?$AA@ 000000018007c648     LIBCMTD:undname.obj
 0002:0000b658       ??_C@_0N@DLIEFKNA@cointerface?5?$AA@ 000000018007c658     LIBCMTD:undname.obj
 0002:0000b668       ??_C@_05LJGMCFOG@enum?5?$AA@ 000000018007c668     LIBCMTD:undname.obj
 0002:0000b670       ??_C@_09GAIEOBLP@volatile?5?$AA@ 000000018007c670     LIBCMTD:undname.obj
 0002:0000b67c       ??_C@_06LIJLOJAG@const?5?$AA@ 000000018007c67c     LIBCMTD:undname.obj
 0002:0000b688       ??_C@_0M@EALIELKG@cli?3?3array?$DM?$AA@ 000000018007c688     LIBCMTD:undname.obj
 0002:0000b698       ??_C@_0O@GKABPPIF@cli?3?3pin_ptr?$DM?$AA@ 000000018007c698     LIBCMTD:undname.obj
 0002:0000b6a8       ??_C@_02GOGNNPBN@?$CJ?$FL?$AA@ 000000018007c6a8     LIBCMTD:undname.obj
 0002:0000b6ac       ??_C@_06EEGAIFAK@?$HLflat?$HN?$AA@ 000000018007c6ac     LIBCMTD:undname.obj
 0002:0000b6b4       ??_C@_05JIBOFOHK@?$HLfor?5?$AA@ 000000018007c6b4     LIBCMTD:undname.obj
 0002:0000b6bc       ??_C@_02MDINNEEG@s?5?$AA@  000000018007c6bc     LIBCMTD:undname.obj
 0002:0000b6c8       ??_7DNameNode@@6B@         000000018007c6c8     LIBCMTD:undname.obj
 0002:0000b6e8       ??_7charNode@@6B@          000000018007c6e8     LIBCMTD:undname.obj
 0002:0000b708       ??_7pcharNode@@6B@         000000018007c708     LIBCMTD:undname.obj
 0002:0000b728       ??_7pDNameNode@@6B@        000000018007c728     LIBCMTD:undname.obj
 0002:0000b748       ??_7DNameStatusNode@@6B@   000000018007c748     LIBCMTD:undname.obj
 0002:0000b768       ??_7pairNode@@6B@          000000018007c768     LIBCMTD:undname.obj
 0002:0000b780       ??_C@_04OKOHEJBO@?5?$DP?$DP?5?$AA@ 000000018007c780     LIBCMTD:undname.obj
 0002:0000b7b0       ??_C@_0DG@EONGNBGB@f?3?2dd?2vctools?2crt_bld?2self_64_am@ 000000018007c7b0     LIBCMTD:osfinfo.obj
 0002:0000b7f0       ??_C@_1GM@LCFGFLEL@?$AAf?$AA?3?$AA?2?$AAd?$AAd?$AA?2?$AAv?$AAc?$AAt?$AAo?$AAo?$AAl?$AAs?$AA?2?$AAc?$AAr?$AAt?$AA_?$AAb?$AAl?$AAd?$AA?2?$AAs?$AAe?$AAl?$AAf?$AA_?$AA6?$AA4?$AA_?$AAa?$AAm@ 000000018007c7f0     LIBCMTD:osfinfo.obj
 0002:0000b860       ??_C@_1BO@EMBOBGKE@?$AA_?$AAg?$AAe?$AAt?$AA_?$AAo?$AAs?$AAf?$AAh?$AAa?$AAn?$AAd?$AAl?$AAe?$AA?$AA@ 000000018007c860     LIBCMTD:osfinfo.obj
 0002:0000b880       ??_C@_1NC@EINCOKCO@?$AA_?$AAl?$AAo?$AAc?$AA_?$AAu?$AAp?$AAd?$AAa?$AAt?$AAe?$AA?4?$AAG?$AAe?$AAt?$AAL?$AAo?$AAc?$AAa?$AAl?$AAe?$AAT?$AA?$CI?$AA?$CJ?$AA?9?$AA?$DO?$AAl?$AAo?$AAc?$AAi?$AAn?$AAf@ 000000018007c880     LIBCMTD:mbtowc.obj
 0002:0000b960       ??_C@_1GK@LNONKGD@?$AAf?$AA?3?$AA?2?$AAd?$AAd?$AA?2?$AAv?$AAc?$AAt?$AAo?$AAo?$AAl?$AAs?$AA?2?$AAc?$AAr?$AAt?$AA_?$AAb?$AAl?$AAd?$AA?2?$AAs?$AAe?$AAl?$AAf?$AA_?$AA6?$AA4?$AA_?$AAa?$AAm@ 000000018007c960     LIBCMTD:mbtowc.obj
 0002:0000b9d0       ??_C@_1GO@JNKHIJID@?$AAf?$AA?3?$AA?2?$AAd?$AAd?$AA?2?$AAv?$AAc?$AAt?$AAo?$AAo?$AAl?$AAs?$AA?2?$AAc?$AAr?$AAt?$AA_?$AAb?$AAl?$AAd?$AA?2?$AAs?$AAe?$AAl?$AAf?$AA_?$AA6?$AA4?$AA_?$AAa?$AAm@ 000000018007c9d0     LIBCMTD:vswprint.obj
 0002:0000ba40       ??_C@_1BK@EPLNBKAK@?$AA_?$AAv?$AAs?$AAw?$AAp?$AAr?$AAi?$AAn?$AAt?$AAf?$AA_?$AAl?$AA?$AA@ 000000018007ca40     LIBCMTD:vswprint.obj
 0002:0000ba60       ??_C@_1CG@IMMIEPNA@?$AA_?$AAv?$AAs?$AAc?$AAw?$AAp?$AAr?$AAi?$AAn?$AAt?$AAf?$AA_?$AAh?$AAe?$AAl?$AAp?$AAe?$AAr?$AA?$AA@ 000000018007ca60     LIBCMTD:vswprint.obj
 0002:0000ba88       ??_C@_1CE@IGKFIJFD@?$AA_?$AAv?$AAs?$AAw?$AAp?$AAr?$AAi?$AAn?$AAt?$AAf?$AA_?$AAh?$AAe?$AAl?$AAp?$AAe?$AAr?$AA?$AA@ 000000018007ca88     LIBCMTD:vswprnc.obj
 0002:0000bab0       ??_C@_1BO@OALHJLCI@?$AA_?$AAv?$AAs?$AAw?$AAp?$AAr?$AAi?$AAn?$AAt?$AAf?$AA_?$AAs?$AA_?$AAl?$AA?$AA@ 000000018007cab0     LIBCMTD:vswprnc.obj
 0002:0000bad0       ??_C@_1EE@MPCHJFGP@?$AAs?$AAt?$AAr?$AAi?$AAn?$AAg?$AA?5?$AA?$CB?$AA?$DN?$AA?5?$AAN?$AAU?$AAL?$AAL?$AA?5?$AA?$CG?$AA?$CG?$AA?5?$AAs?$AAi?$AAz?$AAe?$AAI?$AAn?$AAW?$AAo?$AAr?$AAd?$AAs?$AA?5?$AA?$DO?$AA?5@ 000000018007cad0     LIBCMTD:vswprnc.obj
 0002:0000bb18       ??_C@_1CA@BKFKMJFF@?$AA_?$AAv?$AAs?$AAn?$AAw?$AAp?$AAr?$AAi?$AAn?$AAt?$AAf?$AA_?$AAs?$AA_?$AAl?$AA?$AA@ 000000018007cb18     LIBCMTD:vswprnc.obj
 0002:0000bb38       ??_C@_1BG@BBCDFOMA@?$AA_?$AAw?$AAo?$AAu?$AAt?$AAp?$AAu?$AAt?$AA_?$AAl?$AA?$AA@ 000000018007cb38     LIBCMTD:woutput.obj
 0002:0000bb50       ??_C@_1BC@HGPNAKGC@?$AAs?$AAt?$AAr?$AAc?$AAa?$AAt?$AA_?$AAs?$AA?$AA@ 000000018007cb50     LIBCMTD:strcat_s.obj
 0002:0000bb70       ??_C@_1GG@LKIPKMBN@?$AAf?$AA?3?$AA?2?$AAd?$AAd?$AA?2?$AAv?$AAc?$AAt?$AAo?$AAo?$AAl?$AAs?$AA?2?$AAc?$AAr?$AAt?$AA_?$AAb?$AAl?$AAd?$AA?2?$AAs?$AAe?$AAl?$AAf?$AA_?$AA6?$AA4?$AA_?$AAa?$AAm@ 000000018007cb70     LIBCMTD:xtoas.obj
 0002:0000bbd8       ??_C@_1O@GIMBNLEI@?$AAx?$AAt?$AAo?$AAa?$AA_?$AAs?$AA?$AA@ 000000018007cbd8     LIBCMTD:xtoas.obj
 0002:0000bbe8       ??_C@_1CC@JNJFIMGE@?$AAs?$AAi?$AAz?$AAe?$AAI?$AAn?$AAT?$AAC?$AAh?$AAa?$AAr?$AAs?$AA?5?$AA?$DO?$AA?5?$AA0?$AA?$AA@ 000000018007cbe8     LIBCMTD:xtoas.obj
 0002:0000bc10       ??_C@_1FA@MKGGAGEI@?$AAs?$AAi?$AAz?$AAe?$AAI?$AAn?$AAT?$AAC?$AAh?$AAa?$AAr?$AAs?$AA?5?$AA?$DO?$AA?5?$AA?$CI?$AAs?$AAi?$AAz?$AAe?$AA_?$AAt?$AA?$CJ?$AA?$CI?$AAi?$AAs?$AA_?$AAn?$AAe?$AAg?$AA?5?$AA?$DP@ 000000018007cc10     LIBCMTD:xtoas.obj
 0002:0000bc60       ??_C@_1DE@PCJGDBBD@?$AA2?$AA?5?$AA?$DM?$AA?$DN?$AA?5?$AAr?$AAa?$AAd?$AAi?$AAx?$AA?5?$AA?$CG?$AA?$CG?$AA?5?$AAr?$AAa?$AAd?$AAi?$AAx?$AA?5?$AA?$DM?$AA?$DN?$AA?5?$AA3?$AA6?$AA?$AA@ 000000018007cc60     LIBCMTD:xtoas.obj
 0002:0000bc98       ??_C@_1CM@HABGDNLJ@?$AAl?$AAe?$AAn?$AAg?$AAt?$AAh?$AA?5?$AA?$DM?$AA?5?$AAs?$AAi?$AAz?$AAe?$AAI?$AAn?$AAT?$AAC?$AAh?$AAa?$AAr?$AAs?$AA?$AA@ 000000018007cc98     LIBCMTD:xtoas.obj
 0002:0000bcc8       ??_C@_1BC@MJJNBNFN@?$AAx?$AA6?$AA4?$AAt?$AAo?$AAa?$AA_?$AAs?$AA?$AA@ 000000018007ccc8     LIBCMTD:xtoas.obj
 0002:0000bce0       ??_C@_1BE@EEKACIGI@?$AAs?$AA?5?$AA?$CB?$AA?$DN?$AA?5?$AAN?$AAU?$AAL?$AAL?$AA?$AA@ 000000018007cce0     LIBCMTD:mbstowcs.obj
 0002:0000bd00       ??_C@_1GO@CFAJLDBM@?$AAf?$AA?3?$AA?2?$AAd?$AAd?$AA?2?$AAv?$AAc?$AAt?$AAo?$AAo?$AAl?$AAs?$AA?2?$AAc?$AAr?$AAt?$AA_?$AAb?$AAl?$AAd?$AA?2?$AAs?$AAe?$AAl?$AAf?$AA_?$AA6?$AA4?$AA_?$AAa?$AAm@ 000000018007cd00     LIBCMTD:mbstowcs.obj
 0002:0000bd70       ??_C@_1CG@JEHFHLNG@?$AA_?$AAm?$AAb?$AAs?$AAt?$AAo?$AAw?$AAc?$AAs?$AA_?$AAl?$AA_?$AAh?$AAe?$AAl?$AAp?$AAe?$AAr?$AA?$AA@ 000000018007cd70     LIBCMTD:mbstowcs.obj
 0002:0000bda0       ??_C@_1JA@JKDFMOPO@?$AA?$CI?$AAp?$AAw?$AAc?$AAs?$AA?5?$AA?$DN?$AA?$DN?$AA?5?$AAN?$AAU?$AAL?$AAL?$AA?5?$AA?$CG?$AA?$CG?$AA?5?$AAs?$AAi?$AAz?$AAe?$AAI?$AAn?$AAW?$AAo?$AAr?$AAd?$AAs?$AA?5?$AA?$DN?$AA?$DN?$AA?5@ 000000018007cda0     LIBCMTD:mbstowcs.obj
 0002:0000be30       ??_C@_1BM@PHENIGHD@?$AA_?$AAm?$AAb?$AAs?$AAt?$AAo?$AAw?$AAc?$AAs?$AA_?$AAs?$AA_?$AAl?$AA?$AA@ 000000018007ce30     LIBCMTD:mbstowcs.obj
 0002:0000be50       ??_C@_1CM@LLECFMFH@?$AAb?$AAu?$AAf?$AAf?$AAe?$AAr?$AAS?$AAi?$AAz?$AAe?$AA?5?$AA?$DM?$AA?$DN?$AA?5?$AAI?$AAN?$AAT?$AA_?$AAM?$AAA?$AAX?$AA?$AA@ 000000018007ce50     LIBCMTD:mbstowcs.obj
 0002:0000be80       ??_C@_1CO@JNPEPJAL@?$AAr?$AAe?$AAt?$AAs?$AAi?$AAz?$AAe?$AA?5?$AA?$DM?$AA?$DN?$AA?5?$AAs?$AAi?$AAz?$AAe?$AAI?$AAn?$AAW?$AAo?$AAr?$AAd?$AAs?$AA?$AA@ 000000018007ce80     LIBCMTD:mbstowcs.obj
 0002:0000beb0       ??_C@_1BK@OIBENBPM@?$AAp?$AAw?$AAc?$AAs?$AA?5?$AA?$CB?$AA?$DN?$AA?5?$AAN?$AAU?$AAL?$AAL?$AA?$AA@ 000000018007ceb0     LIBCMTD:wcstombs.obj
 0002:0000bed0       ??_C@_1GO@HHGHEDDI@?$AAf?$AA?3?$AA?2?$AAd?$AAd?$AA?2?$AAv?$AAc?$AAt?$AAo?$AAo?$AAl?$AAs?$AA?2?$AAc?$AAr?$AAt?$AA_?$AAb?$AAl?$AAd?$AA?2?$AAs?$AAe?$AAl?$AAf?$AA_?$AA6?$AA4?$AA_?$AAa?$AAm@ 000000018007ced0     LIBCMTD:wcstombs.obj
 0002:0000bf40       ??_C@_1CG@LLJCAOHF@?$AA_?$AAw?$AAc?$AAs?$AAt?$AAo?$AAm?$AAb?$AAs?$AA_?$AAl?$AA_?$AAh?$AAe?$AAl?$AAp?$AAe?$AAr?$AA?$AA@ 000000018007cf40     LIBCMTD:wcstombs.obj
 0002:0000bf70       ??_C@_1IM@MFGKHGBP@?$AA?$CI?$AAd?$AAs?$AAt?$AA?5?$AA?$CB?$AA?$DN?$AA?5?$AAN?$AAU?$AAL?$AAL?$AA?5?$AA?$CG?$AA?$CG?$AA?5?$AAs?$AAi?$AAz?$AAe?$AAI?$AAn?$AAB?$AAy?$AAt?$AAe?$AAs?$AA?5?$AA?$DO?$AA?5?$AA0?$AA?$CJ@ 000000018007cf70     LIBCMTD:wcstombs.obj
 0002:0000c000       ??_C@_1BM@BDMCLLDL@?$AA_?$AAw?$AAc?$AAs?$AAt?$AAo?$AAm?$AAb?$AAs?$AA_?$AAs?$AA_?$AAl?$AA?$AA@ 000000018007d000     LIBCMTD:wcstombs.obj
 0002:0000c020       ??_C@_1CM@KEOGBFLI@?$AAs?$AAi?$AAz?$AAe?$AAI?$AAn?$AAB?$AAy?$AAt?$AAe?$AAs?$AA?5?$AA?$DO?$AA?5?$AAr?$AAe?$AAt?$AAs?$AAi?$AAz?$AAe?$AA?$AA@ 000000018007d020     LIBCMTD:wcstombs.obj
 0002:0000c050       ??_C@_1O@NCBFODOE@?$AAx?$AAt?$AAo?$AAw?$AA_?$AAs?$AA?$AA@ 000000018007d050     LIBCMTD:xtows.obj
 0002:0000c060       ??_C@_1BC@HDEJCFPB@?$AAx?$AA6?$AA4?$AAt?$AAo?$AAw?$AA_?$AAs?$AA?$AA@ 000000018007d060     LIBCMTD:xtows.obj
 0002:0000c080       ??_C@_1GM@EOKIPIBP@?$AAf?$AA?3?$AA?2?$AAd?$AAd?$AA?2?$AAv?$AAc?$AAt?$AAo?$AAo?$AAl?$AAs?$AA?2?$AAc?$AAr?$AAt?$AA_?$AAb?$AAl?$AAd?$AA?2?$AAs?$AAe?$AAl?$AAf?$AA_?$AA6?$AA4?$AA_?$AAa?$AAm@ 000000018007d080     LIBCMTD:vprintf.obj
 0002:0000c0f0       ??_C@_1BO@JGFPDJCP@?$AAv?$AAp?$AAr?$AAi?$AAn?$AAt?$AAf?$AA_?$AAh?$AAe?$AAl?$AAp?$AAe?$AAr?$AA?$AA@ 000000018007d0f0     LIBCMTD:vprintf.obj
 0002:0000c110       ??_C@_0DH@OFDAFCDL@f?3?2dd?2vctools?2crt_bld?2self_64_am@ 000000018007d110     LIBCMTD:initctyp.obj
 0002:0000c150       ??_C@_1GO@HFNANBHP@?$AAf?$AA?3?$AA?2?$AAd?$AAd?$AA?2?$AAv?$AAc?$AAt?$AAo?$AAo?$AAl?$AAs?$AA?2?$AAc?$AAr?$AAt?$AA_?$AAb?$AAl?$AAd?$AA?2?$AAs?$AAe?$AAl?$AAf?$AA_?$AA6?$AA4?$AA_?$AAa?$AAm@ 000000018007d150     LIBCMTD:initctyp.obj
 0002:0000c1c0       ??_C@_1DG@NMBGBDM@?$AAp?$AAl?$AAo?$AAc?$AAi?$AA?9?$AA?$DO?$AAc?$AAt?$AAy?$AAp?$AAe?$AA1?$AA_?$AAr?$AAe?$AAf?$AAc?$AAo?$AAu?$AAn?$AAt?$AA?5?$AA?$DO?$AA?5?$AA0?$AA?$AA@ 000000018007d1c0     LIBCMTD:initctyp.obj
 0002:0000c1f8       _pDestructExceptionObject  000000018007d1f8     LIBCMTD:frame.obj
 0002:0000c208       ??_7bad_exception@std@@6B@ 000000018007d208     LIBCMTD:frame.obj
 0002:0000c218       ??_C@_0O@DPKOEFFH@bad?5exception?$AA@ 000000018007d218     LIBCMTD:frame.obj
 0002:0000c230       __rg_language              000000018007d230     LIBCMTD:getqloc.obj
 0002:0000c640       ??_C@_1BC@LLOKLNP@?$AAa?$AAm?$AAe?$AAr?$AAi?$AAc?$AAa?$AAn?$AA?$AA@ 000000018007d640     LIBCMTD:getqloc.obj
 0002:0000c658       ??_C@_1CC@HEIGCDGG@?$AAa?$AAm?$AAe?$AAr?$AAi?$AAc?$AAa?$AAn?$AA?5?$AAe?$AAn?$AAg?$AAl?$AAi?$AAs?$AAh?$AA?$AA@ 000000018007d658     LIBCMTD:getqloc.obj
 0002:0000c680       ??_C@_1CC@IHCNOMIN@?$AAa?$AAm?$AAe?$AAr?$AAi?$AAc?$AAa?$AAn?$AA?9?$AAe?$AAn?$AAg?$AAl?$AAi?$AAs?$AAh?$AA?$AA@ 000000018007d680     LIBCMTD:getqloc.obj
 0002:0000c6a8       ??_C@_1BG@GKAGPCGG@?$AAa?$AAu?$AAs?$AAt?$AAr?$AAa?$AAl?$AAi?$AAa?$AAn?$AA?$AA@ 000000018007d6a8     LIBCMTD:getqloc.obj
 0002:0000c6c0       ??_C@_1BA@GMENCENF@?$AAb?$AAe?$AAl?$AAg?$AAi?$AAa?$AAn?$AA?$AA@ 000000018007d6c0     LIBCMTD:getqloc.obj
 0002:0000c6d0       ??_C@_1BC@PJMIIAAN@?$AAc?$AAa?$AAn?$AAa?$AAd?$AAi?$AAa?$AAn?$AA?$AA@ 000000018007d6d0     LIBCMTD:getqloc.obj
 0002:0000c6e8       ??_C@_17NOIMNFBF@?$AAc?$AAh?$AAh?$AA?$AA@ 000000018007d6e8     LIBCMTD:getqloc.obj
 0002:0000c6f0       ??_C@_17GGDALCHA@?$AAc?$AAh?$AAi?$AA?$AA@ 000000018007d6f0     LIBCMTD:getqloc.obj
 0002:0000c6f8       ??_C@_1BA@NPNJKIBL@?$AAc?$AAh?$AAi?$AAn?$AAe?$AAs?$AAe?$AA?$AA@ 000000018007d6f8     LIBCMTD:getqloc.obj
 0002:0000c708       ??_C@_1CC@DINBAMMJ@?$AAc?$AAh?$AAi?$AAn?$AAe?$AAs?$AAe?$AA?9?$AAh?$AAo?$AAn?$AAg?$AAk?$AAo?$AAn?$AAg?$AA?$AA@ 000000018007d708     LIBCMTD:getqloc.obj
 0002:0000c730       ??_C@_1CG@IOBJPACO@?$AAc?$AAh?$AAi?$AAn?$AAe?$AAs?$AAe?$AA?9?$AAs?$AAi?$AAm?$AAp?$AAl?$AAi?$AAf?$AAi?$AAe?$AAd?$AA?$AA@ 000000018007d730     LIBCMTD:getqloc.obj
 0002:0000c758       ??_C@_1CE@GAJNDCKG@?$AAc?$AAh?$AAi?$AAn?$AAe?$AAs?$AAe?$AA?9?$AAs?$AAi?$AAn?$AAg?$AAa?$AAp?$AAo?$AAr?$AAe?$AA?$AA@ 000000018007d758     LIBCMTD:getqloc.obj
 0002:0000c780       ??_C@_1CI@PAJPIOOD@?$AAc?$AAh?$AAi?$AAn?$AAe?$AAs?$AAe?$AA?9?$AAt?$AAr?$AAa?$AAd?$AAi?$AAt?$AAi?$AAo?$AAn?$AAa?$AAl?$AA?$AA@ 000000018007d780     LIBCMTD:getqloc.obj
 0002:0000c7a8       ??_C@_1BM@NILJBMMD@?$AAd?$AAu?$AAt?$AAc?$AAh?$AA?9?$AAb?$AAe?$AAl?$AAg?$AAi?$AAa?$AAn?$AA?$AA@ 000000018007d7a8     LIBCMTD:getqloc.obj
 0002:0000c7c8       ??_C@_1CC@OOJPJNEJ@?$AAe?$AAn?$AAg?$AAl?$AAi?$AAs?$AAh?$AA?9?$AAa?$AAm?$AAe?$AAr?$AAi?$AAc?$AAa?$AAn?$AA?$AA@ 000000018007d7c8     LIBCMTD:getqloc.obj
 0002:0000c7f0       ??_C@_1BI@IOLFEEM@?$AAe?$AAn?$AAg?$AAl?$AAi?$AAs?$AAh?$AA?9?$AAa?$AAu?$AAs?$AA?$AA@ 000000018007d7f0     LIBCMTD:getqloc.obj
 0002:0000c808       ??_C@_1BO@HFFNLENJ@?$AAe?$AAn?$AAg?$AAl?$AAi?$AAs?$AAh?$AA?9?$AAb?$AAe?$AAl?$AAi?$AAz?$AAe?$AA?$AA@ 000000018007d808     LIBCMTD:getqloc.obj
 0002:0000c828       ??_C@_1BI@HAPKJMPO@?$AAe?$AAn?$AAg?$AAl?$AAi?$AAs?$AAh?$AA?9?$AAc?$AAa?$AAn?$AA?$AA@ 000000018007d828     LIBCMTD:getqloc.obj
 0002:0000c840       ??_C@_1CE@HLNDMIOJ@?$AAe?$AAn?$AAg?$AAl?$AAi?$AAs?$AAh?$AA?9?$AAc?$AAa?$AAr?$AAi?$AAb?$AAb?$AAe?$AAa?$AAn?$AA?$AA@ 000000018007d840     LIBCMTD:getqloc.obj
 0002:0000c868       ??_C@_1BI@LDHJHHAC@?$AAe?$AAn?$AAg?$AAl?$AAi?$AAs?$AAh?$AA?9?$AAi?$AAr?$AAe?$AA?$AA@ 000000018007d868     LIBCMTD:getqloc.obj
 0002:0000c880       ??_C@_1CA@NJMMCFOC@?$AAe?$AAn?$AAg?$AAl?$AAi?$AAs?$AAh?$AA?9?$AAj?$AAa?$AAm?$AAa?$AAi?$AAc?$AAa?$AA?$AA@ 000000018007d880     LIBCMTD:getqloc.obj
 0002:0000c8a0       ??_C@_1BG@BHJEBBGG@?$AAe?$AAn?$AAg?$AAl?$AAi?$AAs?$AAh?$AA?9?$AAn?$AAz?$AA?$AA@ 000000018007d8a0     LIBCMTD:getqloc.obj
 0002:0000c8b8       ??_C@_1CK@FGOEJJCO@?$AAe?$AAn?$AAg?$AAl?$AAi?$AAs?$AAh?$AA?9?$AAs?$AAo?$AAu?$AAt?$AAh?$AA?5?$AAa?$AAf?$AAr?$AAi?$AAc?$AAa?$AA?$AA@ 000000018007d8b8     LIBCMTD:getqloc.obj
 0002:0000c8e8       ??_C@_1DE@PDBJPCJ@?$AAe?$AAn?$AAg?$AAl?$AAi?$AAs?$AAh?$AA?9?$AAt?$AAr?$AAi?$AAn?$AAi?$AAd?$AAa?$AAd?$AA?5?$AAy?$AA?5?$AAt?$AAo?$AAb?$AAa?$AAg?$AAo?$AA?$AA@ 000000018007d8e8     LIBCMTD:getqloc.obj
 0002:0000c920       ??_C@_1BG@JGCANDME@?$AAe?$AAn?$AAg?$AAl?$AAi?$AAs?$AAh?$AA?9?$AAu?$AAk?$AA?$AA@ 000000018007d920     LIBCMTD:getqloc.obj
 0002:0000c938       ??_C@_1BG@DINKMLE@?$AAe?$AAn?$AAg?$AAl?$AAi?$AAs?$AAh?$AA?9?$AAu?$AAs?$AA?$AA@ 000000018007d938     LIBCMTD:getqloc.obj
 0002:0000c950       ??_C@_1BI@NMFDBHJE@?$AAe?$AAn?$AAg?$AAl?$AAi?$AAs?$AAh?$AA?9?$AAu?$AAs?$AAa?$AA?$AA@ 000000018007d950     LIBCMTD:getqloc.obj
 0002:0000c968       ??_C@_1BO@OIHKJKII@?$AAf?$AAr?$AAe?$AAn?$AAc?$AAh?$AA?9?$AAb?$AAe?$AAl?$AAg?$AAi?$AAa?$AAn?$AA?$AA@ 000000018007d968     LIBCMTD:getqloc.obj
 0002:0000c988       ??_C@_1CA@NKAELJKI@?$AAf?$AAr?$AAe?$AAn?$AAc?$AAh?$AA?9?$AAc?$AAa?$AAn?$AAa?$AAd?$AAi?$AAa?$AAn?$AA?$AA@ 000000018007d988     LIBCMTD:getqloc.obj
 0002:0000c9a8       ??_C@_1CE@MGKCNLGN@?$AAf?$AAr?$AAe?$AAn?$AAc?$AAh?$AA?9?$AAl?$AAu?$AAx?$AAe?$AAm?$AAb?$AAo?$AAu?$AAr?$AAg?$AA?$AA@ 000000018007d9a8     LIBCMTD:getqloc.obj
 0002:0000c9d0       ??_C@_1BK@CEGEAILM@?$AAf?$AAr?$AAe?$AAn?$AAc?$AAh?$AA?9?$AAs?$AAw?$AAi?$AAs?$AAs?$AA?$AA@ 000000018007d9d0     LIBCMTD:getqloc.obj
 0002:0000c9f0       ??_C@_1CA@PAFKEOCC@?$AAg?$AAe?$AAr?$AAm?$AAa?$AAn?$AA?9?$AAa?$AAu?$AAs?$AAt?$AAr?$AAi?$AAa?$AAn?$AA?$AA@ 000000018007d9f0     LIBCMTD:getqloc.obj
 0002:0000ca10       ??_C@_1CI@HCFHGOFD@?$AAg?$AAe?$AAr?$AAm?$AAa?$AAn?$AA?9?$AAl?$AAi?$AAc?$AAh?$AAt?$AAe?$AAn?$AAs?$AAt?$AAe?$AAi?$AAn?$AA?$AA@ 000000018007da10     LIBCMTD:getqloc.obj
 0002:0000ca38       ??_C@_1CE@FEDDNPDG@?$AAg?$AAe?$AAr?$AAm?$AAa?$AAn?$AA?9?$AAl?$AAu?$AAx?$AAe?$AAm?$AAb?$AAo?$AAu?$AAr?$AAg?$AA?$AA@ 000000018007da38     LIBCMTD:getqloc.obj
 0002:0000ca60       ??_C@_1BK@LIMINNMN@?$AAg?$AAe?$AAr?$AAm?$AAa?$AAn?$AA?9?$AAs?$AAw?$AAi?$AAs?$AAs?$AA?$AA@ 000000018007da60     LIBCMTD:getqloc.obj
 0002:0000ca80       ??_C@_1BM@LGMDBEPD@?$AAi?$AAr?$AAi?$AAs?$AAh?$AA?9?$AAe?$AAn?$AAg?$AAl?$AAi?$AAs?$AAh?$AA?$AA@ 000000018007da80     LIBCMTD:getqloc.obj
 0002:0000caa0       ??_C@_1BM@NNCFBAEE@?$AAi?$AAt?$AAa?$AAl?$AAi?$AAa?$AAn?$AA?9?$AAs?$AAw?$AAi?$AAs?$AAs?$AA?$AA@ 000000018007daa0     LIBCMTD:getqloc.obj
 0002:0000cac0       ??_C@_1BE@FEDJNPIB@?$AAn?$AAo?$AAr?$AAw?$AAe?$AAg?$AAi?$AAa?$AAn?$AA?$AA@ 000000018007dac0     LIBCMTD:getqloc.obj
 0002:0000cad8       ??_C@_1CC@CILKDEIE@?$AAn?$AAo?$AAr?$AAw?$AAe?$AAg?$AAi?$AAa?$AAn?$AA?9?$AAb?$AAo?$AAk?$AAm?$AAa?$AAl?$AA?$AA@ 000000018007dad8     LIBCMTD:getqloc.obj
 0002:0000cb00       ??_C@_1CE@DHMMHEPL@?$AAn?$AAo?$AAr?$AAw?$AAe?$AAg?$AAi?$AAa?$AAn?$AA?9?$AAn?$AAy?$AAn?$AAo?$AAr?$AAs?$AAk?$AA?$AA@ 000000018007db00     LIBCMTD:getqloc.obj
 0002:0000cb28       ??_C@_1CK@OPNMHECD@?$AAp?$AAo?$AAr?$AAt?$AAu?$AAg?$AAu?$AAe?$AAs?$AAe?$AA?9?$AAb?$AAr?$AAa?$AAz?$AAi?$AAl?$AAi?$AAa?$AAn?$AA?$AA@ 000000018007db28     LIBCMTD:getqloc.obj
 0002:0000cb58       ??_C@_1CE@KEEHCDB@?$AAs?$AAp?$AAa?$AAn?$AAi?$AAs?$AAh?$AA?9?$AAa?$AAr?$AAg?$AAe?$AAn?$AAt?$AAi?$AAn?$AAa?$AA?$AA@ 000000018007db58     LIBCMTD:getqloc.obj
 0002:0000cb80       ??_C@_1CA@GIAOLHJD@?$AAs?$AAp?$AAa?$AAn?$AAi?$AAs?$AAh?$AA?9?$AAb?$AAo?$AAl?$AAi?$AAv?$AAi?$AAa?$AA?$AA@ 000000018007db80     LIBCMTD:getqloc.obj
 0002:0000cba0       ??_C@_1BM@OJNDFNPD@?$AAs?$AAp?$AAa?$AAn?$AAi?$AAs?$AAh?$AA?9?$AAc?$AAh?$AAi?$AAl?$AAe?$AA?$AA@ 000000018007dba0     LIBCMTD:getqloc.obj
 0002:0000cbc0       ??_C@_1CC@OCOLPALL@?$AAs?$AAp?$AAa?$AAn?$AAi?$AAs?$AAh?$AA?9?$AAc?$AAo?$AAl?$AAo?$AAm?$AAb?$AAi?$AAa?$AA?$AA@ 000000018007dbc0     LIBCMTD:getqloc.obj
 0002:0000cbe8       ??_C@_1CG@BPOFMKBB@?$AAs?$AAp?$AAa?$AAn?$AAi?$AAs?$AAh?$AA?9?$AAc?$AAo?$AAs?$AAt?$AAa?$AA?5?$AAr?$AAi?$AAc?$AAa?$AA?$AA@ 000000018007dbe8     LIBCMTD:getqloc.obj
 0002:0000cc10       ??_C@_1DG@IGOBAPBB@?$AAs?$AAp?$AAa?$AAn?$AAi?$AAs?$AAh?$AA?9?$AAd?$AAo?$AAm?$AAi?$AAn?$AAi?$AAc?$AAa?$AAn?$AA?5?$AAr?$AAe?$AAp?$AAu?$AAb?$AAl?$AAi?$AAc?$AA?$AA@ 000000018007dc10     LIBCMTD:getqloc.obj
 0002:0000cc48       ??_C@_1CA@JHAPGEGI@?$AAs?$AAp?$AAa?$AAn?$AAi?$AAs?$AAh?$AA?9?$AAe?$AAc?$AAu?$AAa?$AAd?$AAo?$AAr?$AA?$AA@ 000000018007dc48     LIBCMTD:getqloc.obj
 0002:0000cc68       ??_C@_1CI@LAPALJPP@?$AAs?$AAp?$AAa?$AAn?$AAi?$AAs?$AAh?$AA?9?$AAe?$AAl?$AA?5?$AAs?$AAa?$AAl?$AAv?$AAa?$AAd?$AAo?$AAr?$AA?$AA@ 000000018007dc68     LIBCMTD:getqloc.obj
 0002:0000cc90       ??_C@_1CE@PDGBOFOM@?$AAs?$AAp?$AAa?$AAn?$AAi?$AAs?$AAh?$AA?9?$AAg?$AAu?$AAa?$AAt?$AAe?$AAm?$AAa?$AAl?$AAa?$AA?$AA@ 000000018007dc90     LIBCMTD:getqloc.obj
 0002:0000ccb8       ??_C@_1CC@NBEBAODI@?$AAs?$AAp?$AAa?$AAn?$AAi?$AAs?$AAh?$AA?9?$AAh?$AAo?$AAn?$AAd?$AAu?$AAr?$AAa?$AAs?$AA?$AA@ 000000018007dcb8     LIBCMTD:getqloc.obj
 0002:0000cce0       ??_C@_1CA@LLKGHBMF@?$AAs?$AAp?$AAa?$AAn?$AAi?$AAs?$AAh?$AA?9?$AAm?$AAe?$AAx?$AAi?$AAc?$AAa?$AAn?$AA?$AA@ 000000018007dce0     LIBCMTD:getqloc.obj
 0002:0000cd00       ??_C@_1BO@LKNDOIGD@?$AAs?$AAp?$AAa?$AAn?$AAi?$AAs?$AAh?$AA?9?$AAm?$AAo?$AAd?$AAe?$AAr?$AAn?$AA?$AA@ 000000018007dd00     LIBCMTD:getqloc.obj
 0002:0000cd20       ??_C@_1CE@NMDMOEEB@?$AAs?$AAp?$AAa?$AAn?$AAi?$AAs?$AAh?$AA?9?$AAn?$AAi?$AAc?$AAa?$AAr?$AAa?$AAg?$AAu?$AAa?$AA?$AA@ 000000018007dd20     LIBCMTD:getqloc.obj
 0002:0000cd48       ??_C@_1BO@LLCBEJGB@?$AAs?$AAp?$AAa?$AAn?$AAi?$AAs?$AAh?$AA?9?$AAp?$AAa?$AAn?$AAa?$AAm?$AAa?$AA?$AA@ 000000018007dd48     LIBCMTD:getqloc.obj
 0002:0000cd68       ??_C@_1CC@FKPGGIHO@?$AAs?$AAp?$AAa?$AAn?$AAi?$AAs?$AAh?$AA?9?$AAp?$AAa?$AAr?$AAa?$AAg?$AAu?$AAa?$AAy?$AA?$AA@ 000000018007dd68     LIBCMTD:getqloc.obj
 0002:0000cd90       ??_C@_1BK@CDEIHOOP@?$AAs?$AAp?$AAa?$AAn?$AAi?$AAs?$AAh?$AA?9?$AAp?$AAe?$AAr?$AAu?$AA?$AA@ 000000018007dd90     LIBCMTD:getqloc.obj
 0002:0000cdb0       ??_C@_1CI@GAHAKKGP@?$AAs?$AAp?$AAa?$AAn?$AAi?$AAs?$AAh?$AA?9?$AAp?$AAu?$AAe?$AAr?$AAt?$AAo?$AA?5?$AAr?$AAi?$AAc?$AAo?$AA?$AA@ 000000018007ddb0     LIBCMTD:getqloc.obj
 0002:0000cdd8       ??_C@_1CA@NKJBCAGP@?$AAs?$AAp?$AAa?$AAn?$AAi?$AAs?$AAh?$AA?9?$AAu?$AAr?$AAu?$AAg?$AAu?$AAa?$AAy?$AA?$AA@ 000000018007ddd8     LIBCMTD:getqloc.obj
 0002:0000cdf8       ??_C@_1CE@ODILCONM@?$AAs?$AAp?$AAa?$AAn?$AAi?$AAs?$AAh?$AA?9?$AAv?$AAe?$AAn?$AAe?$AAz?$AAu?$AAe?$AAl?$AAa?$AA?$AA@ 000000018007ddf8     LIBCMTD:getqloc.obj
 0002:0000ce20       ??_C@_1CA@OBNMCGFO@?$AAs?$AAw?$AAe?$AAd?$AAi?$AAs?$AAh?$AA?9?$AAf?$AAi?$AAn?$AAl?$AAa?$AAn?$AAd?$AA?$AA@ 000000018007de20     LIBCMTD:getqloc.obj
 0002:0000ce40       ??_C@_1M@PIPDDPPI@?$AAs?$AAw?$AAi?$AAs?$AAs?$AA?$AA@ 000000018007de40     LIBCMTD:getqloc.obj
 0002:0000ce4c       ??_C@_15PJPFLCCM@?$AAu?$AAk?$AA?$AA@ 000000018007de4c     LIBCMTD:getqloc.obj
 0002:0000ce54       ??_C@_15GMFIMNFM@?$AAu?$AAs?$AA?$AA@ 000000018007de54     LIBCMTD:getqloc.obj
 0002:0000ce60       ??_C@_17HAEBFAGL@?$AAu?$AAs?$AAa?$AA?$AA@ 000000018007de60     LIBCMTD:getqloc.obj
 0002:0000ce70       __rg_country               000000018007de70     LIBCMTD:getqloc.obj
 0002:0000cfe0       ??_C@_1BA@DPFJEPHB@?$AAa?$AAm?$AAe?$AAr?$AAi?$AAc?$AAa?$AA?$AA@ 000000018007dfe0     LIBCMTD:getqloc.obj
 0002:0000cff0       ??_C@_1BA@ELOGGFK@?$AAb?$AAr?$AAi?$AAt?$AAa?$AAi?$AAn?$AA?$AA@ 000000018007dff0     LIBCMTD:getqloc.obj
 0002:0000d000       ??_C@_1M@GHBGIGDA@?$AAc?$AAh?$AAi?$AAn?$AAa?$AA?$AA@ 000000018007e000     LIBCMTD:getqloc.obj
 0002:0000d010       ??_C@_1M@NCHEJOPO@?$AAc?$AAz?$AAe?$AAc?$AAh?$AA?$AA@ 000000018007e010     LIBCMTD:getqloc.obj
 0002:0000d020       ??_C@_1BA@BKPAPBLA@?$AAe?$AAn?$AAg?$AAl?$AAa?$AAn?$AAd?$AA?$AA@ 000000018007e020     LIBCMTD:getqloc.obj
 0002:0000d030       ??_C@_1BM@HKBCKIPC@?$AAg?$AAr?$AAe?$AAa?$AAt?$AA?5?$AAb?$AAr?$AAi?$AAt?$AAa?$AAi?$AAn?$AA?$AA@ 000000018007e030     LIBCMTD:getqloc.obj
 0002:0000d050       ??_C@_1BA@PPCHPGJB@?$AAh?$AAo?$AAl?$AAl?$AAa?$AAn?$AAd?$AA?$AA@ 000000018007e050     LIBCMTD:getqloc.obj
 0002:0000d060       ??_C@_1BE@JBMPEGDG@?$AAh?$AAo?$AAn?$AAg?$AA?9?$AAk?$AAo?$AAn?$AAg?$AA?$AA@ 000000018007e060     LIBCMTD:getqloc.obj
 0002:0000d078       ??_C@_1BI@KOELBBPJ@?$AAn?$AAe?$AAw?$AA?9?$AAz?$AAe?$AAa?$AAl?$AAa?$AAn?$AAd?$AA?$AA@ 000000018007e078     LIBCMTD:getqloc.obj
 0002:0000d090       ??_C@_15HIEBHAIO@?$AAn?$AAz?$AA?$AA@ 000000018007e090     LIBCMTD:getqloc.obj
 0002:0000d098       ??_C@_1BC@CHBCPFPI@?$AAp?$AAr?$AA?5?$AAc?$AAh?$AAi?$AAn?$AAa?$AA?$AA@ 000000018007e098     LIBCMTD:getqloc.obj
 0002:0000d0b0       ??_C@_1BC@JAOIIFKD@?$AAp?$AAr?$AA?9?$AAc?$AAh?$AAi?$AAn?$AAa?$AA?$AA@ 000000018007e0b0     LIBCMTD:getqloc.obj
 0002:0000d0c8       ??_C@_1BI@BEHPPHKC@?$AAp?$AAu?$AAe?$AAr?$AAt?$AAo?$AA?9?$AAr?$AAi?$AAc?$AAo?$AA?$AA@ 000000018007e0c8     LIBCMTD:getqloc.obj
 0002:0000d0e0       ??_C@_1O@PAEOFKDI@?$AAs?$AAl?$AAo?$AAv?$AAa?$AAk?$AA?$AA@ 000000018007e0e0     LIBCMTD:getqloc.obj
 0002:0000d0f0       ??_C@_1BK@FIHMCKAM@?$AAs?$AAo?$AAu?$AAt?$AAh?$AA?5?$AAa?$AAf?$AAr?$AAi?$AAc?$AAa?$AA?$AA@ 000000018007e0f0     LIBCMTD:getqloc.obj
 0002:0000d110       ??_C@_1BI@NAEOODKB@?$AAs?$AAo?$AAu?$AAt?$AAh?$AA?5?$AAk?$AAo?$AAr?$AAe?$AAa?$AA?$AA@ 000000018007e110     LIBCMTD:getqloc.obj
 0002:0000d128       ??_C@_1BK@FBDGGIFF@?$AAs?$AAo?$AAu?$AAt?$AAh?$AA?9?$AAa?$AAf?$AAr?$AAi?$AAc?$AAa?$AA?$AA@ 000000018007e128     LIBCMTD:getqloc.obj
 0002:0000d148       ??_C@_1BI@GHLEJDPK@?$AAs?$AAo?$AAu?$AAt?$AAh?$AA?9?$AAk?$AAo?$AAr?$AAe?$AAa?$AA?$AA@ 000000018007e148     LIBCMTD:getqloc.obj
 0002:0000d160       ??_C@_1CE@PLHLOMJF@?$AAt?$AAr?$AAi?$AAn?$AAi?$AAd?$AAa?$AAd?$AA?5?$AA?$CG?$AA?5?$AAt?$AAo?$AAb?$AAa?$AAg?$AAo?$AA?$AA@ 000000018007e160     LIBCMTD:getqloc.obj
 0002:0000d188       ??_C@_1BO@MODIMHHI@?$AAu?$AAn?$AAi?$AAt?$AAe?$AAd?$AA?9?$AAk?$AAi?$AAn?$AAg?$AAd?$AAo?$AAm?$AA?$AA@ 000000018007e188     LIBCMTD:getqloc.obj
 0002:0000d1a8       ??_C@_1BM@FFHJONBJ@?$AAu?$AAn?$AAi?$AAt?$AAe?$AAd?$AA?9?$AAs?$AAt?$AAa?$AAt?$AAe?$AAs?$AA?$AA@ 000000018007e1a8     LIBCMTD:getqloc.obj
 0002:0000d1d0       ??_C@_1GM@HMLPPENJ@?$AAf?$AA?3?$AA?2?$AAd?$AAd?$AA?2?$AAv?$AAc?$AAt?$AAo?$AAo?$AAl?$AAs?$AA?2?$AAc?$AAr?$AAt?$AA_?$AAb?$AAl?$AAd?$AA?2?$AAs?$AAe?$AAl?$AAf?$AA_?$AA6?$AA4?$AA_?$AAa?$AAm@ 000000018007e1d0     LIBCMTD:getqloc.obj
 0002:0000d240       ??_C@_1CO@NJACLALJ@?$AA_?$AA_?$AAg?$AAe?$AAt?$AA_?$AAq?$AAu?$AAa?$AAl?$AAi?$AAf?$AAi?$AAe?$AAd?$AA_?$AAl?$AAo?$AAc?$AAa?$AAl?$AAe?$AA?$AA@ 000000018007e240     LIBCMTD:getqloc.obj
 0002:0000d270       ??_C@_1BGM@FCCPEFDE@?$AAw?$AAc?$AAs?$AAn?$AAc?$AAp?$AAy?$AA_?$AAs?$AA?$CI?$AAl?$AAp?$AAO?$AAu?$AAt?$AAS?$AAt?$AAr?$AA?9?$AA?$DO?$AAs?$AAz?$AAL?$AAo?$AAc?$AAa?$AAl?$AAe?$AAN?$AAa?$AAm?$AAe@ 000000018007e270     LIBCMTD:getqloc.obj
 0002:0000d3e0       ??_C@_1CM@OGEMFJNJ@?$AAL?$AAa?$AAn?$AAg?$AAC?$AAo?$AAu?$AAn?$AAt?$AAr?$AAy?$AAE?$AAn?$AAu?$AAm?$AAP?$AAr?$AAo?$AAc?$AAE?$AAx?$AA?$AA@ 000000018007e3e0     LIBCMTD:getqloc.obj
 0002:0000d410       ??_C@_1BFO@LLJKJAIC@?$AAw?$AAc?$AAs?$AAn?$AAc?$AAp?$AAy?$AA_?$AAs?$AA?$CI?$AA_?$AAp?$AAs?$AAe?$AAt?$AAl?$AAo?$AAc?$AA_?$AAd?$AAa?$AAt?$AAa?$AA?9?$AA?$DO?$AA_?$AAc?$AAa?$AAc?$AAh?$AAe?$AAL@ 000000018007e410     LIBCMTD:getqloc.obj
 0002:0000d570       ??_C@_1CG@PGLLICHO@?$AAL?$AAa?$AAn?$AAg?$AAu?$AAa?$AAg?$AAe?$AAE?$AAn?$AAu?$AAm?$AAP?$AAr?$AAo?$AAc?$AAE?$AAx?$AA?$AA@ 000000018007e570     LIBCMTD:getqloc.obj
 0002:0000d598       ??_C@_1DC@CPKFANGP@?$AAG?$AAe?$AAt?$AAL?$AAo?$AAc?$AAa?$AAl?$AAe?$AAN?$AAa?$AAm?$AAe?$AAF?$AAr?$AAo?$AAm?$AAD?$AAe?$AAf?$AAa?$AAu?$AAl?$AAt?$AA?$AA@ 000000018007e598     LIBCMTD:getqloc.obj
 0002:0000d5d0       ??_C@_1BEO@EJBNGKHB@?$AAw?$AAc?$AAs?$AAn?$AAc?$AAp?$AAy?$AA_?$AAs?$AA?$CI?$AA_?$AAp?$AAs?$AAe?$AAt?$AAl?$AAo?$AAc?$AA_?$AAd?$AAa?$AAt?$AAa?$AA?9?$AA?$DO?$AA_?$AAc?$AAa?$AAc?$AAh?$AAe?$AAL@ 000000018007e5d0     LIBCMTD:getqloc.obj
 0002:0000d720       ??_C@_17DNCLJFIF@?$AAA?$AAC?$AAP?$AA?$AA@ 000000018007e720     LIBCMTD:getqloc.obj
 0002:0000d728       ??_C@_17CIKBIHLH@?$AAO?$AAC?$AAP?$AA?$AA@ 000000018007e728     LIBCMTD:getqloc.obj
 0002:0000d730       ??_C@_1IA@PDJAFEKJ@?$AAf?$AA?3?$AA?2?$AAd?$AAd?$AA?2?$AAv?$AAc?$AAt?$AAo?$AAo?$AAl?$AAs?$AA?2?$AAc?$AAr?$AAt?$AA_?$AAb?$AAl?$AAd?$AA?2?$AAs?$AAe?$AAl?$AAf?$AA_?$AA6?$AA4?$AA_?$AAa?$AAm@ 000000018007e730     LIBCMTD:x10fout.obj
 0002:0000d7b0       ??_C@_1BI@ELMAAFLN@?$AA$?$AAI?$AA1?$AA0?$AA_?$AAO?$AAU?$AAT?$AAP?$AAU?$AAT?$AA?$AA@ 000000018007e7b0     LIBCMTD:x10fout.obj
 0002:0000d7d0       ??_C@_1EG@CDDBFNOB@?$AAs?$AAt?$AAr?$AAc?$AAp?$AAy?$AA_?$AAs?$AA?$CI?$AAf?$AAo?$AAs?$AA?9?$AA?$DO?$AAm?$AAa?$AAn?$AA?0?$AA?5?$AA2?$AA1?$AA?$CL?$AA1?$AA?0?$AA?5?$AA?$CC?$AA1?$AA?$CD?$AAS?$AAN?$AAA?$AAN@ 000000018007e7d0     LIBCMTD:x10fout.obj
 0002:0000d818       ??_C@_06PGGFOGJG@1?$CDSNAN?$AA@ 000000018007e818     LIBCMTD:x10fout.obj
 0002:0000d820       ??_C@_1EE@MADEBIHF@?$AAs?$AAt?$AAr?$AAc?$AAp?$AAy?$AA_?$AAs?$AA?$CI?$AAf?$AAo?$AAs?$AA?9?$AA?$DO?$AAm?$AAa?$AAn?$AA?0?$AA?5?$AA2?$AA1?$AA?$CL?$AA1?$AA?0?$AA?5?$AA?$CC?$AA1?$AA?$CD?$AAI?$AAN?$AAD?$AA?$CC@ 000000018007e820     LIBCMTD:x10fout.obj
 0002:0000d864       ??_C@_05PHHOCPM@1?$CDIND?$AA@ 000000018007e864     LIBCMTD:x10fout.obj
 0002:0000d870       ??_C@_1EE@ICBBBPAI@?$AAs?$AAt?$AAr?$AAc?$AAp?$AAy?$AA_?$AAs?$AA?$CI?$AAf?$AAo?$AAs?$AA?9?$AA?$DO?$AAm?$AAa?$AAn?$AA?0?$AA?5?$AA2?$AA1?$AA?$CL?$AA1?$AA?0?$AA?5?$AA?$CC?$AA1?$AA?$CD?$AAI?$AAN?$AAF?$AA?$CC@ 000000018007e870     LIBCMTD:x10fout.obj
 0002:0000d8b4       ??_C@_05DNEBIAHO@1?$CDINF?$AA@ 000000018007e8b4     LIBCMTD:x10fout.obj
 0002:0000d8c0       ??_C@_1EG@MCFPJJEM@?$AAs?$AAt?$AAr?$AAc?$AAp?$AAy?$AA_?$AAs?$AA?$CI?$AAf?$AAo?$AAs?$AA?9?$AA?$DO?$AAm?$AAa?$AAn?$AA?0?$AA?5?$AA2?$AA1?$AA?$CL?$AA1?$AA?0?$AA?5?$AA?$CC?$AA1?$AA?$CD?$AAQ?$AAN?$AAA?$AAN@ 000000018007e8c0     LIBCMTD:x10fout.obj
 0002:0000d908       ??_C@_06IMKFLFPG@1?$CDQNAN?$AA@ 000000018007e908     LIBCMTD:x10fout.obj
 0002:0000d910       ??_C@_1HC@KFLBHHBC@?$AA?$CI?$AAf?$AAi?$AAl?$AAe?$AAd?$AAe?$AAs?$AA?5?$AA?$DO?$AA?$DN?$AA?5?$AA0?$AA?5?$AA?$CG?$AA?$CG?$AA?5?$AA?$CI?$AAu?$AAn?$AAs?$AAi?$AAg?$AAn?$AAe?$AAd?$AA?$CJ?$AAf?$AAi?$AAl?$AAe?$AAd@ 000000018007e910     LIBCMTD:commit.obj
 0002:0000d990       ??_C@_1GK@HAHPFOGJ@?$AAf?$AA?3?$AA?2?$AAd?$AAd?$AA?2?$AAv?$AAc?$AAt?$AAo?$AAo?$AAl?$AAs?$AA?2?$AAc?$AAr?$AAt?$AA_?$AAb?$AAl?$AAd?$AA?2?$AAs?$AAe?$AAl?$AAf?$AA_?$AA6?$AA4?$AA_?$AAa?$AAm@ 000000018007e990     LIBCMTD:commit.obj
 0002:0000da00       ??_C@_1BA@FLNMBBIM@?$AA_?$AAc?$AAo?$AAm?$AAm?$AAi?$AAt?$AA?$AA@ 000000018007ea00     LIBCMTD:commit.obj
 0002:0000da10       ??_C@_1DG@LNNHNFHJ@?$AA?$CI?$AA_?$AAo?$AAs?$AAf?$AAi?$AAl?$AAe?$AA?$CI?$AAf?$AAi?$AAl?$AAe?$AAd?$AAe?$AAs?$AA?$CJ?$AA?5?$AA?$CG?$AA?5?$AAF?$AAO?$AAP?$AAE?$AAN?$AA?$CJ?$AA?$AA@ 000000018007ea10     LIBCMTD:commit.obj
 0002:0000da50       ??_C@_1GK@MCAOLDDL@?$AAf?$AA?3?$AA?2?$AAd?$AAd?$AA?2?$AAv?$AAc?$AAt?$AAo?$AAo?$AAl?$AAs?$AA?2?$AAc?$AAr?$AAt?$AA_?$AAb?$AAl?$AAd?$AA?2?$AAs?$AAe?$AAl?$AAf?$AA_?$AA6?$AA4?$AA_?$AAa?$AAm@ 000000018007ea50     LIBCMTD:fclose.obj
 0002:0000dac0       ??_C@_1O@EGMJNCOI@?$AAf?$AAc?$AAl?$AAo?$AAs?$AAe?$AA?$AA@ 000000018007eac0     LIBCMTD:fclose.obj
 0002:0000dad0       ??_C@_1BM@JMKHIAHP@?$AA?$CI?$AAs?$AAt?$AAr?$AA?5?$AA?$CB?$AA?$DN?$AA?5?$AAN?$AAU?$AAL?$AAL?$AA?$CJ?$AA?$AA@ 000000018007ead0     LIBCMTD:fclose.obj
 0002:0000daf0       ??_C@_1BO@JINCABEC@?$AA_?$AAf?$AAc?$AAl?$AAo?$AAs?$AAe?$AA_?$AAn?$AAo?$AAl?$AAo?$AAc?$AAk?$AA?$AA@ 000000018007eaf0     LIBCMTD:fclose.obj
 0002:0000db10       ??_C@_1BA@BALFACEM@?$AAC?$AAO?$AAN?$AAO?$AAU?$AAT?$AA$?$AA?$AA@ 000000018007eb10     LIBCMTD:initcon.obj
 0002:0000db20       ??_C@_1BK@GDEKGMNC@?$AA_?$AAw?$AAo?$AAu?$AAt?$AAp?$AAu?$AAt?$AA_?$AAp?$AA_?$AAl?$AA?$AA@ 000000018007eb20     LIBCMTD:woutputp.obj
 0002:0000db40       ??_C@_1BK@ONMFGLDB@?$AA_?$AAw?$AAo?$AAu?$AAt?$AAp?$AAu?$AAt?$AA_?$AAs?$AA_?$AAl?$AA?$AA@ 000000018007eb40     LIBCMTD:woutputs.obj
 0002:0000db60       ??_C@_1GK@HHALBKHE@?$AAf?$AA?3?$AA?2?$AAd?$AAd?$AA?2?$AAv?$AAc?$AAt?$AAo?$AAo?$AAl?$AAs?$AA?2?$AAc?$AAr?$AAt?$AA_?$AAb?$AAl?$AAd?$AA?2?$AAs?$AAe?$AAl?$AAf?$AA_?$AA6?$AA4?$AA_?$AAa?$AAm@ 000000018007eb60     LIBCMTD:fputwc.obj
 0002:0000dbd0       ??_C@_1O@HJNPHHHB@?$AAf?$AAp?$AAu?$AAt?$AAw?$AAc?$AA?$AA@ 000000018007ebd0     LIBCMTD:fputwc.obj
 0002:0000dbe0       ??_C@_1GM@LOECEANC@?$AAf?$AA?3?$AA?2?$AAd?$AAd?$AA?2?$AAv?$AAc?$AAt?$AAo?$AAo?$AAl?$AAs?$AA?2?$AAc?$AAr?$AAt?$AA_?$AAb?$AAl?$AAd?$AA?2?$AAs?$AAe?$AAl?$AAf?$AA_?$AA6?$AA4?$AA_?$AAa?$AAm@ 000000018007ebe0     LIBCMTD:wcsicmp.obj
 0002:0000dc50       ??_C@_1BG@EELGPCPD@?$AA_?$AAw?$AAc?$AAs?$AAi?$AAc?$AAm?$AAp?$AA_?$AAl?$AA?$AA@ 000000018007ec50     LIBCMTD:wcsicmp.obj
 0002:0000dc68       ??_C@_1BC@NHIBDOMC@?$AA_?$AAw?$AAc?$AAs?$AAi?$AAc?$AAm?$AAp?$AA?$AA@ 000000018007ec68     LIBCMTD:wcsicmp.obj
 0002:0000dc80       ??_C@_1BM@CBACDFHA@?$AAf?$AAi?$AAr?$AAs?$AAt?$AA?5?$AA?$CB?$AA?$DN?$AA?5?$AAN?$AAU?$AAL?$AAL?$AA?$AA@ 000000018007ec80     LIBCMTD:wcsnicmp.obj
 0002:0000dca0       ??_C@_1GO@LIEADEM@?$AAf?$AA?3?$AA?2?$AAd?$AAd?$AA?2?$AAv?$AAc?$AAt?$AAo?$AAo?$AAl?$AAs?$AA?2?$AAc?$AAr?$AAt?$AA_?$AAb?$AAl?$AAd?$AA?2?$AAs?$AAe?$AAl?$AAf?$AA_?$AA6?$AA4?$AA_?$AAa?$AAm@ 000000018007eca0     LIBCMTD:wcsnicmp.obj
 0002:0000dd10       ??_C@_1BI@KLMFNDBC@?$AA_?$AAw?$AAc?$AAs?$AAn?$AAi?$AAc?$AAm?$AAp?$AA_?$AAl?$AA?$AA@ 000000018007ed10     LIBCMTD:wcsnicmp.obj
 0002:0000dd28       ??_C@_1BK@LKBOPAFJ@?$AAl?$AAa?$AAs?$AAt?$AA?5?$AA?$CB?$AA?$DN?$AA?5?$AAN?$AAU?$AAL?$AAL?$AA?$AA@ 000000018007ed28     LIBCMTD:wcsnicmp.obj
 0002:0000dd48       ??_C@_1BE@JKOKKFEL@?$AA_?$AAw?$AAc?$AAs?$AAn?$AAi?$AAc?$AAm?$AAp?$AA?$AA@ 000000018007ed48     LIBCMTD:wcsnicmp.obj
 0002:0000dd60       ??_C@_1GI@EOCMABI@?$AAf?$AA?3?$AA?2?$AAd?$AAd?$AA?2?$AAv?$AAc?$AAt?$AAo?$AAo?$AAl?$AAs?$AA?2?$AAc?$AAr?$AAt?$AA_?$AAb?$AAl?$AAd?$AA?2?$AAs?$AAe?$AAl?$AAf?$AA_?$AA6?$AA4?$AA_?$AAa?$AAm@ 000000018007ed60     LIBCMTD:close.obj
 0002:0000ddc8       ??_C@_1O@EDEJGJBM@?$AA_?$AAc?$AAl?$AAo?$AAs?$AAe?$AA?$AA@ 000000018007edc8     LIBCMTD:close.obj
 0002:0000ddd8       ??_C@_1BO@KIJENGPH@?$AAs?$AAt?$AAr?$AAe?$AAa?$AAm?$AA?5?$AA?$CB?$AA?$DN?$AA?5?$AAN?$AAU?$AAL?$AAL?$AA?$AA@ 000000018007edd8     LIBCMTD:_freebuf.obj
 0002:0000de00       ??_C@_1GO@JLKGNODO@?$AAf?$AA?3?$AA?2?$AAd?$AAd?$AA?2?$AAv?$AAc?$AAt?$AAo?$AAo?$AAl?$AAs?$AA?2?$AAc?$AAr?$AAt?$AA_?$AAb?$AAl?$AAd?$AA?2?$AAs?$AAe?$AAl?$AAf?$AA_?$AA6?$AA4?$AA_?$AAa?$AAm@ 000000018007ee00     LIBCMTD:_freebuf.obj
 0002:0000de70       ??_C@_1GK@GMIOOCOH@?$AAf?$AA?3?$AA?2?$AAd?$AAd?$AA?2?$AAv?$AAc?$AAt?$AAo?$AAo?$AAl?$AAs?$AA?2?$AAc?$AAr?$AAt?$AA_?$AAb?$AAl?$AAd?$AA?2?$AAs?$AAe?$AAl?$AAf?$AA_?$AA6?$AA4?$AA_?$AAa?$AAm@ 000000018007ee70     LIBCMTD:wcstol.obj
 0002:0000dee0       ??_C@_1BA@PCFLFGNC@?$AAw?$AAc?$AAs?$AAt?$AAo?$AAx?$AAl?$AA?$AA@ 000000018007eee0     LIBCMTD:wcstol.obj
 0002:0000df20       ??_C@_1GK@ILDAMGBN@?$AAf?$AA?3?$AA?2?$AAd?$AAd?$AA?2?$AAv?$AAc?$AAt?$AAo?$AAo?$AAl?$AAs?$AA?2?$AAc?$AAr?$AAt?$AA_?$AAb?$AAl?$AAd?$AA?2?$AAs?$AAe?$AAl?$AAf?$AA_?$AA6?$AA4?$AA_?$AAa?$AAm@ 000000018007ef20     LIBCMTD:wcstoq.obj
 0002:0000df90       ??_C@_1BA@FACINJJA@?$AAw?$AAc?$AAs?$AAt?$AAo?$AAx?$AAq?$AA?$AA@ 000000018007ef90     LIBCMTD:wcstoq.obj
 0002:0000dfa0       _load_config_used          000000018007efa0     LIBCMTD:loadcfg.obj
 0002:00010bd8       ??_R4IEngine@@6B@          0000000180081bd8     CEngine.obj
 0002:00010c08       ??_R3IEngine@@8            0000000180081c08     CEngine.obj
 0002:00010c20       ??_R2IEngine@@8            0000000180081c20     CEngine.obj
 0002:00010c30       ??_R1A@?0A@EA@IEngine@@8   0000000180081c30     CEngine.obj
 0002:00010c60       ??_R4CEngine@@6B@          0000000180081c60     CEngine.obj
 0002:00010c90       ??_R3CEngine@@8            0000000180081c90     CEngine.obj
 0002:00010ca8       ??_R2CEngine@@8            0000000180081ca8     CEngine.obj
 0002:00010cc0       ??_R1A@?0A@EA@CEngine@@8   0000000180081cc0     CEngine.obj
 0002:00010cf0       ??_R4IExtensions@@6B@      0000000180081cf0     CExtensions.obj
 0002:00010d20       ??_R3IExtensions@@8        0000000180081d20     CExtensions.obj
 0002:00010d38       ??_R2IExtensions@@8        0000000180081d38     CExtensions.obj
 0002:00010d48       ??_R1A@?0A@EA@IExtensions@@8 0000000180081d48     CExtensions.obj
 0002:00010d78       ??_R4CExtensions@@6B@      0000000180081d78     CExtensions.obj
 0002:00010da8       ??_R3CExtensions@@8        0000000180081da8     CExtensions.obj
 0002:00010dc0       ??_R2CExtensions@@8        0000000180081dc0     CExtensions.obj
 0002:00010dd8       ??_R1A@?0A@EA@CExtensions@@8 0000000180081dd8     CExtensions.obj
 0002:00010e08       ??_R1A@?0A@EA@exception@std@@8 0000000180081e08     LIBCMTD:new.obj
 0002:00010e30       ??_R3exception@std@@8      0000000180081e30     LIBCMTD:new.obj
 0002:00010e48       ??_R2exception@std@@8      0000000180081e48     LIBCMTD:new.obj
 0002:00010e58       ??_R4bad_alloc@std@@6B@    0000000180081e58     LIBCMTD:new.obj
 0002:00010e80       ??_R3bad_alloc@std@@8      0000000180081e80     LIBCMTD:new.obj
 0002:00010e98       ??_R2bad_alloc@std@@8      0000000180081e98     LIBCMTD:new.obj
 0002:00010eb0       ??_R1A@?0A@EA@bad_alloc@std@@8 0000000180081eb0     LIBCMTD:new.obj
 0002:00010ed8       ??_R4type_info@@6B@        0000000180081ed8     LIBCMTD:typinfo.obj
 0002:00010f00       ??_R3type_info@@8          0000000180081f00     LIBCMTD:typinfo.obj
 0002:00010f18       ??_R2type_info@@8          0000000180081f18     LIBCMTD:typinfo.obj
 0002:00010f28       ??_R1A@?0A@EA@type_info@@8 0000000180081f28     LIBCMTD:typinfo.obj
 0002:00010f50       ??_R4exception@std@@6B@    0000000180081f50     LIBCMTD:stdexcpt.obj
 0002:00010f78       ??_R4bad_cast@std@@6B@     0000000180081f78     LIBCMTD:stdexcpt.obj
 0002:00010fa0       ??_R3bad_cast@std@@8       0000000180081fa0     LIBCMTD:stdexcpt.obj
 0002:00010fb8       ??_R2bad_cast@std@@8       0000000180081fb8     LIBCMTD:stdexcpt.obj
 0002:00010fd0       ??_R1A@?0A@EA@bad_cast@std@@8 0000000180081fd0     LIBCMTD:stdexcpt.obj
 0002:00010ff8       ??_R4bad_typeid@std@@6B@   0000000180081ff8     LIBCMTD:stdexcpt.obj
 0002:00011020       ??_R3bad_typeid@std@@8     0000000180082020     LIBCMTD:stdexcpt.obj
 0002:00011038       ??_R2bad_typeid@std@@8     0000000180082038     LIBCMTD:stdexcpt.obj
 0002:00011050       ??_R1A@?0A@EA@bad_typeid@std@@8 0000000180082050     LIBCMTD:stdexcpt.obj
 0002:00011078       ??_R4__non_rtti_object@std@@6B@ 0000000180082078     LIBCMTD:stdexcpt.obj
 0002:000110a0       ??_R3__non_rtti_object@std@@8 00000001800820a0     LIBCMTD:stdexcpt.obj
 0002:000110b8       ??_R2__non_rtti_object@std@@8 00000001800820b8     LIBCMTD:stdexcpt.obj
 0002:000110d8       ??_R1A@?0A@EA@__non_rtti_object@std@@8 00000001800820d8     LIBCMTD:stdexcpt.obj
 0002:00011100       ??_R4DNameNode@@6B@        0000000180082100     LIBCMTD:undname.obj
 0002:00011128       ??_R3DNameNode@@8          0000000180082128     LIBCMTD:undname.obj
 0002:00011140       ??_R2DNameNode@@8          0000000180082140     LIBCMTD:undname.obj
 0002:00011150       ??_R1A@?0A@EA@DNameNode@@8 0000000180082150     LIBCMTD:undname.obj
 0002:00011178       ??_R4charNode@@6B@         0000000180082178     LIBCMTD:undname.obj
 0002:000111a0       ??_R3charNode@@8           00000001800821a0     LIBCMTD:undname.obj
 0002:000111b8       ??_R2charNode@@8           00000001800821b8     LIBCMTD:undname.obj
 0002:000111d0       ??_R1A@?0A@EA@charNode@@8  00000001800821d0     LIBCMTD:undname.obj
 0002:000111f8       ??_R4pcharNode@@6B@        00000001800821f8     LIBCMTD:undname.obj
 0002:00011220       ??_R3pcharNode@@8          0000000180082220     LIBCMTD:undname.obj
 0002:00011238       ??_R2pcharNode@@8          0000000180082238     LIBCMTD:undname.obj
 0002:00011250       ??_R1A@?0A@EA@pcharNode@@8 0000000180082250     LIBCMTD:undname.obj
 0002:00011278       ??_R4pDNameNode@@6B@       0000000180082278     LIBCMTD:undname.obj
 0002:000112a0       ??_R3pDNameNode@@8         00000001800822a0     LIBCMTD:undname.obj
 0002:000112b8       ??_R2pDNameNode@@8         00000001800822b8     LIBCMTD:undname.obj
 0002:000112d0       ??_R1A@?0A@EA@pDNameNode@@8 00000001800822d0     LIBCMTD:undname.obj
 0002:000112f8       ??_R4DNameStatusNode@@6B@  00000001800822f8     LIBCMTD:undname.obj
 0002:00011320       ??_R3DNameStatusNode@@8    0000000180082320     LIBCMTD:undname.obj
 0002:00011338       ??_R2DNameStatusNode@@8    0000000180082338     LIBCMTD:undname.obj
 0002:00011350       ??_R1A@?0A@EA@DNameStatusNode@@8 0000000180082350     LIBCMTD:undname.obj
 0002:00011378       ??_R4pairNode@@6B@         0000000180082378     LIBCMTD:undname.obj
 0002:000113a0       ??_R3pairNode@@8           00000001800823a0     LIBCMTD:undname.obj
 0002:000113b8       ??_R2pairNode@@8           00000001800823b8     LIBCMTD:undname.obj
 0002:000113d0       ??_R1A@?0A@EA@pairNode@@8  00000001800823d0     LIBCMTD:undname.obj
 0002:000113f8       ??_R4bad_exception@std@@6B@ 00000001800823f8     LIBCMTD:frame.obj
 0002:00011420       ??_R3bad_exception@std@@8  0000000180082420     LIBCMTD:frame.obj
 0002:00011438       ??_R2bad_exception@std@@8  0000000180082438     LIBCMTD:frame.obj
 0002:00011450       ??_R1A@?0A@EA@bad_exception@std@@8 0000000180082450     LIBCMTD:frame.obj
 0002:000116c8       __rtc_iaa                  00000001800826c8     LIBCMTD:initsect.obj
 0002:000117d8       __rtc_izz                  00000001800827d8     LIBCMTD:initsect.obj
 0002:000118e8       __rtc_taa                  00000001800828e8     LIBCMTD:initsect.obj
 0002:000119f8       __rtc_tzz                  00000001800829f8     LIBCMTD:initsect.obj
 0002:00014da8       _TI2?AVbad_alloc@std@@     0000000180085da8     LIBCMTD:new.obj
 0002:00014dc8       _CTA2?AVbad_alloc@std@@    0000000180085dc8     LIBCMTD:new.obj
 0002:00014de0       _CT??_R0?AVbad_alloc@std@@@8??0bad_alloc@std@@QEAA@AEBV01@@Z24 0000000180085de0     LIBCMTD:new.obj
 0002:00014e08       _CT??_R0?AVexception@std@@@8??0exception@std@@QEAA@AEBV01@@Z24 0000000180085e08     LIBCMTD:new.obj
 0002:00014e30       _TI2?AVbad_exception@std@@ 0000000180085e30     LIBCMTD:frame.obj
 0002:00014e50       _CTA2?AVbad_exception@std@@ 0000000180085e50     LIBCMTD:frame.obj
 0002:00014e68       _CT??_R0?AVbad_exception@std@@@8??0bad_exception@std@@QEAA@AEBV01@@Z24 0000000180085e68     LIBCMTD:frame.obj
 0003:00000030       ??_R0?AVIEngine@@@8        0000000180086030     CEngine.obj
 0003:00000058       ??_R0?AVCEngine@@@8        0000000180086058     CEngine.obj
 0003:0000008c       ?callIt@?5??GetSendBuffer@CExtensions@@UEAAPEAVDataBuffer@DataPacking@@I@Z@4HA 000000018008608c     CExtensions.obj
 0003:000000a0       ??_R0?AVIExtensions@@@8    00000001800860a0     CExtensions.obj
 0003:000000c8       ??_R0?AVCExtensions@@@8    00000001800860c8     CExtensions.obj
 0003:000000f0       _fltused                   00000001800860f0     LIBCMTD:fpinit.obj
 0003:000000f4       _ldused                    00000001800860f4     LIBCMTD:fpinit.obj
 0003:000000f8       ??_R0?AVbad_alloc@std@@@8  00000001800860f8     LIBCMTD:new.obj
 0003:00000120       ??_R0?AVexception@std@@@8  0000000180086120     LIBCMTD:new.obj
 0003:00000148       ??_R0?AVtype_info@@@8      0000000180086148     LIBCMTD:typinfo.obj
 0003:00000168       _crtBreakAlloc             0000000180086168     LIBCMTD:dbgheap.obj
 0003:00000170       __crtDebugFillThreshold    0000000180086170     LIBCMTD:dbgheap.obj
 0003:0000017c       _crtDbgFlag                000000018008617c     LIBCMTD:dbgheap.obj
 0003:00000190       __nullstring               0000000180086190     LIBCMTD:output.obj
 0003:00000198       __wnullstring              0000000180086198     LIBCMTD:output.obj
 0003:00000410       __ptmbcinfo                0000000180086410     LIBCMTD:mbctype.obj
 0003:00000420       _mbctype                   0000000180086420     LIBCMTD:mbctype.obj
 0003:00000530       _mbcasemap                 0000000180086530     LIBCMTD:mbctype.obj
 0003:00000630       __initialmbcinfo           0000000180086630     LIBCMTD:mbctype.obj
 0003:00000858       __flsindex                 0000000180086858     LIBCMTD:tidtable.obj
 0003:00000860       __wclocalestr              0000000180086860     LIBCMTD:nlsdata.obj
 0003:00000870       __lc_time_c                0000000180086870     LIBCMTD:nlsdata.obj
 0003:00000b30       __ptlocinfo                0000000180086b30     LIBCMTD:nlsdata.obj
 0003:00000b40       __initiallocinfo           0000000180086b40     LIBCMTD:nlsdata.obj
 0003:00000c98       __initiallocalestructinfo  0000000180086c98     LIBCMTD:nlsdata.obj
 0003:00000ca8       __mb_cur_max               0000000180086ca8     LIBCMTD:nlsdata.obj
 0003:00000cac       __globallocalestatus       0000000180086cac     LIBCMTD:glstatus.obj
 0003:00000cb0       __security_cookie          0000000180086cb0     LIBCMTD:gs_cookie.obj
 0003:00000cb8       __security_cookie_complement 0000000180086cb8     LIBCMTD:gs_cookie.obj
 0003:00000cc0       __isa_available            0000000180086cc0     LIBCMTD:cpu_disp.obj
 0003:00000cc4       __isa_enabled              0000000180086cc4     LIBCMTD:cpu_disp.obj
 0003:00000cd0       _cfltcvt_tab               0000000180086cd0     LIBCMTD:cmiscdat.obj
 0003:00000d20       __abort_behavior           0000000180086d20     LIBCMTD:abort.obj
 0003:00000d28       ??_R0?AVbad_cast@std@@@8   0000000180086d28     LIBCMTD:stdexcpt.obj
 0003:00000d50       ??_R0?AVbad_typeid@std@@@8 0000000180086d50     LIBCMTD:stdexcpt.obj
 0003:00000d78       ??_R0?AV__non_rtti_object@std@@@8 0000000180086d78     LIBCMTD:stdexcpt.obj
 0003:00000ff0       __badioinfo                0000000180086ff0     LIBCMTD:ioinit.obj
 0003:00001058       _pfnAllocHook              0000000180087058     LIBCMTD:dbghook.obj
 0003:00001060       _iob                       0000000180087060     LIBCMTD:_file.obj
 0003:00001420       _CrtDbgMode                0000000180087420     LIBCMTD:dbgrptt.obj
 0003:0000142c       _crtAssertBusy             000000018008742c     LIBCMTD:dbgrptt.obj
 0003:00001430       _CrtDbgFile                0000000180087430     LIBCMTD:dbgrptt.obj
 0003:00001480       _pow10pos                  0000000180087480     LIBCMTD:constpow.obj
 0003:000015e0       _pow10neg                  00000001800875e0     LIBCMTD:constpow.obj
 0003:00001740       __lconv_static_decimal     0000000180087740     LIBCMTD:lconv.obj
 0003:00001744       __lconv_static_W_decimal   0000000180087744     LIBCMTD:lconv.obj
 0003:00001748       __lconv                    0000000180087748     LIBCMTD:lconv.obj
 0003:00001750       __lconv_c                  0000000180087750     LIBCMTD:lconv.obj
 0003:000017f0       _pctype                    00000001800877f0     LIBCMTD:ctype.obj
 0003:000017f8       _pwctype                   00000001800877f8     LIBCMTD:ctype.obj
 0003:00001800       ??_R0?AVDNameNode@@@8      0000000180087800     LIBCMTD:undname.obj
 0003:00001820       ??_R0?AVcharNode@@@8       0000000180087820     LIBCMTD:undname.obj
 0003:00001840       ??_R0?AVpcharNode@@@8      0000000180087840     LIBCMTD:undname.obj
 0003:00001860       ??_R0?AVpDNameNode@@@8     0000000180087860     LIBCMTD:undname.obj
 0003:00001888       ??_R0?AVDNameStatusNode@@@8 0000000180087888     LIBCMTD:undname.obj
 0003:000018b0       ??_R0?AVpairNode@@@8       00000001800878b0     LIBCMTD:undname.obj
 0003:000018d0       ??_R0?AVbad_exception@std@@@8 00000001800878d0     LIBCMTD:frame.obj
 0003:00001900       _confh                     0000000180087900     LIBCMTD:initcon.obj
 0003:00001f00       __@@_PchSym_@00@UfhvihUibzmUwvhpglkUtvmvhrhUvmtrmvUcGEUwvyftUvmtrmvsvzwOlyq@AF532F32BE13DDB4 0000000180087f00     enginehead.obj
 0003:00002d80       ?g_pAppVariableManager@@3VAppVariableManager@@A 0000000180088d80     AppVariables.obj
 0003:00004abc       __fastflag                 000000018008aabc     LIBCMTD:fpinit.obj
 0003:00004ac8       _aenvptr                   000000018008aac8     LIBCMTD:dllcrt0.obj
 0003:00004ad0       _wenvptr                   000000018008aad0     LIBCMTD:dllcrt0.obj
 0003:00004ad8       _umaskval                  000000018008aad8     LIBCMTD:crt0dat.obj
 0003:00004adc       _exitflag                  000000018008aadc     LIBCMTD:crt0dat.obj
 0003:00004ae0       _C_Termination_Done        000000018008aae0     LIBCMTD:crt0dat.obj
 0003:00004ae4       _C_Exit_Done               000000018008aae4     LIBCMTD:crt0dat.obj
 0003:00004ae8       __winitenv                 000000018008aae8     LIBCMTD:crt0dat.obj
 0003:00004af0       __initenv                  000000018008aaf0     LIBCMTD:crt0dat.obj
 0003:00004afc       __argc                     000000018008aafc     LIBCMTD:crt0dat.obj
 0003:00004b00       __argv                     000000018008ab00     LIBCMTD:crt0dat.obj
 0003:00004b08       __wargv                    000000018008ab08     LIBCMTD:crt0dat.obj
 0003:00004b10       _environ                   000000018008ab10     LIBCMTD:crt0dat.obj
 0003:00004b18       _wenviron                  000000018008ab18     LIBCMTD:crt0dat.obj
 0003:00004b20       _pgmptr                    000000018008ab20     LIBCMTD:crt0dat.obj
 0003:00004b28       _wpgmptr                   000000018008ab28     LIBCMTD:crt0dat.obj
 0003:00004b30       __crtDebugCheckCount       000000018008ab30     LIBCMTD:dbgheap.obj
 0003:00004b38       ?_pfnDumpClient@@3P6AXPEAX_K@ZEA 000000018008ab38     LIBCMTD:dbgheap.obj
 0003:00004b70       __pInvalidArgHandler       000000018008ab70     LIBCMTD:invarg.obj
 0003:00004b78       __mblocalename             000000018008ab78     LIBCMTD:mbctype.obj
 0003:00004b80       __mbcodepage               000000018008ab80     LIBCMTD:mbctype.obj
 0003:00004b84       __ismbcodepage             000000018008ab84     LIBCMTD:mbctype.obj
 0003:00004b88       __mbulinfo                 000000018008ab88     LIBCMTD:mbctype.obj
 0003:00004b98       _newmode                   000000018008ab98     LIBCMTD:_newmode.obj
 0003:00004b9c       __favor                    000000018008ab9c     LIBCMTD:cpu_disp.obj
 0003:00004ba0       __app_type                 000000018008aba0     LIBCMTD:crt0msg.obj
 0003:000051d8       __pPurecall                000000018008b1d8     LIBCMTD:inithelp.obj
 0003:000051e0       ?_pnhHeap@@3P6AH_K@ZEA     000000018008b1e0     LIBCMTD:handler.obj
 0003:00005458       _crtheap                   000000018008b458     LIBCMTD:heapinit.obj
 0003:00005460       __ioInitOnce               000000018008b460     LIBCMTD:ioinit.obj
 0003:00005578       ?__pInconsistency@@3P6AXXZEA 000000018008b578     LIBCMTD:hooks.obj
 0003:000055b0       _stdbuf                    000000018008b5b0     LIBCMTD:_sftbuf.obj
 0003:00005b34       _cflush                    000000018008bb34     LIBCMTD:_file.obj
 0003:00005b68       __lconv_static_null        000000018008bb68     LIBCMTD:lconv.obj
 0003:00005b6c       __lconv_static_W_null      000000018008bb6c     LIBCMTD:lconv.obj
 0003:00005b70       __locale_changed           000000018008bb70     LIBCMTD:wsetloca.obj
 0003:00005b74       _outputformat              000000018008bb74     LIBCMTD:outputformat.obj
 0003:00005b78       __error_mode               000000018008bb78     LIBCMTD:errmode.obj
 0003:00005b80       ?pArgList@UnDecorator@@0PEAVReplicator@@EA 000000018008bb80     LIBCMTD:undname.obj
 0003:00005b88       ?pZNameList@UnDecorator@@0PEAVReplicator@@EA 000000018008bb88     LIBCMTD:undname.obj
 0003:00005b90       ?pTemplateArgList@UnDecorator@@0PEAVReplicator@@EA 000000018008bb90     LIBCMTD:undname.obj
 0003:00005b98       ?gName@UnDecorator@@0PEBDEB 000000018008bb98     LIBCMTD:undname.obj
 0003:00005ba0       ?name@UnDecorator@@0PEBDEB 000000018008bba0     LIBCMTD:undname.obj
 0003:00005ba8       ?outputString@UnDecorator@@0PEADEA 000000018008bba8     LIBCMTD:undname.obj
 0003:00005bb0       ?maxStringLength@UnDecorator@@0HA 000000018008bbb0     LIBCMTD:undname.obj
 0003:00005bb4       ?disableFlags@UnDecorator@@0KA 000000018008bbb4     LIBCMTD:undname.obj
 0003:00005bb8       ?fExplicitTemplateParams@UnDecorator@@0_NA 000000018008bbb8     LIBCMTD:undname.obj
 0003:00005bb9       ?fGetTemplateArgumentList@UnDecorator@@0_NA 000000018008bbb9     LIBCMTD:undname.obj
 0003:00005bc0       ?m_pGetParameter@UnDecorator@@0P6APEADJ@ZEA 000000018008bbc0     LIBCMTD:undname.obj
 0003:00005c40       ?nodes@?1??make@DNameStatusNode@@SAPEAV2@W4DNameStatus@@@Z@4PAV2@A 000000018008bc40     LIBCMTD:undname.obj
 0003:00005c80       ??_B?1??make@DNameStatusNode@@SAPEAV1@W4DNameStatus@@@Z@51 000000018008bc80     LIBCMTD:undname.obj
 0003:00005c84       __unguarded_readlc_active  000000018008bc84     <common>
 0003:00005c94       __setlc_active             000000018008bc94     <common>
 0003:00005c98       _pReportHookListW          000000018008bc98     <common>
 0003:00005cb0       _pReportHookList           000000018008bcb0     <common>
 0003:00005cb8       _pfnReportHook             000000018008bcb8     <common>
 0003:00005cc0       _bufin                     000000018008bcc0     <common>
 0003:00007000       __piob                     000000018008d000     <common>
 0003:00007008       _nstream                   000000018008d008     <common>
 0003:0000700c       _debugger_hook_dummy       000000018008d00c     <common>
 0003:00007018       _nhandle                   000000018008d018     <common>
 0003:000070a0       __pioinfo                  000000018008d0a0     <common>
 0003:000072a0       __dyn_tls_init_callback    000000018008d2a0     <common>
 0003:000072b8       __onexitend                000000018008d2b8     <common>
 0003:000072c0       __onexitbegin              000000018008d2c0     <common>
 0003:000072c8       __mbctype_initialized      000000018008d2c8     <common>
 0003:000072cc       __env_initialized          000000018008d2cc     <common>
 0003:000072d0       _acmdln                    000000018008d2d0     <common>
 0005:00000000       __IMPORT_DESCRIPTOR_utilities 0000000180092000     utilities:utilities.dll
 0005:00000014       __IMPORT_DESCRIPTOR_KERNEL32 0000000180092014     kernel32:KERNEL32.dll
 0005:00000028       __NULL_IMPORT_DESCRIPTOR   0000000180092028     utilities:utilities.dll
 0005:00000460       __imp_QueryPerformanceCounter 0000000180092460     kernel32:KERNEL32.dll
 0005:00000468       __imp_CloseHandle          0000000180092468     kernel32:KERNEL32.dll
 0005:00000470       __imp_CreateFileW          0000000180092470     kernel32:KERNEL32.dll
 0005:00000478       __imp_FlushFileBuffers     0000000180092478     kernel32:KERNEL32.dll
 0005:00000480       __imp_SetStdHandle         0000000180092480     kernel32:KERNEL32.dll
 0005:00000488       __imp_EnumSystemLocalesEx  0000000180092488     kernel32:KERNEL32.dll
 0005:00000490       __imp_IsValidLocaleName    0000000180092490     kernel32:KERNEL32.dll
 0005:00000498       __imp_LCMapStringEx        0000000180092498     kernel32:KERNEL32.dll
 0005:000004a0       __imp_GetUserDefaultLocaleName 00000001800924a0     kernel32:KERNEL32.dll
 0005:000004a8       __imp_GetLocaleInfoEx      00000001800924a8     kernel32:KERNEL32.dll
 0005:000004b0       __imp_EncodePointer        00000001800924b0     kernel32:KERNEL32.dll
 0005:000004b8       __imp_DecodePointer        00000001800924b8     kernel32:KERNEL32.dll
 0005:000004c0       __imp_GetCommandLineA      00000001800924c0     kernel32:KERNEL32.dll
 0005:000004c8       __imp_GetCurrentThreadId   00000001800924c8     kernel32:KERNEL32.dll
 0005:000004d0       __imp_GetLastError         00000001800924d0     kernel32:KERNEL32.dll
 0005:000004d8       __imp_ExitProcess          00000001800924d8     kernel32:KERNEL32.dll
 0005:000004e0       __imp_GetModuleHandleExW   00000001800924e0     kernel32:KERNEL32.dll
 0005:000004e8       __imp_GetProcAddress       00000001800924e8     kernel32:KERNEL32.dll
 0005:000004f0       __imp_AreFileApisANSI      00000001800924f0     kernel32:KERNEL32.dll
 0005:000004f8       __imp_MultiByteToWideChar  00000001800924f8     kernel32:KERNEL32.dll
 0005:00000500       __imp_HeapSize             0000000180092500     kernel32:KERNEL32.dll
 0005:00000508       __imp_HeapValidate         0000000180092508     kernel32:KERNEL32.dll
 0005:00000510       __imp_GetSystemInfo        0000000180092510     kernel32:KERNEL32.dll
 0005:00000518       __imp_RtlUnwindEx          0000000180092518     kernel32:KERNEL32.dll
 0005:00000520       __imp_IsDebuggerPresent    0000000180092520     kernel32:KERNEL32.dll
 0005:00000528       __imp_IsProcessorFeaturePresent 0000000180092528     kernel32:KERNEL32.dll
 0005:00000530       __imp_GetModuleFileNameW   0000000180092530     kernel32:KERNEL32.dll
 0005:00000538       __imp_IsValidCodePage      0000000180092538     kernel32:KERNEL32.dll
 0005:00000540       __imp_GetACP               0000000180092540     kernel32:KERNEL32.dll
 0005:00000548       __imp_GetOEMCP             0000000180092548     kernel32:KERNEL32.dll
 0005:00000550       __imp_GetCPInfo            0000000180092550     kernel32:KERNEL32.dll
 0005:00000558       __imp_SetLastError         0000000180092558     kernel32:KERNEL32.dll
 0005:00000560       __imp_GetCurrentThread     0000000180092560     kernel32:KERNEL32.dll
 0005:00000568       __imp_GetStdHandle         0000000180092568     kernel32:KERNEL32.dll
 0005:00000570       __imp_WriteFile            0000000180092570     kernel32:KERNEL32.dll
 0005:00000578       __imp_RtlPcToFileHeader    0000000180092578     kernel32:KERNEL32.dll
 0005:00000580       __imp_RaiseException       0000000180092580     kernel32:KERNEL32.dll
 0005:00000588       __imp_EnterCriticalSection 0000000180092588     kernel32:KERNEL32.dll
 0005:00000590       __imp_LeaveCriticalSection 0000000180092590     kernel32:KERNEL32.dll
 0005:00000598       __imp_InitializeCriticalSectionAndSpinCount 0000000180092598     kernel32:KERNEL32.dll
 0005:000005a0       __imp_DeleteCriticalSection 00000001800925a0     kernel32:KERNEL32.dll
 0005:000005a8       __imp_FatalAppExitA        00000001800925a8     kernel32:KERNEL32.dll
 0005:000005b0       __imp_GetProcessHeap       00000001800925b0     kernel32:KERNEL32.dll
 0005:000005b8       __imp_GetFileType          00000001800925b8     kernel32:KERNEL32.dll
 0005:000005c0       __imp_InitOnceExecuteOnce  00000001800925c0     kernel32:KERNEL32.dll
 0005:000005c8       __imp_GetStartupInfoW      00000001800925c8     kernel32:KERNEL32.dll
 0005:000005d0       __imp_GetModuleFileNameA   00000001800925d0     kernel32:KERNEL32.dll
 0005:000005d8       __imp_GetSystemTimeAsFileTime 00000001800925d8     kernel32:KERNEL32.dll
 0005:000005e0       __imp_GetTickCount64       00000001800925e0     kernel32:KERNEL32.dll
 0005:000005e8       __imp_GetEnvironmentStringsW 00000001800925e8     kernel32:KERNEL32.dll
 0005:000005f0       __imp_FreeEnvironmentStringsW 00000001800925f0     kernel32:KERNEL32.dll
 0005:000005f8       __imp_WideCharToMultiByte  00000001800925f8     kernel32:KERNEL32.dll
 0005:00000600       __imp_RtlCaptureContext    0000000180092600     kernel32:KERNEL32.dll
 0005:00000608       __imp_RtlLookupFunctionEntry 0000000180092608     kernel32:KERNEL32.dll
 0005:00000610       __imp_RtlVirtualUnwind     0000000180092610     kernel32:KERNEL32.dll
 0005:00000618       __imp_UnhandledExceptionFilter 0000000180092618     kernel32:KERNEL32.dll
 0005:00000620       __imp_SetUnhandledExceptionFilter 0000000180092620     kernel32:KERNEL32.dll
 0005:00000628       __imp_FlsAlloc             0000000180092628     kernel32:KERNEL32.dll
 0005:00000630       __imp_FlsGetValue          0000000180092630     kernel32:KERNEL32.dll
 0005:00000638       __imp_FlsSetValue          0000000180092638     kernel32:KERNEL32.dll
 0005:00000640       __imp_FlsFree              0000000180092640     kernel32:KERNEL32.dll
 0005:00000648       __imp_GetCurrentProcess    0000000180092648     kernel32:KERNEL32.dll
 0005:00000650       __imp_TerminateProcess     0000000180092650     kernel32:KERNEL32.dll
 0005:00000658       __imp_GetModuleHandleW     0000000180092658     kernel32:KERNEL32.dll
 0005:00000660       __imp_FreeLibrary          0000000180092660     kernel32:KERNEL32.dll
 0005:00000668       __imp_LoadLibraryExW       0000000180092668     kernel32:KERNEL32.dll
 0005:00000670       __imp_SetConsoleCtrlHandler 0000000180092670     kernel32:KERNEL32.dll
 0005:00000678       __imp_HeapFree             0000000180092678     kernel32:KERNEL32.dll
 0005:00000680       __imp_HeapReAlloc          0000000180092680     kernel32:KERNEL32.dll
 0005:00000688       __imp_HeapQueryInformation 0000000180092688     kernel32:KERNEL32.dll
 0005:00000690       __imp_HeapAlloc            0000000180092690     kernel32:KERNEL32.dll
 0005:00000698       __imp_GetConsoleCP         0000000180092698     kernel32:KERNEL32.dll
 0005:000006a0       __imp_GetConsoleMode       00000001800926a0     kernel32:KERNEL32.dll
 0005:000006a8       __imp_SetFilePointerEx     00000001800926a8     kernel32:KERNEL32.dll
 0005:000006b0       __imp_OutputDebugStringW   00000001800926b0     kernel32:KERNEL32.dll
 0005:000006b8       __imp_WaitForSingleObjectEx 00000001800926b8     kernel32:KERNEL32.dll
 0005:000006c0       __imp_CreateThread         00000001800926c0     kernel32:KERNEL32.dll
 0005:000006c8       __imp_LoadLibraryW         00000001800926c8     kernel32:KERNEL32.dll
 0005:000006d0       __imp_OutputDebugStringA   00000001800926d0     kernel32:KERNEL32.dll
 0005:000006d8       __imp_WriteConsoleW        00000001800926d8     kernel32:KERNEL32.dll
 0005:000006e0       __imp_GetStringTypeW       00000001800926e0     kernel32:KERNEL32.dll
 0005:000006e8       __imp_GetTimeFormatEx      00000001800926e8     kernel32:KERNEL32.dll
 0005:000006f0       __imp_GetDateFormatEx      00000001800926f0     kernel32:KERNEL32.dll
 0005:000006f8       __imp_CompareStringEx      00000001800926f8     kernel32:KERNEL32.dll
 0005:00000700       \177KERNEL32_NULL_THUNK_DATA 0000000180092700     kernel32:KERNEL32.dll
 0005:000007d8       __imp_??4DataBuffer@DataPacking@@QEAAAEAV01@AEBV01@@Z 00000001800927d8     utilities:utilities.dll
 0005:000007e0       __imp_??1DataBuffer@DataPacking@@QEAA@XZ 00000001800927e0     utilities:utilities.dll
 0005:000007e8       __imp_??0DataBuffer@DataPacking@@QEAA@II@Z 00000001800927e8     utilities:utilities.dll
 0005:000007f0       __imp_?ReleaseInterfacePointer@InterfaceRegistration@@QEAAXPEBDPEAX@Z 00000001800927f0     utilities:utilities.dll
 0005:000007f8       __imp_GetInterfaceRegistration 00000001800927f8     utilities:utilities.dll
 0005:00000800       __imp_?GetInterface@InterfaceRegistration@@QEAAPEAXPEBDH@Z 0000000180092800     utilities:utilities.dll
 0005:00000808       __imp_??0InterfaceElement@@QEAA@P6APEAXXZP6AXPEAX@ZPEBDH_N@Z 0000000180092808     utilities:utilities.dll
 0005:00000810       __imp_MessageBoxWIN        0000000180092810     utilities:utilities.dll
 0005:00000818       __imp_util_strncpy         0000000180092818     utilities:utilities.dll
 0005:00000820       \177utilities_NULL_THUNK_DATA 0000000180092820     utilities:utilities.dll

 entry point at        0001:000049a0

