 genesis

 Timestamp is 52feb4b9 (Fri Feb 14 16:28:41 2014)

 Preferred load address is 0000000140000000

 Start         Length     Name                   Class
 0001:00000000 0006fc47H .text                   CODE
 0001:0006fc50 000023f9H .text$x                 CODE
 0001:00072050 000010d4H .text$yc                CODE
 0002:00000000 00000109H .CRT$XCA                DATA
 0002:00000110 0000012cH .CRT$XCU                DATA
 0002:00000240 00000109H .CRT$XCZ                DATA
 0002:00000350 00000109H .CRT$XIA                DATA
 0002:00000460 00000126H .CRT$XIC                DATA
 0002:00000588 00000109H .CRT$XIY                DATA
 0002:00000698 00000109H .CRT$XIZ                DATA
 0002:000007a8 00000109H .CRT$XPA                DATA
 0002:000008b8 00000113H .CRT$XPX                DATA
 0002:000009d0 00000109H .CRT$XPXA               DATA
 0002:00000ae0 00000109H .CRT$XPZ                DATA
 0002:00000bf0 00000109H .CRT$XTA                DATA
 0002:00000d00 00000109H .CRT$XTZ                DATA
 0002:00000e10 00011077H .rdata                  DATA
 0002:00011e88 00000186H .rdata$debug            DATA
 0002:00012010 00000938H .rdata$r                DATA
 0002:00012948 00000109H .rtc$IAA                DATA
 0002:00012a58 00000109H .rtc$IZZ                DATA
 0002:00012b68 00000109H .rtc$TAA                DATA
 0002:00012c78 00000109H .rtc$TZZ                DATA
 0002:00012d88 00003113H .xdata                  DATA
 0002:00015ea0 0000019eH .xdata$x                DATA
 0002:0001603e 00000000H .edata                  DATA
 0003:00000000 00001c45H .data                   DATA
 0003:00001c60 00005641H .bss                    DATA
 0004:00000000 00002ec8H .pdata                  DATA
 0005:00000000 0000003cH .idata$2                DATA
 0005:0000003c 00000014H .idata$3                DATA
 0005:00000050 00000588H .idata$4                DATA
 0005:000005d8 00000588H .idata$5                DATA
 0005:00000b60 00000b5fH .idata$6                DATA
 0006:00000000 00000400H .rsrc$01                DATA
 0006:00000400 00001f56H .rsrc$02                DATA

  Address         Publics by Value              Rva+Base               Lib:Object

 0000:00000000       ___safe_se_handler_count   0000000000000000     <absolute>
 0000:00000000       ___safe_se_handler_table   0000000000000000     <absolute>
 0000:00000000       __ImageBase                0000000140000000     <linker-defined>
 0001:00000240       ?InitializePlatformCapabilities@CPlatform@@QEAAXXZ 0000000140001240 f   CPlatform.obj
 0001:00000b70       ?GetPlatformCaps@CPlatform@@UEBAPEBUplatform_caps@@XZ 0000000140001b70 f   CPlatform.obj
 0001:00000b90       ?HasPlatformCap@CPlatform@@UEBA_NW4platform_caps_e@@@Z 0000000140001b90 f   CPlatform.obj
 0001:00000bb0       ?LogPlatformCaps@CPlatform@@UEBAXXZ 0000000140001bb0 f   CPlatform.obj
 0001:000013c0       ??$vsnprintf_s@$0EAA@@@YAHAEAY0EAA@D_KPEBDPEAD@Z 00000001400023c0 f i CPlatform.obj
 0001:00001410       ?c99_snprintf@@YAHPEAD_KPEBDZZ 0000000140002410 f i CPlatform.obj
 0001:00001480       ?c99_vsnprintf@@YAHPEAD_KPEBD0@Z 0000000140002480 f i CPlatform.obj
 0001:000015f0       ?Initialize@CPlatform@@UEAAXXZ 00000001400025f0 f   CPlatform_win.obj
 0001:00001610       ?Shutdown@CPlatform@@UEAAXXZ 0000000140002610 f   CPlatform_win.obj
 0001:00001620       ?GetKeyState@CPlatform@@UEBA_ND@Z 0000000140002620 f   CPlatform_win.obj
 0001:00001680       ?GetMouseState@CPlatform@@UEBA_N_N@Z 0000000140002680 f   CPlatform_win.obj
 0001:000016e0       ?GetWindowHandle@CPlatform@@UEBAPEAUHWND__@@PEBD@Z 00000001400026e0 f   CPlatform_win.obj
 0001:00001700       ?SetActiveWindow@CPlatform@@UEBAXPEAUHWND__@@@Z 0000000140002700 f   CPlatform_win.obj
 0001:00001720       ?GetWindowSizePixels@CPlatform@@UEBAXAEAI0@Z 0000000140002720 f   CPlatform_win.obj
 0001:00001740       ?GetWindowSize@CPlatform@@UEBAXAEAI0@Z 0000000140002740 f   CPlatform_win.obj
 0001:00001760       ?ActivateGraphicsContext@CPlatform@@UEBAXXZ 0000000140002760 f   CPlatform_win.obj
 0001:00001770       ?SwapGraphicsContextBuffers@CPlatform@@UEBAXXZ 0000000140002770 f   CPlatform_win.obj
 0001:00001780       ?GetAbsoluteApplicationPath@CPlatform@@UEBAPEBDXZ 0000000140002780 f   CPlatform_win.obj
 0001:000017f0       ?FileOpen@CPlatform@@UEBAPEAU_iobuf@@PEBD0@Z 00000001400027f0 f   CPlatform_win.obj
 0001:00001880       ?FileRead@CPlatform@@UEBA_KPEAX_K1PEAU_iobuf@@@Z 0000000140002880 f   CPlatform_win.obj
 0001:000018c0       ?FileWrite@CPlatform@@UEBA_KPEBX_K1PEAU_iobuf@@@Z 00000001400028c0 f   CPlatform_win.obj
 0001:00001900       ?GetFileSize@CPlatform@@UEBA_KPEAU_iobuf@@@Z 0000000140002900 f   CPlatform_win.obj
 0001:000019f0       ?LoadDLL@CPlatform@@UEAAPEAXPEBD@Z 00000001400029f0 f   CPlatform_win.obj
 0001:00001a40       ?UnloadDLL@CPlatform@@UEAAXPEAX@Z 0000000140002a40 f   CPlatform_win.obj
 0001:00001a70       ?GetDLLExtension@CPlatform@@UEAAPEBDXZ 0000000140002a70 f   CPlatform_win.obj
 0001:00001be0       WinMain                    0000000140002be0 f   Launcher.obj
 0001:00001e30       ?GetPlatform@@YAPEAVIPlatform@@XZ 0000000140002e30 f   Launcher.obj
 0001:00001f10       ?EngineThread@@YAKPEAX@Z   0000000140002f10 f   Launcher.obj
 0001:00002140       ?MyRegisterClass@@YAGPEAUHINSTANCE__@@@Z 0000000140003140 f   Launcher.obj
 0001:00002200       ?InitInstance@@YAHPEAUHINSTANCE__@@H@Z 0000000140003200 f   Launcher.obj
 0001:000022c0       ?WndProc@@YA_JPEAUHWND__@@I_K_J@Z 00000001400032c0 f   Launcher.obj
 0001:00002460       ?About@@YA_JPEAUHWND__@@I_K_J@Z 0000000140003460 f   Launcher.obj
 0001:00002500       ?_interfaceg_platformfunc@@YAPEAXXZ 0000000140003500 f   Launcher.obj
 0001:00002760       ??0CPlatform@@QEAA@XZ      0000000140003760 f i Launcher.obj
 0001:000027a0       ??0IPlatform@@QEAA@XZ      00000001400037a0 f i Launcher.obj
 0001:000027c0       Msg                        00000001400037c0 f   utilities:utilities.dll
 0001:000027c6       Warning                    00000001400037c6 f   utilities:utilities.dll
 0001:000027cc       ??0InterfaceElement@@QEAA@P6APEAXXZP6AXPEAX@ZPEBDH_N@Z 00000001400037cc f   utilities:utilities.dll
 0001:000027d2       ?GetInterface@InterfaceRegistration@@QEAAPEAXPEBDH@Z 00000001400037d2 f   utilities:utilities.dll
 0001:000027d8       ?ReleaseInterfacePointer@InterfaceRegistration@@QEAAXPEBDPEAX@Z 00000001400037d8 f   utilities:utilities.dll
 0001:000027de       ?ReleaseAllInterfacePointers@InterfaceRegistration@@QEAAXXZ 00000001400037de f   utilities:utilities.dll
 0001:000027e4       GetInterfaceRegistration   00000001400037e4 f   utilities:utilities.dll
 0001:000027ea       GetMemoryPool              00000001400037ea f   utilities:utilities.dll
 0001:000027f0       FreeLibrary                00000001400037f0 f   kernel32:KERNEL32.dll
 0001:000027f6       LoadLibraryA               00000001400037f6 f   kernel32:KERNEL32.dll
 0001:000027fc       CloseHandle                00000001400037fc f   kernel32:KERNEL32.dll
 0001:00002802       ReleaseMutex               0000000140003802 f   kernel32:KERNEL32.dll
 0001:00002808       WaitForSingleObject        0000000140003808 f   kernel32:KERNEL32.dll
 0001:0000280e       CreateMutexA               000000014000380e f   kernel32:KERNEL32.dll
 0001:00002814       ExitProcess                0000000140003814 f   kernel32:KERNEL32.dll
 0001:0000281a       CreateThread               000000014000381a f   kernel32:KERNEL32.dll
 0001:00002820       GetExitCodeThread          0000000140003820 f   kernel32:KERNEL32.dll
 0001:00002826       MessageBoxA                0000000140003826 f   user32:USER32.dll
 0001:0000282c       GetActiveWindow            000000014000382c f   user32:USER32.dll
 0001:00002832       LoadStringA                0000000140003832 f   user32:USER32.dll
 0001:00002838       GetMessageA                0000000140003838 f   user32:USER32.dll
 0001:0000283e       TranslateMessage           000000014000383e f   user32:USER32.dll
 0001:00002844       DispatchMessageA           0000000140003844 f   user32:USER32.dll
 0001:0000284a       DefWindowProcA             000000014000384a f   user32:USER32.dll
 0001:00002850       RegisterClassExA           0000000140003850 f   user32:USER32.dll
 0001:00002856       CreateWindowExA            0000000140003856 f   user32:USER32.dll
 0001:0000285c       DestroyWindow              000000014000385c f   user32:USER32.dll
 0001:00002862       ShowWindow                 0000000140003862 f   user32:USER32.dll
 0001:00002868       DialogBoxParamA            0000000140003868 f   user32:USER32.dll
 0001:0000286e       EndDialog                  000000014000386e f   user32:USER32.dll
 0001:00002874       LoadAcceleratorsA          0000000140003874 f   user32:USER32.dll
 0001:0000287a       TranslateAcceleratorA      000000014000387a f   user32:USER32.dll
 0001:00002880       UpdateWindow               0000000140003880 f   user32:USER32.dll
 0001:00002886       BeginPaint                 0000000140003886 f   user32:USER32.dll
 0001:0000288c       EndPaint                   000000014000388c f   user32:USER32.dll
 0001:00002892       LoadCursorA                0000000140003892 f   user32:USER32.dll
 0001:00002898       LoadIconA                  0000000140003898 f   user32:USER32.dll
 0001:000028a0       _vsnprintf_c               00000001400038a0 f   LIBCMTD:vsnprnc.obj
 0001:00002910       _vsnprintf_c_l             0000000140003910 f   LIBCMTD:vsnprnc.obj
 0001:00002980       _vsnprintf_helper          0000000140003980 f   LIBCMTD:vsnprnc.obj
 0001:00002c60       vsnprintf_s                0000000140003c60 f   LIBCMTD:vsnprnc.obj
 0001:00002c60       _vsnprintf_s               0000000140003c60 f   LIBCMTD:vsnprnc.obj
 0001:00002cb0       _vsnprintf_s_l             0000000140003cb0 f   LIBCMTD:vsnprnc.obj
 0001:00003250       _vsprintf_p                0000000140004250 f   LIBCMTD:vsnprnc.obj
 0001:000032c0       _vsprintf_p_l              00000001400042c0 f   LIBCMTD:vsnprnc.obj
 0001:00003330       _vsprintf_s_l              0000000140004330 f   LIBCMTD:vsnprnc.obj
 0001:000036c0       vsprintf_s                 00000001400046c0 f   LIBCMTD:vsnprnc.obj
 0001:00003700       _vscprintf                 0000000140004700 f   LIBCMTD:vsprintf.obj
 0001:00003730       _vscprintf_helper          0000000140004730 f   LIBCMTD:vsprintf.obj
 0001:00003880       _vscprintf_l               0000000140004880 f   LIBCMTD:vsprintf.obj
 0001:000038c0       _vscprintf_p               00000001400048c0 f   LIBCMTD:vsprintf.obj
 0001:000038f0       _vscprintf_p_l             00000001400048f0 f   LIBCMTD:vsprintf.obj
 0001:00003930       _vsprintf_l                0000000140004930 f   LIBCMTD:vsprintf.obj
 0001:00003ba0       vsprintf                   0000000140004ba0 f   LIBCMTD:vsprintf.obj
 0001:00003be0       memset                     0000000140004be0 f   LIBCMTD:memset.obj
 0001:00003cf0       fgetpos                    0000000140004cf0 f   LIBCMTD:fgetpos.obj
 0001:00003e80       _fsopen                    0000000140004e80 f   LIBCMTD:fopen.obj
 0001:00004140       fopen                      0000000140005140 f   LIBCMTD:fopen.obj
 0001:00004170       fopen_s                    0000000140005170 f   LIBCMTD:fopen.obj
 0001:00004260       _fread_nolock              0000000140005260 f   LIBCMTD:fread.obj
 0001:000042b0       _fread_nolock_s            00000001400052b0 f   LIBCMTD:fread.obj
 0001:00004c00       fread                      0000000140005c00 f   LIBCMTD:fread.obj
 0001:00004c50       fread_s                    0000000140005c50 f   LIBCMTD:fread.obj
 0001:00004da0       fsetpos                    0000000140005da0 f   LIBCMTD:fsetpos.obj
 0001:00004f20       _fseek_nolock              0000000140005f20 f   LIBCMTD:fseek.obj
 0001:00005040       fseek                      0000000140006040 f   LIBCMTD:fseek.obj
 0001:000051f0       _ftell_nolock              00000001400061f0 f   LIBCMTD:ftell.obj
 0001:000058b0       ftell                      00000001400068b0 f   LIBCMTD:ftell.obj
 0001:00005990       _fwrite_nolock             0000000140006990 f   LIBCMTD:fwrite.obj
 0001:00005fe0       fwrite                     0000000140006fe0 f   LIBCMTD:fwrite.obj
 0001:000060f0       _get_purecall_handler      00000001400070f0 f   LIBCMTD:purevirt.obj
 0001:00006110       _purecall                  0000000140007110 f   LIBCMTD:purevirt.obj
 0001:00006160       _set_purecall_handler      0000000140007160 f   LIBCMTD:purevirt.obj
 0001:000061a0       ??0type_info@@AEAA@AEBV0@@Z 00000001400071a0 f   LIBCMTD:typinfo.obj
 0001:000061c0       ??1type_info@@UEAA@XZ      00000001400071c0 f   LIBCMTD:typinfo.obj
 0001:000061f0       ??4type_info@@AEAAAEAV0@AEBV0@@Z 00000001400071f0 f   LIBCMTD:typinfo.obj
 0001:00006200       ??8type_info@@QEBA_NAEBV0@@Z 0000000140007200 f   LIBCMTD:typinfo.obj
 0001:00006250       ??9type_info@@QEBA_NAEBV0@@Z 0000000140007250 f   LIBCMTD:typinfo.obj
 0001:000062a0       ??_Etype_info@@UEAAPEAXI@Z 00000001400072a0 f i LIBCMTD:typinfo.obj
 0001:000062a0       ??_Gtype_info@@UEAAPEAXI@Z 00000001400072a0 f i LIBCMTD:typinfo.obj
 0001:000062e0       ?_name_internal_method@type_info@@QEBAPEBDPEAU__type_info_node@@@Z 00000001400072e0 f   LIBCMTD:typinfo.obj
 0001:00006310       ?_type_info_dtor_internal_method@type_info@@QEAAXXZ 0000000140007310 f   LIBCMTD:typinfo.obj
 0001:00006330       ?before@type_info@@QEBA_NAEBV1@@Z 0000000140007330 f   LIBCMTD:typinfo.obj
 0001:00006380       ?name@type_info@@QEBAPEBDPEAU__type_info_node@@@Z 0000000140007380 f   LIBCMTD:typinfo.obj
 0001:000063b0       ?raw_name@type_info@@QEBAPEBDXZ 00000001400073b0 f   LIBCMTD:typinfo.obj
 0001:000063c0       WinMainCRTStartup          00000001400073c0 f   LIBCMTD:wincrt0.obj
 0001:000065f0       ?_invalid_parameter@@YAXPEBG00I_K@Z 00000001400075f0 f   LIBCMTD:invarg.obj
 0001:00006630       ?_invoke_watson@@YAXPEBG00I_K@Z 0000000140007630 f   LIBCMTD:invarg.obj
 0001:00006670       _call_reportfault          0000000140007670 f   LIBCMTD:invarg.obj
 0001:000067a0       _get_invalid_parameter_handler 00000001400077a0 f   LIBCMTD:invarg.obj
 0001:000067e0       _initp_misc_invarg         00000001400077e0 f   LIBCMTD:invarg.obj
 0001:00006800       _invalid_parameter         0000000140007800 f   LIBCMTD:invarg.obj
 0001:00006890       _invoke_watson             0000000140007890 f   LIBCMTD:invarg.obj
 0001:000068f0       _set_invalid_parameter_handler 00000001400078f0 f   LIBCMTD:invarg.obj
 0001:00006950       _flsbuf                    0000000140007950 f   LIBCMTD:_flsbuf.obj
 0001:00006d00       ?_CrtDbgReportW@@YAHHPEBGH00ZZ 0000000140007d00 f   LIBCMTD:dbgrptw.obj
 0001:00006d80       _CrtDbgReportW             0000000140007d80 f   LIBCMTD:dbgrptw.obj
 0001:00006e00       _CrtDbgReportWV            0000000140007e00 f i LIBCMTD:dbgrptw.obj
 0001:00006e60       _CrtSetReportHookW2        0000000140007e60 f   LIBCMTD:dbgrptw.obj
 0001:00007270       __crtMessageWindowW        0000000140008270 f   LIBCMTD:dbgrptw.obj
 0001:000078f0       _invoke_watson_if_error    00000001400088f0 f i LIBCMTD:dbgrptw.obj
 0001:00007940       _invoke_watson_if_oneof    0000000140008940 f i LIBCMTD:dbgrptw.obj
 0001:000079b0       ??0_LocaleUpdate@@QEAA@PEAUlocaleinfo_struct@@@Z 00000001400089b0 f i LIBCMTD:output.obj
 0001:00007af0       ??1_LocaleUpdate@@QEAA@XZ  0000000140008af0 f i LIBCMTD:output.obj
 0001:00007b30       ?GetLocaleT@_LocaleUpdate@@QEAAPEAUlocaleinfo_struct@@XZ 0000000140008b30 f i LIBCMTD:output.obj
 0001:00007b40       _output_l                  0000000140008b40 f   LIBCMTD:output.obj
 0001:00009360       get_int64_arg              000000014000a360 f i LIBCMTD:output.obj
 0001:000093d0       get_int_arg                000000014000a3d0 f i LIBCMTD:output.obj
 0001:00009430       get_short_arg              000000014000a430 f i LIBCMTD:output.obj
 0001:000096d0       _output_s_l                000000014000a6d0 f   LIBCMTD:outputs.obj
 0001:0000b2d0       _output_p_l                000000014000c2d0 f   LIBCMTD:outputp.obj
 0001:0000f7d0       _validate_param_reuseA     00000001400107d0 f   LIBCMTD:outputp.obj
 0001:0000fb40       get_crtdouble_arg          0000000140010b40 f i LIBCMTD:outputp.obj
 0001:0000fde0       __doserrno                 0000000140010de0 f   LIBCMTD:dosmap.obj
 0001:0000fe10       _dosmaperr                 0000000140010e10 f   LIBCMTD:dosmap.obj
 0001:0000fe40       _errno                     0000000140010e40 f   LIBCMTD:dosmap.obj
 0001:0000fe70       _get_doserrno              0000000140010e70 f   LIBCMTD:dosmap.obj
 0001:0000ff30       _get_errno                 0000000140010f30 f   LIBCMTD:dosmap.obj
 0001:0000fff0       _get_errno_from_oserr      0000000140010ff0 f   LIBCMTD:dosmap.obj
 0001:00010080       _set_doserrno              0000000140011080 f   LIBCMTD:dosmap.obj
 0001:000100c0       _set_errno                 00000001400110c0 f   LIBCMTD:dosmap.obj
 0001:00010630       _CrtCheckMemory            0000000140011630 f   LIBCMTD:dbgheap.obj
 0001:00010bd0       _CrtDoForAllClientObjects  0000000140011bd0 f   LIBCMTD:dbgheap.obj
 0001:00010d00       _CrtDumpMemoryLeaks        0000000140011d00 f   LIBCMTD:dbgheap.obj
 0001:00010dc0       _CrtGetAllocHook           0000000140011dc0 f   LIBCMTD:dbgheap.obj
 0001:00010dd0       _CrtGetCheckCount          0000000140011dd0 f   LIBCMTD:dbgheap.obj
 0001:00010de0       _CrtGetDumpClient          0000000140011de0 f   LIBCMTD:dbgheap.obj
 0001:00010df0       _CrtIsMemoryBlock          0000000140011df0 f   LIBCMTD:dbgheap.obj
 0001:00010f70       _CrtIsValidHeapPointer     0000000140011f70 f   LIBCMTD:dbgheap.obj
 0001:00010fd0       _CrtIsValidPointer         0000000140011fd0 f   LIBCMTD:dbgheap.obj
 0001:00011010       _CrtMemCheckpoint          0000000140012010 f   LIBCMTD:dbgheap.obj
 0001:000112a0       _CrtMemDifference          00000001400122a0 f   LIBCMTD:dbgheap.obj
 0001:000115d0       _CrtMemDumpAllObjectsSince 00000001400125d0 f   LIBCMTD:dbgheap.obj
 0001:00011620       _CrtMemDumpStatistics      0000000140012620 f   LIBCMTD:dbgheap.obj
 0001:000117b0       _CrtReportBlockType        00000001400127b0 f   LIBCMTD:dbgheap.obj
 0001:000117f0       _CrtSetAllocHook           00000001400127f0 f   LIBCMTD:dbgheap.obj
 0001:00011820       _CrtSetBreakAlloc          0000000140012820 f   LIBCMTD:dbgheap.obj
 0001:00011850       _CrtSetCheckCount          0000000140012850 f   LIBCMTD:dbgheap.obj
 0001:00011870       _CrtSetDbgBlockType        0000000140012870 f   LIBCMTD:dbgheap.obj
 0001:00011940       _CrtSetDbgFlag             0000000140012940 f   LIBCMTD:dbgheap.obj
 0001:00011a80       _CrtSetDebugFillThreshold  0000000140012a80 f   LIBCMTD:dbgheap.obj
 0001:00011ab0       _CrtSetDumpClient          0000000140012ab0 f   LIBCMTD:dbgheap.obj
 0001:00011ae0       _aligned_free              0000000140012ae0 f   LIBCMTD:dbgheap.obj
 0001:00011b00       _aligned_free_dbg          0000000140012b00 f   LIBCMTD:dbgheap.obj
 0001:00011bf0       _aligned_malloc            0000000140012bf0 f   LIBCMTD:dbgheap.obj
 0001:00011c20       _aligned_malloc_dbg        0000000140012c20 f   LIBCMTD:dbgheap.obj
 0001:00011c60       _aligned_msize             0000000140012c60 f   LIBCMTD:dbgheap.obj
 0001:00011c90       _aligned_msize_dbg         0000000140012c90 f   LIBCMTD:dbgheap.obj
 0001:00011e50       _aligned_offset_malloc     0000000140012e50 f   LIBCMTD:dbgheap.obj
 0001:00011e90       _aligned_offset_malloc_dbg 0000000140012e90 f   LIBCMTD:dbgheap.obj
 0001:00012170       _aligned_offset_realloc    0000000140013170 f   LIBCMTD:dbgheap.obj
 0001:000121c0       _aligned_offset_realloc_dbg 00000001400131c0 f   LIBCMTD:dbgheap.obj
 0001:00012660       _aligned_offset_recalloc   0000000140013660 f   LIBCMTD:dbgheap.obj
 0001:000126c0       _aligned_offset_recalloc_dbg 00000001400136c0 f   LIBCMTD:dbgheap.obj
 0001:000127e0       _aligned_realloc           00000001400137e0 f   LIBCMTD:dbgheap.obj
 0001:00012820       _aligned_realloc_dbg       0000000140013820 f   LIBCMTD:dbgheap.obj
 0001:00012870       _aligned_recalloc          0000000140013870 f   LIBCMTD:dbgheap.obj
 0001:000128c0       _aligned_recalloc_dbg      00000001400138c0 f   LIBCMTD:dbgheap.obj
 0001:00012920       _calloc_dbg                0000000140013920 f   LIBCMTD:dbgheap.obj
 0001:000129a0       _calloc_dbg_impl           00000001400139a0 f   LIBCMTD:dbgheap.obj
 0001:00012a50       _expand                    0000000140013a50 f   LIBCMTD:dbgheap.obj
 0001:00012a90       _expand_dbg                0000000140013a90 f   LIBCMTD:dbgheap.obj
 0001:00012bb0       _free_dbg                  0000000140013bb0 f   LIBCMTD:dbgheap.obj
 0001:00012bf0       _free_dbg_nolock           0000000140013bf0 f   LIBCMTD:dbgheap.obj
 0001:000132e0       _free_nolock               00000001400142e0 f   LIBCMTD:dbgheap.obj
 0001:00013300       _heap_alloc                0000000140014300 f   LIBCMTD:dbgheap.obj
 0001:00013330       _heap_alloc_dbg            0000000140014330 f   LIBCMTD:dbgheap.obj
 0001:00013850       _malloc_dbg                0000000140014850 f   LIBCMTD:dbgheap.obj
 0001:000138a0       _msize                     00000001400148a0 f   LIBCMTD:dbgheap.obj
 0001:000138c0       _msize_dbg                 00000001400148c0 f   LIBCMTD:dbgheap.obj
 0001:00013b00       _nh_malloc                 0000000140014b00 f   LIBCMTD:dbgheap.obj
 0001:00013b40       _nh_malloc_dbg             0000000140014b40 f   LIBCMTD:dbgheap.obj
 0001:00013ee0       _realloc_dbg               0000000140014ee0 f   LIBCMTD:dbgheap.obj
 0001:00013f50       _recalloc                  0000000140014f50 f   LIBCMTD:dbgheap.obj
 0001:00013fa0       _recalloc_dbg              0000000140014fa0 f   LIBCMTD:dbgheap.obj
 0001:000149a0       __isa_available_init       00000001400159a0 f   LIBCMTD:cpu_disp.obj
 0001:00014b90       _ftelli64                  0000000140015b90 f   LIBCMTD:ftelli64.obj
 0001:00014c80       _ftelli64_nolock           0000000140015c80 f   LIBCMTD:ftelli64.obj
 0001:00015320       __initstdio                0000000140016320 f   LIBCMTD:_file.obj
 0001:00015420       __endstdio                 0000000140016420 f   LIBCMTD:_file.obj
 0001:00015460       __iob_func                 0000000140016460 f   LIBCMTD:_file.obj
 0001:00015470       _lock_file                 0000000140016470 f   LIBCMTD:_file.obj
 0001:00015500       _lock_file2                0000000140016500 f   LIBCMTD:_file.obj
 0001:00015550       _unlock_file               0000000140016550 f   LIBCMTD:_file.obj
 0001:000155e0       _unlock_file2              00000001400165e0 f   LIBCMTD:_file.obj
 0001:00015630       _getstream                 0000000140016630 f   LIBCMTD:stream.obj
 0001:00015870       _openfile                  0000000140016870 f   LIBCMTD:_open.obj
 0001:00016340       __C_specific_handler       0000000140017340 f   LIBCMTD:chandler.obj
 0001:00016770       _local_unwind              0000000140017770 f   LIBCMTD:jmpuwind.obj
 0001:000167a0       _NLG_Notify                00000001400177a0 f   LIBCMTD:jmpuwind.obj
 0001:000167c0       __NLG_Dispatch2            00000001400177c0 f   LIBCMTD:jmpuwind.obj
 0001:000167d0       __NLG_Return2              00000001400177d0 f   LIBCMTD:jmpuwind.obj
 0001:000167e0       _filbuf                    00000001400177e0 f   LIBCMTD:_filbuf.obj
 0001:00016b10       _fileno                    0000000140017b10 f   LIBCMTD:fileno.obj
 0001:00016bd0       memcpy_s                   0000000140017bd0 f   LIBCMTD:memcpy_s.obj
 0001:00016e40       _read                      0000000140017e40 f   LIBCMTD:read.obj
 0001:000171a0       _read_nolock               00000001400181a0 f   LIBCMTD:read.obj
 0001:00018d10       _fseeki64                  0000000140019d10 f   LIBCMTD:fseeki64.obj
 0001:00018ec0       _fseeki64_nolock           0000000140019ec0 f   LIBCMTD:fseeki64.obj
 0001:00019040       _lseek                     000000014001a040 f   LIBCMTD:lseek.obj
 0001:000192f0       _lseek_nolock              000000014001a2f0 f   LIBCMTD:lseek.obj
 0001:00019420       _fflush_nolock             000000014001a420 f   LIBCMTD:fflush.obj
 0001:000194a0       _flush                     000000014001a4a0 f   LIBCMTD:fflush.obj
 0001:00019590       _flushall                  000000014001a590 f   LIBCMTD:fflush.obj
 0001:000195b0       fflush                     000000014001a5b0 f   LIBCMTD:fflush.obj
 0001:00019770       _lseeki64                  000000014001a770 f   LIBCMTD:lseeki64.obj
 0001:00019a30       _lseeki64_nolock           000000014001aa30 f   LIBCMTD:lseeki64.obj
 0001:00019b50       __GSHandlerCheck           000000014001ab50 f   LIBCMTD:gshandler.obj
 0001:00019b90       __GSHandlerCheckCommon     000000014001ab90 f   LIBCMTD:gshandler.obj
 0001:00019ca0       _alloca_probe              000000014001aca0     LIBCMTD:chkstk.obj
 0001:00019ca0       __chkstk                   000000014001aca0 f   LIBCMTD:chkstk.obj
 0001:00019d00       __security_check_cookie    000000014001ad00 f   LIBCMTD:amdsecgs.obj
 0001:00019d20       _ioinit                    000000014001ad20 f   LIBCMTD:ioinit.obj
 0001:00019d50       _ioinit0                   000000014001ad50 f   LIBCMTD:ioinit.obj
 0001:00019d80       _ioinitCallback            000000014001ad80 f   LIBCMTD:ioinit.obj
 0001:0001a3a0       _ioterm                    000000014001b3a0 f   LIBCMTD:ioinit.obj
 0001:0001a490       memmove                    000000014001b490     LIBCMTD:memcpy.obj
 0001:0001a490       memcpy                     000000014001b490 f   LIBCMTD:memcpy.obj
 0001:0001a980       _write                     000000014001b980 f   LIBCMTD:write.obj
 0001:0001ac30       _write_nolock              000000014001bc30 f   LIBCMTD:write.obj
 0001:0001be00       _FF_MSGBANNER              000000014001ce00 f   LIBCMTD:crt0msg.obj
 0001:0001be50       _GET_RTERRMSG              000000014001ce50 f   LIBCMTD:crt0msg.obj
 0001:0001beb0       _NMSG_WRITE                000000014001ceb0 f   LIBCMTD:crt0msg.obj
 0001:0001c2e0       _set_abort_behavior        000000014001d2e0 f   LIBCMTD:abort.obj
 0001:0001c320       abort                      000000014001d320 f   LIBCMTD:abort.obj
 0001:0001c3b0       __getlocaleinfo            000000014001d3b0 f   LIBCMTD:inithelp.obj
 0001:0001c730       _initp_misc_purevirt       000000014001d730 f   LIBCMTD:inithelp.obj
 0001:0001c750       ??3@YAXPEAX@Z              000000014001d750 f   LIBCMTD:dbgdel.obj
 0001:0001c830       strcmp                     000000014001d830 f   LIBCMTD:strcmp.obj
 0001:0001c8a0       ?_Name_base@type_info@@CAPEBDPEBV1@PEAU__type_info_node@@@Z 000000014001d8a0 f   LIBCMTD:typname.obj
 0001:0001ca70       ?_Name_base_internal@type_info@@CAPEBDPEBV1@PEAU__type_info_node@@@Z 000000014001da70 f   LIBCMTD:typname.obj
 0001:0001cc70       ?_Type_info_dtor@type_info@@CAXPEAV1@@Z 000000014001dc70 f   LIBCMTD:typname.obj
 0001:0001cd80       ?_Type_info_dtor_internal@type_info@@CAXPEAV1@@Z 000000014001dd80 f   LIBCMTD:typname.obj
 0001:0001ce90       __clean_type_info_names_internal 000000014001de90 f   LIBCMTD:typname.obj
 0001:0001cf10       __unDNameHelper            000000014001df10 f   LIBCMTD:typname.obj
 0001:0001cf80       ?__CxxUnhandledExceptionFilter@@YAJPEAU_EXCEPTION_POINTERS@@@Z 000000014001df80 f   LIBCMTD:unhandld.obj
 0001:0001d000       __CxxSetUnhandledExceptionFilter 000000014001e000 f   LIBCMTD:unhandld.obj
 0001:0001d020       _XcptFilter                000000014001e020 f   LIBCMTD:winxfltr.obj
 0001:0001d2c0       __CppXcptFilter            000000014001e2c0 f   LIBCMTD:winxfltr.obj
 0001:0001d380       __get_flsindex             000000014001e380 f   LIBCMTD:tidtable.obj
 0001:0001d390       __threadhandle             000000014001e390 f   LIBCMTD:tidtable.obj
 0001:0001d3a0       __threadid                 000000014001e3a0 f   LIBCMTD:tidtable.obj
 0001:0001d3b0       _freefls                   000000014001e3b0 f   LIBCMTD:tidtable.obj
 0001:0001d5c0       _freeptd                   000000014001e5c0 f   LIBCMTD:tidtable.obj
 0001:0001d610       _getptd                    000000014001e610 f   LIBCMTD:tidtable.obj
 0001:0001d640       _getptd_noexit             000000014001e640 f   LIBCMTD:tidtable.obj
 0001:0001d710       _initptd                   000000014001e710 f   LIBCMTD:tidtable.obj
 0001:0001d830       _mtinit                    000000014001e830 f   LIBCMTD:tidtable.obj
 0001:0001d8f0       _mtterm                    000000014001e8f0 f   LIBCMTD:tidtable.obj
 0001:0001d920       __copy_path_to_wide_string 000000014001e920 f   LIBCMTD:crt0dat.obj
 0001:0001dba0       __crtCorExitProcess        000000014001eba0 f   LIBCMTD:crt0dat.obj
 0001:0001dbf0       __crtExitProcess           000000014001ebf0 f   LIBCMTD:crt0dat.obj
 0001:0001dc10       __freeCrtMemory            000000014001ec10 f   LIBCMTD:crt0dat.obj
 0001:0001de30       _amsg_exit                 000000014001ee30 f   LIBCMTD:crt0dat.obj
 0001:0001de60       _c_exit                    000000014001ee60 f   LIBCMTD:crt0dat.obj
 0001:0001de80       _cexit                     000000014001ee80 f   LIBCMTD:crt0dat.obj
 0001:0001dea0       _cinit                     000000014001eea0 f   LIBCMTD:crt0dat.obj
 0001:0001df50       _exit                      000000014001ef50 f   LIBCMTD:crt0dat.obj
 0001:0001df70       _get_pgmptr                000000014001ef70 f   LIBCMTD:crt0dat.obj
 0001:0001e0e0       _get_wpgmptr               000000014001f0e0 f   LIBCMTD:crt0dat.obj
 0001:0001e250       _init_pointers             000000014001f250 f   LIBCMTD:crt0dat.obj
 0001:0001e300       _initterm_e                000000014001f300 f   LIBCMTD:crt0dat.obj
 0001:0001e360       _lockexit                  000000014001f360 f   LIBCMTD:crt0dat.obj
 0001:0001e380       _unlockexit                000000014001f380 f   LIBCMTD:crt0dat.obj
 0001:0001e5b0       exit                       000000014001f5b0 f   LIBCMTD:crt0dat.obj
 0001:0001e5d0       _get_heap_handle           000000014001f5d0 f   LIBCMTD:heapinit.obj
 0001:0001e630       _heap_init                 000000014001f630 f   LIBCMTD:heapinit.obj
 0001:0001e660       _heap_term                 000000014001f660 f   LIBCMTD:heapinit.obj
 0001:0001e670       _set_pgmptr                000000014001f670 f i LIBCMTD:stdargv.obj
 0001:0001e690       _setargv                   000000014001f690 f   LIBCMTD:stdargv.obj
 0001:0001ecf0       _setenvp                   000000014001fcf0 f   LIBCMTD:stdenvp.obj
 0001:0001ef00       __set_app_type             000000014001ff00 f   LIBCMTD:errmode.obj
 0001:0001ef10       _set_error_mode            000000014001ff10 f   LIBCMTD:errmode.obj
 0001:0001f020       __security_init_cookie     0000000140020020 f   LIBCMTD:gs_support.obj
 0001:0001f150       _RTC_Initialize            0000000140020150 f   LIBCMTD:initsect.obj
 0001:0001f190       _RTC_Terminate             0000000140020190 f   LIBCMTD:initsect.obj
 0001:0001f1d0       __crtGetEnvironmentStringsA 00000001400201d0 f   LIBCMTD:a_env.obj
 0001:0001f3b0       __crtCaptureCurrentContext 00000001400203b0 f   LIBCMTD:winapisupp.obj
 0001:0001f450       __crtCapturePreviousContext 0000000140020450 f   LIBCMTD:winapisupp.obj
 0001:0001f510       __crtFlsAlloc              0000000140020510 f   LIBCMTD:winapisupp.obj
 0001:0001f530       __crtFlsFree               0000000140020530 f   LIBCMTD:winapisupp.obj
 0001:0001f550       __crtFlsGetValue           0000000140020550 f   LIBCMTD:winapisupp.obj
 0001:0001f570       __crtFlsSetValue           0000000140020570 f   LIBCMTD:winapisupp.obj
 0001:0001f5a0       __crtGetShowWindowMode     00000001400205a0 f   LIBCMTD:winapisupp.obj
 0001:0001f5e0       __crtIsPackagedApp         00000001400205e0 f   LIBCMTD:winapisupp.obj
 0001:0001f620       __crtSetUnhandledExceptionFilter 0000000140020620 f   LIBCMTD:winapisupp.obj
 0001:0001f640       __crtTerminateProcess      0000000140020640 f   LIBCMTD:winapisupp.obj
 0001:0001f660       __crtUnhandledException    0000000140020660 f   LIBCMTD:winapisupp.obj
 0001:0001f690       _wincmdln                  0000000140020690 f   LIBCMTD:wincmdln.obj
 0001:0001f7a0       _CrtDefaultAllocHook       00000001400207a0 f   LIBCMTD:dbghook.obj
 0001:0001f7c0       __crt_debugger_hook        00000001400207c0 f   LIBCMTD:dbghook.obj
 0001:0001f7d0       _isatty                    00000001400207d0 f   LIBCMTD:isatty.obj
 0001:0001f8f0       _getbuf                    00000001400208f0 f   LIBCMTD:_getbuf.obj
 0001:0001fa00       __raise_securityfailure    0000000140020a00 f   LIBCMTD:gs_report.obj
 0001:0001fa50       __report_gsfailure         0000000140020a50 f   LIBCMTD:gs_report.obj
 0001:0001fb30       __report_rangecheckfailure 0000000140020b30 f   LIBCMTD:gs_report.obj
 0001:0001fb50       __report_securityfailure   0000000140020b50 f   LIBCMTD:gs_report.obj
 0001:0001fbf0       __report_securityfailureEx 0000000140020bf0 f   LIBCMTD:gs_report.obj
 0001:0001fd00       wcscpy_s                   0000000140020d00 f   LIBCMTD:wcscpy_s.obj
 0001:000201b0       wcslen                     00000001400211b0 f   LIBCMTD:wcslen.obj
 0001:00020200       _lock                      0000000140021200 f   LIBCMTD:mlock.obj
 0001:00020260       _lockerr_exit              0000000140021260 f   LIBCMTD:mlock.obj
 0001:00020290       _mtdeletelocks             0000000140021290 f   LIBCMTD:mlock.obj
 0001:000203b0       _mtinitlocknum             00000001400213b0 f   LIBCMTD:mlock.obj
 0001:000204b0       _mtinitlocks               00000001400214b0 f   LIBCMTD:mlock.obj
 0001:00020550       _unlock                    0000000140021550 f   LIBCMTD:mlock.obj
 0001:00020580       __swprintf_l               0000000140021580 f   LIBCMTD:swprintf.obj
 0001:000205c0       _scwprintf                 00000001400215c0 f   LIBCMTD:swprintf.obj
 0001:00020600       _scwprintf_l               0000000140021600 f   LIBCMTD:swprintf.obj
 0001:00020640       _scwprintf_p               0000000140021640 f   LIBCMTD:swprintf.obj
 0001:00020680       _scwprintf_p_l             0000000140021680 f   LIBCMTD:swprintf.obj
 0001:000206c0       _snwprintf_s               00000001400216c0 f   LIBCMTD:swprintf.obj
 0001:00020720       _snwprintf_s_l             0000000140021720 f   LIBCMTD:swprintf.obj
 0001:00020780       _swprintf                  0000000140021780 f   LIBCMTD:swprintf.obj
 0001:00020a60       _swprintf_p                0000000140021a60 f   LIBCMTD:swprintf.obj
 0001:00020ab0       _swprintf_p_l              0000000140021ab0 f   LIBCMTD:swprintf.obj
 0001:00020b00       _swprintf_s_l              0000000140021b00 f   LIBCMTD:swprintf.obj
 0001:00020b50       swprintf_s                 0000000140021b50 f   LIBCMTD:swprintf.obj
 0001:00020ba0       __fpecode                  0000000140021ba0 f   LIBCMTD:winsig.obj
 0001:00020bc0       __get_sigabrt              0000000140021bc0 f   LIBCMTD:winsig.obj
 0001:00020be0       __pxcptinfoptrs            0000000140021be0 f   LIBCMTD:winsig.obj
 0001:00020c00       _initp_misc_winsig         0000000140021c00 f   LIBCMTD:winsig.obj
 0001:00020d00       raise                      0000000140021d00 f   LIBCMTD:winsig.obj
 0001:00021150       signal                     0000000140022150 f   LIBCMTD:winsig.obj
 0001:00021590       __crtMessageBoxW           0000000140022590 f   LIBCMTD:crtmboxw.obj
 0001:00021a00       __crtMessageBoxWaitThreadW 0000000140022a00 f   LIBCMTD:crtmboxw.obj
 0001:00021a50       _CrtDbgBreak               0000000140022a50 f   LIBCMTD:dbgrptt.obj
 0001:00021a60       _CrtGetReportHook          0000000140022a60 f   LIBCMTD:dbgrptt.obj
 0001:00021a70       _CrtSetReportFile          0000000140022a70 f   LIBCMTD:dbgrptt.obj
 0001:00021bd0       _CrtSetReportHook          0000000140022bd0 f   LIBCMTD:dbgrptt.obj
 0001:00021c00       _CrtSetReportMode          0000000140022c00 f   LIBCMTD:dbgrptt.obj
 0001:00021dc0       _VCrtDbgReportA            0000000140022dc0 f   LIBCMTD:dbgrptt.obj
 0001:00022790       _VCrtDbgReportW            0000000140023790 f   LIBCMTD:dbgrptt.obj
 0001:000232d0       __addlocaleref             00000001400242d0 f   LIBCMTD:localref.obj
 0001:00023420       __freetlocinfo             0000000140024420 f   LIBCMTD:localref.obj
 0001:000237d0       __removelocaleref          00000001400247d0 f   LIBCMTD:localref.obj
 0001:00023930       __updatetlocinfo           0000000140024930 f   LIBCMTD:localref.obj
 0001:000239d0       _updatetlocinfoEx_nolock   00000001400249d0 f   LIBCMTD:localref.obj
 0001:00023a70       __initmbctable             0000000140024a70 f   LIBCMTD:mbctype.obj
 0001:00024100       __updatetmbcinfo           0000000140025100 f   LIBCMTD:mbctype.obj
 0001:00024200       _getmbcp                   0000000140025200 f   LIBCMTD:mbctype.obj
 0001:00024280       _setmbcp                   0000000140025280 f   LIBCMTD:mbctype.obj
 0001:00024570       _setmbcp_nolock            0000000140025570 f   LIBCMTD:mbctype.obj
 0001:000249c0       __iswcsym                  00000001400259c0 f i LIBCMTD:_wctype.obj
 0001:00024a00       __iswcsymf                 0000000140025a00 f i LIBCMTD:_wctype.obj
 0001:00024a40       _isleadbyte_l              0000000140025a40 f i LIBCMTD:_wctype.obj
 0001:00024aa0       _iswalnum_l                0000000140025aa0 f i LIBCMTD:_wctype.obj
 0001:00024ad0       _iswalpha_l                0000000140025ad0 f i LIBCMTD:_wctype.obj
 0001:00024b00       _iswcntrl_l                0000000140025b00 f i LIBCMTD:_wctype.obj
 0001:00024b30       _iswcsym_l                 0000000140025b30 f i LIBCMTD:_wctype.obj
 0001:00024b80       _iswcsymf_l                0000000140025b80 f i LIBCMTD:_wctype.obj
 0001:00024bd0       _iswdigit_l                0000000140025bd0 f i LIBCMTD:_wctype.obj
 0001:00024c00       _iswgraph_l                0000000140025c00 f i LIBCMTD:_wctype.obj
 0001:00024c30       _iswlower_l                0000000140025c30 f i LIBCMTD:_wctype.obj
 0001:00024c60       _iswprint_l                0000000140025c60 f i LIBCMTD:_wctype.obj
 0001:00024c90       _iswpunct_l                0000000140025c90 f i LIBCMTD:_wctype.obj
 0001:00024cc0       _iswspace_l                0000000140025cc0 f i LIBCMTD:_wctype.obj
 0001:00024cf0       _iswupper_l                0000000140025cf0 f i LIBCMTD:_wctype.obj
 0001:00024d20       _iswxdigit_l               0000000140025d20 f i LIBCMTD:_wctype.obj
 0001:00024d50       isleadbyte                 0000000140025d50 f i LIBCMTD:_wctype.obj
 0001:00024d70       iswalnum                   0000000140025d70 f i LIBCMTD:_wctype.obj
 0001:00024d90       iswalpha                   0000000140025d90 f i LIBCMTD:_wctype.obj
 0001:00024db0       iswascii                   0000000140025db0 f i LIBCMTD:_wctype.obj
 0001:00024de0       iswcntrl                   0000000140025de0 f i LIBCMTD:_wctype.obj
 0001:00024e00       iswdigit                   0000000140025e00 f i LIBCMTD:_wctype.obj
 0001:00024e20       iswgraph                   0000000140025e20 f i LIBCMTD:_wctype.obj
 0001:00024e40       iswlower                   0000000140025e40 f i LIBCMTD:_wctype.obj
 0001:00024e60       iswprint                   0000000140025e60 f i LIBCMTD:_wctype.obj
 0001:00024e80       iswpunct                   0000000140025e80 f i LIBCMTD:_wctype.obj
 0001:00024ea0       iswspace                   0000000140025ea0 f i LIBCMTD:_wctype.obj
 0001:00024ec0       iswupper                   0000000140025ec0 f i LIBCMTD:_wctype.obj
 0001:00024ee0       iswxdigit                  0000000140025ee0 f i LIBCMTD:_wctype.obj
 0001:00024f10       strlen                     0000000140025f10 f   LIBCMTD:strlen.obj
 0001:00024fc0       _get_printf_count_output   0000000140025fc0 f   LIBCMTD:printf.obj
 0001:00024ff0       _printf_l                  0000000140025ff0 f   LIBCMTD:printf.obj
 0001:00025030       _printf_p                  0000000140026030 f   LIBCMTD:printf.obj
 0001:00025070       _printf_p_l                0000000140026070 f   LIBCMTD:printf.obj
 0001:000250b0       _printf_s_l                00000001400260b0 f   LIBCMTD:printf.obj
 0001:000250f0       _set_printf_count_output   00000001400260f0 f   LIBCMTD:printf.obj
 0001:00025160       printf                     0000000140026160 f   LIBCMTD:printf.obj
 0001:000252e0       printf_s                   00000001400262e0 f   LIBCMTD:printf.obj
 0001:00025320       _wctomb_l                  0000000140026320 f   LIBCMTD:wctomb.obj
 0001:000253d0       _wctomb_s_l                00000001400263d0 f   LIBCMTD:wctomb.obj
 0001:00025870       wctomb                     0000000140026870 f   LIBCMTD:wctomb.obj
 0001:000258e0       wctomb_s                   00000001400268e0 f   LIBCMTD:wctomb.obj
 0001:00025930       _initp_misc_cfltcvt_tab    0000000140026930 f   LIBCMTD:cmiscdat.obj
 0001:00026070       _strtol_l                  0000000140027070 f   LIBCMTD:strtol.obj
 0001:000260b0       _strtoul_l                 00000001400270b0 f   LIBCMTD:strtol.obj
 0001:000260f0       strtol                     00000001400270f0 f   LIBCMTD:strtol.obj
 0001:00026160       strtoul                    0000000140027160 f   LIBCMTD:strtol.obj
 0001:000261d0       _chvalidator               00000001400271d0 f   LIBCMTD:isctype.obj
 0001:00026240       _chvalidator_l             0000000140027240 f   LIBCMTD:isctype.obj
 0001:00026350       _isctype                   0000000140027350 f   LIBCMTD:isctype.obj
 0001:000263a0       _isctype_l                 00000001400273a0 f   LIBCMTD:isctype.obj
 0001:00026580       _free_base                 0000000140027580 f   LIBCMTD:free.obj
 0001:000265e0       _realloc_base              00000001400275e0 f   LIBCMTD:realloc.obj
 0001:00026700       _expand_base               0000000140027700 f   LIBCMTD:expand.obj
 0001:000268e0       _CrtDbgReport              00000001400278e0 f   LIBCMTD:dbgrpt.obj
 0001:00026960       _CrtDbgReportV             0000000140027960 f i LIBCMTD:dbgrpt.obj
 0001:000269c0       _CrtSetReportHook2         00000001400279c0 f   LIBCMTD:dbgrpt.obj
 0001:00026dd0       __crtMessageWindowA        0000000140027dd0 f   LIBCMTD:dbgrpt.obj
 0001:00027450       ?_query_new_handler@@YAP6AH_K@ZXZ 0000000140028450 f   LIBCMTD:handler.obj
 0001:00027470       ?_set_new_handler@@YAP6AH_K@ZH@Z 0000000140028470 f   LIBCMTD:handler.obj
 0001:000274d0       ?_set_new_handler@@YAP6AH_K@ZP6AH0@Z@Z 00000001400284d0 f   LIBCMTD:handler.obj
 0001:00027520       _callnewh                  0000000140028520 f   LIBCMTD:handler.obj
 0001:00027560       _initp_heap_handler        0000000140028560 f   LIBCMTD:handler.obj
 0001:00027580       _heapchk                   0000000140028580 f   LIBCMTD:heapchk.obj
 0001:000275c0       _heapset                   00000001400285c0 f   LIBCMTD:heapchk.obj
 0001:000275e0       _scprintf                  00000001400285e0 f   LIBCMTD:sprintf.obj
 0001:00027620       _scprintf_l                0000000140028620 f   LIBCMTD:sprintf.obj
 0001:00027660       _scprintf_p                0000000140028660 f   LIBCMTD:sprintf.obj
 0001:000276a0       _scprintf_p_l              00000001400286a0 f   LIBCMTD:sprintf.obj
 0001:000276e0       _snprintf_s                00000001400286e0 f   LIBCMTD:sprintf.obj
 0001:00027740       _snprintf_s_l              0000000140028740 f   LIBCMTD:sprintf.obj
 0001:000277a0       _sprintf_l                 00000001400287a0 f   LIBCMTD:sprintf.obj
 0001:000277e0       _sprintf_p                 00000001400287e0 f   LIBCMTD:sprintf.obj
 0001:00027830       _sprintf_p_l               0000000140028830 f   LIBCMTD:sprintf.obj
 0001:00027880       _sprintf_s_l               0000000140028880 f   LIBCMTD:sprintf.obj
 0001:000278d0       sprintf                    00000001400288d0 f   LIBCMTD:sprintf.obj
 0001:00027b50       sprintf_s                  0000000140028b50 f   LIBCMTD:sprintf.obj
 0001:00027ba0       _heap_alloc_base           0000000140028ba0 f i LIBCMTD:malloc.obj
 0001:00027c10       _malloc_base               0000000140028c10 f   LIBCMTD:malloc.obj
 0001:00027cb0       _fcloseall                 0000000140028cb0 f   LIBCMTD:closeall.obj
 0001:00027db0       _open                      0000000140028db0 f   LIBCMTD:open.obj
 0001:00027f80       _sopen                     0000000140028f80 f   LIBCMTD:open.obj
 0001:00028030       _sopen_helper              0000000140029030 f   LIBCMTD:open.obj
 0001:00028360       _sopen_nolock              0000000140029360 f   LIBCMTD:open.obj
 0001:00028400       _sopen_s                   0000000140029400 f   LIBCMTD:open.obj
 0001:00028450       _mbsnbcmp                  0000000140029450 f   LIBCMTD:mbsnbcmp.obj
 0001:00028480       _mbsnbcmp_l                0000000140029480 f   LIBCMTD:mbsnbcmp.obj
 0001:000288f0       _mbsnbicmp                 00000001400298f0 f   LIBCMTD:mbsnbicm.obj
 0001:00028920       _mbsnbicmp_l               0000000140029920 f   LIBCMTD:mbsnbicm.obj
 0001:000290c0       _FindPESection             000000014002a0c0 f   LIBCMTD:pesect.obj
 0001:00029170       _IsNonwritableInCurrentImage 000000014002a170 f   LIBCMTD:pesect.obj
 0001:00029200       _ValidateImageBase         000000014002a200 f   LIBCMTD:pesect.obj
 0001:00029280       __lock_fhandle             000000014002a280 f   LIBCMTD:osfinfo.obj
 0001:00029350       _alloc_osfhnd              000000014002a350 f   LIBCMTD:osfinfo.obj
 0001:00029650       _free_osfhnd               000000014002a650 f   LIBCMTD:osfinfo.obj
 0001:00029780       _get_osfhandle             000000014002a780 f   LIBCMTD:osfinfo.obj
 0001:00029990       _open_osfhandle            000000014002a990 f   LIBCMTD:osfinfo.obj
 0001:00029c00       _set_osfhnd                000000014002ac00 f   LIBCMTD:osfinfo.obj
 0001:00029d10       _unlock_fhandle            000000014002ad10 f   LIBCMTD:osfinfo.obj
 0001:00029d50       free                       000000014002ad50 f   LIBCMTD:dbgfree.obj
 0001:00029d70       _commit                    000000014002ad70 f   LIBCMTD:commit.obj
 0001:0002a010       _mbtowc_l                  000000014002b010 f   LIBCMTD:mbtowc.obj
 0001:0002a350       mbtowc                     000000014002b350 f   LIBCMTD:mbtowc.obj
 0001:0002a380       _putwch                    000000014002b380 f   LIBCMTD:putwch.obj
 0001:0002a3c0       _putwch_nolock             000000014002b3c0 f   LIBCMTD:putwch.obj
 0001:0002a430       wcscat_s                   000000014002b430 f   LIBCMTD:wcscat_s.obj
 0001:0002aa60       wcsncpy_s                  000000014002ba60 f   LIBCMTD:wcsncpy_s.obj
 0001:0002b100       strncpy_s                  000000014002c100 f   LIBCMTD:strncpy_s.obj
 0001:0002b930       _MarkAllocaS               000000014002c930 f i LIBCMTD:a_loc.obj
 0001:0002b960       __crtGetLocaleInfoA        000000014002c960 f   LIBCMTD:a_loc.obj
 0001:0002b9d0       _freea                     000000014002c9d0 f i LIBCMTD:a_loc.obj
 0001:0002ba60       __crtCompareStringEx       000000014002ca60 f   LIBCMTD:winapinls.obj
 0001:0002bad0       __crtEnumSystemLocalesEx   000000014002cad0 f   LIBCMTD:winapinls.obj
 0001:0002bb00       __crtGetDateFormatEx       000000014002cb00 f   LIBCMTD:winapinls.obj
 0001:0002bb50       __crtGetLocaleInfoEx       000000014002cb50 f   LIBCMTD:winapinls.obj
 0001:0002bb90       __crtGetTimeFormatEx       000000014002cb90 f   LIBCMTD:winapinls.obj
 0001:0002bbe0       __crtGetUserDefaultLocaleName 000000014002cbe0 f   LIBCMTD:winapinls.obj
 0001:0002bc10       __crtIsValidLocaleName     000000014002cc10 f   LIBCMTD:winapinls.obj
 0001:0002bc30       __crtLCMapStringEx         000000014002cc30 f   LIBCMTD:winapinls.obj
 0001:0002bca0       strcpy_s                   000000014002cca0 f   LIBCMTD:strcpy_s.obj
 0001:0002c140       ??0Block@_HeapManager@@QEAA@XZ 000000014002d140 f i LIBCMTD:undname.obj
 0001:0002c160       ??0DName@@QEAA@AEAPEBDD@Z  000000014002d160 f   LIBCMTD:undname.obj
 0001:0002c4b0       ??0DName@@QEAA@AEBV0@@Z    000000014002d4b0 f i LIBCMTD:undname.obj
 0001:0002c4e0       ??0DName@@QEAA@D@Z         000000014002d4e0 f   LIBCMTD:undname.obj
 0001:0002c5e0       ??0DName@@QEAA@PEAV0@@Z    000000014002d5e0 f   LIBCMTD:undname.obj
 0001:0002c760       ??0DName@@QEAA@PEBD@Z      000000014002d760 f   LIBCMTD:undname.obj
 0001:0002c870       ??0DName@@QEAA@W4DNameStatus@@@Z 000000014002d870 f   LIBCMTD:undname.obj
 0001:0002c9c0       ??0DName@@QEAA@XZ          000000014002d9c0 f i LIBCMTD:undname.obj
 0001:0002ca90       ??0DName@@QEAA@_J@Z        000000014002da90 f   LIBCMTD:undname.obj
 0001:0002cc50       ??0DName@@QEAA@_K@Z        000000014002dc50 f   LIBCMTD:undname.obj
 0001:0002cdd0       ??0DNameNode@@IEAA@XZ      000000014002ddd0 f   LIBCMTD:undname.obj
 0001:0002cdf0       ??0DNameStatusNode@@AEAA@W4DNameStatus@@@Z 000000014002ddf0 f   LIBCMTD:undname.obj
 0001:0002ce60       ??0Replicator@@QEAA@XZ     000000014002de60 f i LIBCMTD:undname.obj
 0001:0002ce80       ??0UnDecorator@@QEAA@PEADPEBDHP6APEADJ@ZK@Z 000000014002de80 f i LIBCMTD:undname.obj
 0001:0002cf50       ??0charNode@@QEAA@D@Z      000000014002df50 f   LIBCMTD:undname.obj
 0001:0002cf90       ??0pDNameNode@@QEAA@PEAVDName@@@Z 000000014002df90 f   LIBCMTD:undname.obj
 0001:0002d010       ??0pairNode@@QEAA@PEAVDNameNode@@0@Z 000000014002e010 f   LIBCMTD:undname.obj
 0001:0002d070       ??0pcharNode@@QEAA@PEBDH@Z 000000014002e070 f   LIBCMTD:undname.obj
 0001:0002d140       ??2@YAPEAX_KAEAV_HeapManager@@H@Z 000000014002e140 f i LIBCMTD:undname.obj
 0001:0002d170       ??4DName@@QEAAAEAV0@AEBV0@@Z 000000014002e170 f   LIBCMTD:undname.obj
 0001:0002d1a0       ??4DName@@QEAAAEAV0@D@Z    000000014002e1a0 f i LIBCMTD:undname.obj
 0001:0002d2a0       ??4DName@@QEAAAEAV0@PEAV0@@Z 000000014002e2a0 f   LIBCMTD:undname.obj
 0001:0002d410       ??4DName@@QEAAAEAV0@PEBD@Z 000000014002e410 f   LIBCMTD:undname.obj
 0001:0002d510       ??4DName@@QEAAAEAV0@W4DNameStatus@@@Z 000000014002e510 f   LIBCMTD:undname.obj
 0001:0002d640       ??AReplicator@@QEBA?AVDName@@H@Z 000000014002e640 f   LIBCMTD:undname.obj
 0001:0002d6d0       ??BUnDecorator@@QEAAPEADXZ 000000014002e6d0 f i LIBCMTD:undname.obj
 0001:0002d9f0       ??H@YA?AVDName@@DAEBV0@@Z  000000014002e9f0 f i LIBCMTD:undname.obj
 0001:0002da30       ??H@YA?AVDName@@PEBDAEBV0@@Z 000000014002ea30 f i LIBCMTD:undname.obj
 0001:0002da70       ??H@YA?AVDName@@W4DNameStatus@@AEBV0@@Z 000000014002ea70 f i LIBCMTD:undname.obj
 0001:0002dab0       ??HDName@@QEBA?AV0@AEBV0@@Z 000000014002eab0 f   LIBCMTD:undname.obj
 0001:0002db00       ??HDName@@QEBA?AV0@D@Z     000000014002eb00 f   LIBCMTD:undname.obj
 0001:0002db50       ??HDName@@QEBA?AV0@PEAV0@@Z 000000014002eb50 f   LIBCMTD:undname.obj
 0001:0002dba0       ??HDName@@QEBA?AV0@PEBD@Z  000000014002eba0 f   LIBCMTD:undname.obj
 0001:0002dbf0       ??HDName@@QEBA?AV0@W4DNameStatus@@@Z 000000014002ebf0 f   LIBCMTD:undname.obj
 0001:0002dc40       ??YDName@@QEAAAEAV0@AEBV0@@Z 000000014002ec40 f   LIBCMTD:undname.obj
 0001:0002dcc0       ??YDName@@QEAAAEAV0@D@Z    000000014002ecc0 f   LIBCMTD:undname.obj
 0001:0002dd60       ??YDName@@QEAAAEAV0@PEAV0@@Z 000000014002ed60 f   LIBCMTD:undname.obj
 0001:0002de40       ??YDName@@QEAAAEAV0@PEBD@Z 000000014002ee40 f   LIBCMTD:undname.obj
 0001:0002df00       ??YDName@@QEAAAEAV0@W4DNameStatus@@@Z 000000014002ef00 f   LIBCMTD:undname.obj
 0001:0002df70       ??YReplicator@@QEAAAEAV0@AEBVDName@@@Z 000000014002ef70 f   LIBCMTD:undname.obj
 0001:0002e030       ??_5DName@@QEAAAEAV0@AEBV0@@Z 000000014002f030 f   LIBCMTD:undname.obj
 0001:0002e0a0       ?Constructor@_HeapManager@@QEAAXP6APEAX_K@ZP6AXPEAX@Z@Z 000000014002f0a0 f i LIBCMTD:undname.obj
 0001:0002e100       ?Destructor@_HeapManager@@QEAAXXZ 000000014002f100 f i LIBCMTD:undname.obj
 0001:0002e160       ?UScore@UnDecorator@@SAPEBDW4Tokens@@@Z 000000014002f160 f   LIBCMTD:undname.obj
 0001:0002e1a0       ?append@DName@@AEAAXPEAVDNameNode@@@Z 000000014002f1a0 f   LIBCMTD:undname.obj
 0001:0002e250       ?composeDeclaration@UnDecorator@@CA?AVDName@@AEBV2@@Z 000000014002f250 f i LIBCMTD:undname.obj
 0001:00030310       ?dbGetString@DName@@QEBAPEADXZ 0000000140031310 f   LIBCMTD:undname.obj
 0001:00030340       ?doAccessSpecifiers@UnDecorator@@SAHXZ 0000000140031340 f i LIBCMTD:undname.obj
 0001:00030370       ?doAllocationLanguage@UnDecorator@@SAHXZ 0000000140031370 f i LIBCMTD:undname.obj
 0001:000303a0       ?doAllocationModel@UnDecorator@@SAHXZ 00000001400313a0 f i LIBCMTD:undname.obj
 0001:000303d0       ?doEcsu@UnDecorator@@SAHXZ 00000001400313d0 f i LIBCMTD:undname.obj
 0001:00030400       ?doEllipsis@UnDecorator@@SAHXZ 0000000140031400 f i LIBCMTD:undname.obj
 0001:00030430       ?doFunctionReturns@UnDecorator@@SAHXZ 0000000140031430 f i LIBCMTD:undname.obj
 0001:00030460       ?doMSKeywords@UnDecorator@@SAHXZ 0000000140031460 f i LIBCMTD:undname.obj
 0001:00030490       ?doMemberTypes@UnDecorator@@SAHXZ 0000000140031490 f i LIBCMTD:undname.obj
 0001:000304c0       ?doNameOnly@UnDecorator@@SAHXZ 00000001400314c0 f i LIBCMTD:undname.obj
 0001:000304d0       ?doNoIdentCharCheck@UnDecorator@@SAHXZ 00000001400314d0 f i LIBCMTD:undname.obj
 0001:000304e0       ?doPchar@DName@@AEAAXPEBDH@Z 00000001400314e0 f   LIBCMTD:undname.obj
 0001:00030670       ?doPtr64@UnDecorator@@SAHXZ 0000000140031670 f i LIBCMTD:undname.obj
 0001:000306a0       ?doRestrictionSpec@UnDecorator@@SAHXZ 00000001400316a0 f i LIBCMTD:undname.obj
 0001:000306d0       ?doThisTypes@UnDecorator@@SAHXZ 00000001400316d0 f i LIBCMTD:undname.obj
 0001:00030700       ?doThrowTypes@UnDecorator@@SAHXZ 0000000140031700 f i LIBCMTD:undname.obj
 0001:00030730       ?doTypeOnly@UnDecorator@@SAHXZ 0000000140031730 f i LIBCMTD:undname.obj
 0001:00030740       ?doUnderScore@UnDecorator@@SAHXZ 0000000140031740 f i LIBCMTD:undname.obj
 0001:00030770       ?getArgumentList@UnDecorator@@CA?AVDName@@XZ 0000000140031770 f   LIBCMTD:undname.obj
 0001:00030910       ?getArgumentTypes@UnDecorator@@CA?AVDName@@XZ 0000000140031910 f   LIBCMTD:undname.obj
 0001:00030ad0       ?getArrayType@UnDecorator@@CA?AVDName@@AEBV2@@Z 0000000140031ad0 f i LIBCMTD:undname.obj
 0001:00030dc0       ?getBasedType@UnDecorator@@CA?AVDName@@XZ 0000000140031dc0 f   LIBCMTD:undname.obj
 0001:00030eb0       ?getBasicDataType@UnDecorator@@CA?AVDName@@AEBV2@@Z 0000000140031eb0 f   LIBCMTD:undname.obj
 0001:000315c0       ?getCallIndex@UnDecorator@@CA?AVDName@@XZ 00000001400325c0 f i LIBCMTD:undname.obj
 0001:000315e0       ?getCallingConvention@UnDecorator@@CA?AVDName@@XZ 00000001400325e0 f   LIBCMTD:undname.obj
 0001:000317b0       ?getDataIndirectType@UnDecorator@@CA?AVDName@@AEBV2@PEBD0H@Z 00000001400327b0 f   LIBCMTD:undname.obj
 0001:00032120       ?getDataIndirectType@UnDecorator@@CA?AVDName@@XZ 0000000140033120 f i LIBCMTD:undname.obj
 0001:00032180       ?getDataType@UnDecorator@@CA?AVDName@@PEAV2@@Z 0000000140033180 f   LIBCMTD:undname.obj
 0001:00032310       ?getDecoratedName@UnDecorator@@CA?AVDName@@XZ 0000000140033310 f   LIBCMTD:undname.obj
 0001:00032710       ?getDimension@UnDecorator@@CA?AVDName@@_N@Z 0000000140033710 f   LIBCMTD:undname.obj
 0001:00032a70       ?getDispatchTarget@UnDecorator@@CA?AVDName@@XZ 0000000140033a70 f   LIBCMTD:undname.obj
 0001:00032b40       ?getDisplacement@UnDecorator@@CA?AVDName@@XZ 0000000140033b40 f i LIBCMTD:undname.obj
 0001:00032b60       ?getECSUDataType@UnDecorator@@CA?AVDName@@XZ 0000000140033b60 f   LIBCMTD:undname.obj
 0001:00032da0       ?getECSUName@UnDecorator@@CA?AVDName@@XZ 0000000140033da0 f i LIBCMTD:undname.obj
 0001:00032dc0       ?getEnumType@UnDecorator@@CA?AVDName@@XZ 0000000140033dc0 f i LIBCMTD:undname.obj
 0001:00032f40       ?getExtendedDataIndirectType@UnDecorator@@CA?AVDName@@AEAPEBDAEA_NH@Z 0000000140033f40 f   LIBCMTD:undname.obj
 0001:00033260       ?getExternalDataType@UnDecorator@@CA?AVDName@@AEBV2@@Z 0000000140034260 f i LIBCMTD:undname.obj
 0001:00033330       ?getFunctionIndirectType@UnDecorator@@CA?AVDName@@AEBV2@@Z 0000000140034330 f   LIBCMTD:undname.obj
 0001:000338b0       ?getGuardNumber@UnDecorator@@CA?AVDName@@XZ 00000001400348b0 f i LIBCMTD:undname.obj
 0001:000338d0       ?getLastChar@DName@@QEBADXZ 00000001400348d0 f i LIBCMTD:undname.obj
 0001:00033910       ?getLastChar@DNameStatusNode@@UEBADXZ 0000000140034910 f i LIBCMTD:undname.obj
 0001:00033950       ?getLastChar@charNode@@UEBADXZ 0000000140034950 f i LIBCMTD:undname.obj
 0001:00033960       ?getLastChar@pDNameNode@@UEBADXZ 0000000140034960 f i LIBCMTD:undname.obj
 0001:000339a0       ?getLastChar@pairNode@@UEBADXZ 00000001400349a0 f i LIBCMTD:undname.obj
 0001:00033a00       ?getLastChar@pcharNode@@UEBADXZ 0000000140034a00 f i LIBCMTD:undname.obj
 0001:00033a40       ?getLexicalFrame@UnDecorator@@CA?AVDName@@XZ 0000000140034a40 f i LIBCMTD:undname.obj
 0001:00033a80       ?getMemory@_HeapManager@@QEAAPEAX_KH@Z 0000000140034a80 f   LIBCMTD:undname.obj
 0001:00033bf0       ?getNumberOfDimensions@UnDecorator@@CAHXZ 0000000140034bf0 f   LIBCMTD:undname.obj
 0001:00033d10       ?getOperatorName@UnDecorator@@CA?AVDName@@_NPEA_N@Z 0000000140034d10 f i LIBCMTD:undname.obj
 0001:000349b0       ?getPointerType@UnDecorator@@CA?AVDName@@AEBV2@0@Z 00000001400359b0 f i LIBCMTD:undname.obj
 0001:00034a00       ?getPointerTypeArray@UnDecorator@@CA?AVDName@@AEBV2@0@Z 0000000140035a00 f i LIBCMTD:undname.obj
 0001:00034a50       ?getPrimaryDataType@UnDecorator@@CA?AVDName@@AEBV2@@Z 0000000140035a50 f   LIBCMTD:undname.obj
 0001:00034ed0       ?getPtrRefDataType@UnDecorator@@CA?AVDName@@AEBV2@H@Z 0000000140035ed0 f i LIBCMTD:undname.obj
 0001:00035050       ?getPtrRefType@UnDecorator@@CA?AVDName@@AEBV2@0PEBD@Z 0000000140036050 f   LIBCMTD:undname.obj
 0001:00035260       ?getReferenceType@UnDecorator@@CA?AVDName@@AEBV2@0PEBD@Z 0000000140036260 f i LIBCMTD:undname.obj
 0001:000352a0       ?getRestrictionSpec@UnDecorator@@CA?AVDName@@XZ 00000001400362a0 f   LIBCMTD:undname.obj
 0001:00035440       ?getReturnType@UnDecorator@@CA?AVDName@@PEAV2@@Z 0000000140036440 f   LIBCMTD:undname.obj
 0001:000354a0       ?getScope@UnDecorator@@CA?AVDName@@XZ 00000001400364a0 f   LIBCMTD:undname.obj
 0001:00035a90       ?getScopedName@UnDecorator@@CA?AVDName@@XZ 0000000140036a90 f   LIBCMTD:undname.obj
 0001:00035c00       ?getSignedDimension@UnDecorator@@CA?AVDName@@XZ 0000000140036c00 f   LIBCMTD:undname.obj
 0001:00035c90       ?getStorageConvention@UnDecorator@@CA?AVDName@@XZ 0000000140036c90 f i LIBCMTD:undname.obj
 0001:00035cb0       ?getString@DName@@QEBAPEADPEAD0@Z 0000000140036cb0 f i LIBCMTD:undname.obj
 0001:00035d00       ?getString@DName@@QEBAPEADPEADH@Z 0000000140036d00 f i LIBCMTD:undname.obj
 0001:00035dc0       ?getString@DNameStatusNode@@UEBAPEADPEAD0@Z 0000000140036dc0 f i LIBCMTD:undname.obj
 0001:00035e10       ?getString@charNode@@UEBAPEADPEAD0@Z 0000000140036e10 f i LIBCMTD:undname.obj
 0001:00035e50       ?getString@pDNameNode@@UEBAPEADPEAD0@Z 0000000140036e50 f i LIBCMTD:undname.obj
 0001:00035eb0       ?getString@pairNode@@UEBAPEADPEAD0@Z 0000000140036eb0 f i LIBCMTD:undname.obj
 0001:00035f30       ?getString@pcharNode@@UEBAPEADPEAD0@Z 0000000140036f30 f i LIBCMTD:undname.obj
 0001:00035f70       ?getStringEncoding@UnDecorator@@CA?AVDName@@PEADH@Z 0000000140036f70 f   LIBCMTD:undname.obj
 0001:000360b0       ?getStringHelper@@YAPEADPEAD00H@Z 00000001400370b0 f i LIBCMTD:undname.obj
 0001:00036120       ?getSymbolName@UnDecorator@@CA?AVDName@@XZ 0000000140037120 f i LIBCMTD:undname.obj
 0001:000361c0       ?getTemplateArgumentList@UnDecorator@@CA?AVDName@@XZ 00000001400371c0 f   LIBCMTD:undname.obj
 0001:000364f0       ?getTemplateConstant@UnDecorator@@CA?AVDName@@XZ 00000001400374f0 f   LIBCMTD:undname.obj
 0001:00036aa0       ?getTemplateName@UnDecorator@@CA?AVDName@@_N@Z 0000000140037aa0 f   LIBCMTD:undname.obj
 0001:00036cf0       ?getThisType@UnDecorator@@CA?AVDName@@XZ 0000000140037cf0 f i LIBCMTD:undname.obj
 0001:00036d50       ?getThrowTypes@UnDecorator@@CA?AVDName@@XZ 0000000140037d50 f   LIBCMTD:undname.obj
 0001:00036e40       ?getTypeEncoding@UnDecorator@@CAHXZ 0000000140037e40 f i LIBCMTD:undname.obj
 0001:000379f0       ?getVCallThunkType@UnDecorator@@CA?AVDName@@XZ 00000001400389f0 f i LIBCMTD:undname.obj
 0001:00037a70       ?getVbTableType@UnDecorator@@CA?AVDName@@AEBV2@@Z 0000000140038a70 f i LIBCMTD:undname.obj
 0001:00037aa0       ?getVdispMapType@UnDecorator@@CA?AVDName@@AEBV2@@Z 0000000140038aa0 f i LIBCMTD:undname.obj
 0001:00037b30       ?getVfTableType@UnDecorator@@CA?AVDName@@AEBV2@@Z 0000000140038b30 f i LIBCMTD:undname.obj
 0001:00037d60       ?getZName@UnDecorator@@CA?AVDName@@_N0@Z 0000000140038d60 f   LIBCMTD:undname.obj
 0001:000380e0       ?haveTemplateParameters@UnDecorator@@SAHXZ 00000001400390e0 f i LIBCMTD:undname.obj
 0001:000380f0       ?isArray@DName@@QEBAHXZ    00000001400390f0 f i LIBCMTD:undname.obj
 0001:00038110       ?isComArray@DName@@QEBAHXZ 0000000140039110 f i LIBCMTD:undname.obj
 0001:00038130       ?isEmpty@DName@@QEBAHXZ    0000000140039130 f i LIBCMTD:undname.obj
 0001:00038160       ?isFull@Replicator@@QEBAHXZ 0000000140039160 f i LIBCMTD:undname.obj
 0001:00038190       ?isNoTE@DName@@QEBAHXZ     0000000140039190 f i LIBCMTD:undname.obj
 0001:000381b0       ?isPinPtr@DName@@QEBAHXZ   00000001400391b0 f i LIBCMTD:undname.obj
 0001:000381d0       ?isPtrRef@DName@@QEBAHXZ   00000001400391d0 f i LIBCMTD:undname.obj
 0001:000381f0       ?isUDC@DName@@QEBAHXZ      00000001400391f0 f i LIBCMTD:undname.obj
 0001:00038240       ?isUDTThunk@DName@@QEBAHXZ 0000000140039240 f i LIBCMTD:undname.obj
 0001:00038290       ?isVCallThunk@DName@@QEBAHXZ 0000000140039290 f i LIBCMTD:undname.obj
 0001:000382b0       ?isValid@DName@@QEBAHXZ    00000001400392b0 f i LIBCMTD:undname.obj
 0001:000382f0       ?length@DName@@QEBAHXZ     00000001400392f0 f i LIBCMTD:undname.obj
 0001:00038330       ?length@DNameStatusNode@@UEBAHXZ 0000000140039330 f i LIBCMTD:undname.obj
 0001:00038340       ?length@charNode@@UEBAHXZ  0000000140039340 f i LIBCMTD:undname.obj
 0001:00038350       ?length@pDNameNode@@UEBAHXZ 0000000140039350 f i LIBCMTD:undname.obj
 0001:00038390       ?length@pairNode@@UEBAHXZ  0000000140039390 f i LIBCMTD:undname.obj
 0001:00038400       ?length@pcharNode@@UEBAHXZ 0000000140039400 f i LIBCMTD:undname.obj
 0001:00038410       ?make@DNameStatusNode@@SAPEAV1@W4DNameStatus@@@Z 0000000140039410 f i LIBCMTD:undname.obj
 0001:000384c0       ?setIsArray@DName@@QEAAXXZ 00000001400394c0 f i LIBCMTD:undname.obj
 0001:000384e0       ?setIsComArray@DName@@QEAAXXZ 00000001400394e0 f i LIBCMTD:undname.obj
 0001:00038500       ?setIsNoTE@DName@@QEAAXXZ  0000000140039500 f i LIBCMTD:undname.obj
 0001:00038520       ?setIsPinPtr@DName@@QEAAXXZ 0000000140039520 f i LIBCMTD:undname.obj
 0001:00038540       ?setIsUDC@DName@@QEAAXXZ   0000000140039540 f i LIBCMTD:undname.obj
 0001:00038570       ?setIsVCallThunk@DName@@QEAAXXZ 0000000140039570 f i LIBCMTD:undname.obj
 0001:00038590       ?setPtrRef@DName@@QEAAAEAV1@XZ 0000000140039590 f i LIBCMTD:undname.obj
 0001:000385b0       ?status@DName@@QEBA?AW4DNameStatus@@XZ 00000001400395b0 f i LIBCMTD:undname.obj
 0001:000386e0       __unDName                  00000001400396e0 f   LIBCMTD:undname.obj
 0001:000387c0       __unDNameEx                00000001400397c0 f   LIBCMTD:undname.obj
 0001:000388a0       ?_inconsistency@@YAXXZ     00000001400398a0 f   LIBCMTD:hooks.obj
 0001:000388d0       ?terminate@@YAXXZ          00000001400398d0 f   LIBCMTD:hooks.obj
 0001:00038900       ?unexpected@@YAXXZ         0000000140039900 f   LIBCMTD:hooks.obj
 0001:00038930       _initp_eh_hooks            0000000140039930 f   LIBCMTD:hooks.obj
 0001:00038960       __onexitinit               0000000140039960 f   LIBCMTD:onexit.obj
 0001:000389d0       _onexit                    00000001400399d0 f   LIBCMTD:onexit.obj
 0001:00038bd0       atexit                     0000000140039bd0 f   LIBCMTD:onexit.obj
 0001:00038c10       _initp_misc_rand_s         0000000140039c10 f   LIBCMTD:rand_s.obj
 0001:00038c30       rand_s                     0000000140039c30 f   LIBCMTD:rand_s.obj
 0001:00038f60       _ftbuf                     0000000140039f60 f   LIBCMTD:_sftbuf.obj
 0001:00039020       _stbuf                     000000014003a020 f   LIBCMTD:_sftbuf.obj
 0001:000392d0       _ismbbalnum                000000014003a2d0 f   LIBCMTD:ismbbyte.obj
 0001:00039300       _ismbbalnum_l              000000014003a300 f   LIBCMTD:ismbbyte.obj
 0001:00039330       _ismbbalpha                000000014003a330 f   LIBCMTD:ismbbyte.obj
 0001:00039360       _ismbbalpha_l              000000014003a360 f   LIBCMTD:ismbbyte.obj
 0001:00039390       _ismbbgraph                000000014003a390 f   LIBCMTD:ismbbyte.obj
 0001:000393c0       _ismbbgraph_l              000000014003a3c0 f   LIBCMTD:ismbbyte.obj
 0001:000393f0       _ismbbkalnum               000000014003a3f0 f   LIBCMTD:ismbbyte.obj
 0001:00039420       _ismbbkalnum_l             000000014003a420 f   LIBCMTD:ismbbyte.obj
 0001:00039450       _ismbbkana                 000000014003a450 f   LIBCMTD:ismbbyte.obj
 0001:00039470       _ismbbkana_l               000000014003a470 f   LIBCMTD:ismbbyte.obj
 0001:00039500       _ismbbkprint               000000014003a500 f   LIBCMTD:ismbbyte.obj
 0001:00039530       _ismbbkprint_l             000000014003a530 f   LIBCMTD:ismbbyte.obj
 0001:00039560       _ismbbkpunct               000000014003a560 f   LIBCMTD:ismbbyte.obj
 0001:00039590       _ismbbkpunct_l             000000014003a590 f   LIBCMTD:ismbbyte.obj
 0001:000395c0       _ismbblead                 000000014003a5c0 f   LIBCMTD:ismbbyte.obj
 0001:000395f0       _ismbblead_l               000000014003a5f0 f   LIBCMTD:ismbbyte.obj
 0001:00039620       _ismbbprint                000000014003a620 f   LIBCMTD:ismbbyte.obj
 0001:00039650       _ismbbprint_l              000000014003a650 f   LIBCMTD:ismbbyte.obj
 0001:00039680       _ismbbpunct                000000014003a680 f   LIBCMTD:ismbbyte.obj
 0001:000396b0       _ismbbpunct_l              000000014003a6b0 f   LIBCMTD:ismbbyte.obj
 0001:000396e0       _ismbbtrail                000000014003a6e0 f   LIBCMTD:ismbbyte.obj
 0001:00039710       _ismbbtrail_l              000000014003a710 f   LIBCMTD:ismbbyte.obj
 0001:00039740       __vswprintf_l              000000014003a740 f   LIBCMTD:vswprint.obj
 0001:00039780       _vscwprintf                000000014003a780 f   LIBCMTD:vswprint.obj
 0001:000397b0       _vscwprintf_helper         000000014003a7b0 f   LIBCMTD:vswprint.obj
 0001:00039900       _vscwprintf_l              000000014003a900 f   LIBCMTD:vswprint.obj
 0001:00039940       _vscwprintf_p              000000014003a940 f   LIBCMTD:vswprint.obj
 0001:00039970       _vscwprintf_p_l            000000014003a970 f   LIBCMTD:vswprint.obj
 0001:000399b0       _vswprintf                 000000014003a9b0 f   LIBCMTD:vswprint.obj
 0001:000399e0       _vswprintf_l               000000014003a9e0 f   LIBCMTD:vswprint.obj
 0001:00039cb0       _vsnwprintf_s              000000014003acb0 f   LIBCMTD:vswprnc.obj
 0001:00039d00       _vsnwprintf_s_l            000000014003ad00 f   LIBCMTD:vswprnc.obj
 0001:0003a2b0       _vswprintf_c               000000014003b2b0 f   LIBCMTD:vswprnc.obj
 0001:0003a320       _vswprintf_c_l             000000014003b320 f   LIBCMTD:vswprnc.obj
 0001:0003a390       _vswprintf_helper          000000014003b390 f   LIBCMTD:vswprnc.obj
 0001:0003a6e0       _vswprintf_p               000000014003b6e0 f   LIBCMTD:vswprnc.obj
 0001:0003a750       _vswprintf_p_l             000000014003b750 f   LIBCMTD:vswprnc.obj
 0001:0003a7c0       _vswprintf_s_l             000000014003b7c0 f   LIBCMTD:vswprnc.obj
 0001:0003ab50       vswprintf_s                000000014003bb50 f   LIBCMTD:vswprnc.obj
 0001:0003ab90       _woutput_l                 000000014003bb90 f   LIBCMTD:woutput.obj
 0001:0003c2f0       strcat_s                   000000014003d2f0 f   LIBCMTD:strcat_s.obj
 0001:0003c900       _i64toa_s                  000000014003d900 f   LIBCMTD:xtoas.obj
 0001:0003c960       _itoa_s                    000000014003d960 f   LIBCMTD:xtoas.obj
 0001:0003c9e0       _ltoa_s                    000000014003d9e0 f   LIBCMTD:xtoas.obj
 0001:0003ca40       _ui64toa_s                 000000014003da40 f   LIBCMTD:xtoas.obj
 0001:0003ca80       _ultoa_s                   000000014003da80 f   LIBCMTD:xtoas.obj
 0001:0003d650       _mbstowcs_l                000000014003e650 f   LIBCMTD:mbstowcs.obj
 0001:0003d690       _mbstowcs_l_helper         000000014003e690 f   LIBCMTD:mbstowcs.obj
 0001:0003dc00       _mbstowcs_s_l              000000014003ec00 f   LIBCMTD:mbstowcs.obj
 0001:0003e190       mbstowcs                   000000014003f190 f   LIBCMTD:mbstowcs.obj
 0001:0003e1f0       mbstowcs_s                 000000014003f1f0 f   LIBCMTD:mbstowcs.obj
 0001:0003e2d0       _wcstombs_l                000000014003f2d0 f   LIBCMTD:wcstombs.obj
 0001:0003e310       _wcstombs_l_helper         000000014003f310 f   LIBCMTD:wcstombs.obj
 0001:0003eb20       _wcstombs_s_l              000000014003fb20 f   LIBCMTD:wcstombs.obj
 0001:0003f020       wcstombs                   0000000140040020 f   LIBCMTD:wcstombs.obj
 0001:0003f050       wcstombs_s                 0000000140040050 f   LIBCMTD:wcstombs.obj
 0001:0003f0a0       _i64tow_s                  00000001400400a0 f   LIBCMTD:xtows.obj
 0001:0003f100       _itow_s                    0000000140040100 f   LIBCMTD:xtows.obj
 0001:0003f180       _ltow_s                    0000000140040180 f   LIBCMTD:xtows.obj
 0001:0003f1e0       _ui64tow_s                 00000001400401e0 f   LIBCMTD:xtows.obj
 0001:0003f220       _ultow_s                   0000000140040220 f   LIBCMTD:xtows.obj
 0001:0003fe30       __GSHandlerCheck_SEH       0000000140040e30 f   LIBCMTD:gshandlerseh.obj
 0001:0003fef0       __free_lconv_mon           0000000140040ef0 f   LIBCMTD:initmon.obj
 0001:00040100       __init_monetary            0000000140041100 f   LIBCMTD:initmon.obj
 0001:000409d0       __free_lconv_num           00000001400419d0 f   LIBCMTD:initnum.obj
 0001:00040ab0       __init_numeric             0000000140041ab0 f   LIBCMTD:initnum.obj
 0001:00041020       __free_lc_time             0000000140042020 f   LIBCMTD:inittime.obj
 0001:00041a80       __init_time                0000000140042a80 f   LIBCMTD:inittime.obj
 0001:000431f0       localeconv                 00000001400441f0 f   LIBCMTD:lconv.obj
 0001:000436d0       __crtLCMapStringA          00000001400446d0 f   LIBCMTD:a_map.obj
 0001:00043900       __crtGetStringTypeA        0000000140044900 f   LIBCMTD:a_str.obj
 0001:00043a20       ?_ExecutionInCatch@@YAHPEAU_xDISPATCHER_CONTEXT@@PEBU_s_FuncInfo@@@Z 0000000140044a20 f   LIBCMTD:trnsctrl.obj
 0001:00043a70       ?_GetEstablisherFrame@@YAPEA_KPEA_KPEAU_xDISPATCHER_CONTEXT@@PEBU_s_FuncInfo@@0@Z 0000000140044a70 f   LIBCMTD:trnsctrl.obj
 0001:00043be0       ?_GetRangeOfTrysToCheck@@YAPEBU_s_TryBlockMapEntry@@PEA_KPEBU_s_FuncInfo@@HHPEAI2PEAU_xDISPATCHER_CONTEXT@@@Z 0000000140044be0 f   LIBCMTD:trnsctrl.obj
 0001:00043e00       ?__FrameUnwindToEmptyState@@YAXPEA_KPEAU_xDISPATCHER_CONTEXT@@PEBU_s_FuncInfo@@@Z 0000000140044e00 f   LIBCMTD:trnsctrl.obj
 0001:00043ea0       ?__SehTransFilter@@YAHPEAU_EXCEPTION_POINTERS@@PEAUEHExceptionRecord@@PEA_KPEAU_CONTEXT@@PEAU_xDISPATCHER_CONTEXT@@PEBU_s_FuncInfo@@PEAH@Z 0000000140044ea0 f   LIBCMTD:trnsctrl.obj
 0001:00043f60       _CallSETranslator          0000000140044f60 f   LIBCMTD:trnsctrl.obj
 0001:00043fe0       _CreateFrameInfo           0000000140044fe0 f   LIBCMTD:trnsctrl.obj
 0001:00044060       _FindAndUnlinkFrame        0000000140045060 f   LIBCMTD:trnsctrl.obj
 0001:000440f0       _GetImageBase              00000001400450f0 f   LIBCMTD:trnsctrl.obj
 0001:00044110       _GetThrowImageBase         0000000140045110 f   LIBCMTD:trnsctrl.obj
 0001:00044130       _IsExceptionObjectToBeDestroyed 0000000140045130 f   LIBCMTD:trnsctrl.obj
 0001:00044190       _MoveContext               0000000140045190 f   LIBCMTD:trnsctrl.obj
 0001:000441c0       _SetImageBase              00000001400451c0 f   LIBCMTD:trnsctrl.obj
 0001:000441e0       _SetThrowImageBase         00000001400451e0 f   LIBCMTD:trnsctrl.obj
 0001:00044200       _UnwindNestedFrames        0000000140045200 f   LIBCMTD:trnsctrl.obj
 0001:00044370       __CxxFrameHandler          0000000140045370 f   LIBCMTD:trnsctrl.obj
 0001:00044430       __CxxFrameHandler2         0000000140045430 f   LIBCMTD:trnsctrl.obj
 0001:00044470       __CxxFrameHandler3         0000000140045470 f   LIBCMTD:trnsctrl.obj
 0001:00044530       _iswctype_l                0000000140045530 f   LIBCMTD:iswctype.obj
 0001:00044560       is_wctype                  0000000140045560 f   LIBCMTD:iswctype.obj
 0001:00044590       iswctype                   0000000140045590 f   LIBCMTD:iswctype.obj
 0001:00044610       _vprintf_l                 0000000140045610 f   LIBCMTD:vprintf.obj
 0001:00044650       _vprintf_p                 0000000140045650 f   LIBCMTD:vprintf.obj
 0001:00044680       _vprintf_p_l               0000000140045680 f   LIBCMTD:vprintf.obj
 0001:000446c0       _vprintf_s_l               00000001400456c0 f   LIBCMTD:vprintf.obj
 0001:00044700       vprintf                    0000000140045700 f   LIBCMTD:vprintf.obj
 0001:00044730       vprintf_helper             0000000140045730 f   LIBCMTD:vprintf.obj
 0001:00044860       vprintf_s                  0000000140045860 f   LIBCMTD:vprintf.obj
 0001:00044890       ___lc_codepage_func        0000000140045890 f   LIBCMTD:initctyp.obj
 0001:000448f0       ___lc_collate_cp_func      00000001400458f0 f   LIBCMTD:initctyp.obj
 0001:00044950       ___lc_locale_name_func     0000000140045950 f   LIBCMTD:initctyp.obj
 0001:000449b0       ___mb_cur_max_func         00000001400459b0 f   LIBCMTD:initctyp.obj
 0001:00044a10       ___mb_cur_max_l_func       0000000140045a10 f   LIBCMTD:initctyp.obj
 0001:00044a50       __init_ctype               0000000140045a50 f   LIBCMTD:initctyp.obj
 0001:00045330       __pctype_func              0000000140046330 f   LIBCMTD:ctype.obj
 0001:00045390       __pwctype_func             0000000140046390 f   LIBCMTD:ctype.obj
 0001:000453a0       _fptrap                    00000001400463a0 f   LIBCMTD:crt0fp.obj
 0001:000453c0       __init_dummy               00000001400463c0 f   LIBCMTD:wsetloca.obj
 0001:000453d0       _locterm                   00000001400463d0 f   LIBCMTD:wsetloca.obj
 0001:00045420       ___setlc_active_func       0000000140046420 f   LIBCMTD:wsetloca.obj
 0001:00045430       ___unguarded_readlc_active_add_func 0000000140046430 f   LIBCMTD:wsetloca.obj
 0001:00045440       __copy_locale_name         0000000140046440 f   LIBCMTD:wsetloca.obj
 0001:00045510       __create_locale            0000000140046510 f   LIBCMTD:wsetloca.obj
 0001:00045530       __free_locale              0000000140046530 f   LIBCMTD:wsetloca.obj
 0001:00045550       __get_current_locale       0000000140046550 f   LIBCMTD:wsetloca.obj
 0001:00045560       __lc_lctowcs               0000000140046560 f   LIBCMTD:wsetloca.obj
 0001:00045650       __lc_wcstolc               0000000140046650 f   LIBCMTD:wsetloca.obj
 0001:00045910       _configthreadlocale        0000000140046910 f   LIBCMTD:wsetloca.obj
 0001:00045ad0       _create_locale             0000000140046ad0 f   LIBCMTD:wsetloca.obj
 0001:00045b70       _expandlocale              0000000140046b70 f   LIBCMTD:wsetloca.obj
 0001:000460e0       _free_locale               00000001400470e0 f   LIBCMTD:wsetloca.obj
 0001:000461d0       _get_current_locale        00000001400471d0 f   LIBCMTD:wsetloca.obj
 0001:000462b0       _wcreate_locale            00000001400472b0 f   LIBCMTD:wsetloca.obj
 0001:000464e0       _wcscats                   00000001400474e0 f   LIBCMTD:wsetloca.obj
 0001:00046590       _wsetlocale                0000000140047590 f   LIBCMTD:wsetloca.obj
 0001:000478a0       _fclose_nolock             00000001400488a0 f   LIBCMTD:fclose.obj
 0001:000479f0       fclose                     00000001400489f0 f   LIBCMTD:fclose.obj
 0001:00047c10       _wopen                     0000000140048c10 f   LIBCMTD:wopen.obj
 0001:00047de0       _wsopen                    0000000140048de0 f   LIBCMTD:wopen.obj
 0001:00047e90       _wsopen_helper             0000000140048e90 f   LIBCMTD:wopen.obj
 0001:000481c0       _wsopen_nolock             00000001400491c0 f   LIBCMTD:wopen.obj
 0001:00049680       _wsopen_s                  000000014004a680 f   LIBCMTD:wopen.obj
 0001:000496e0       strncmp                    000000014004a6e0 f   LIBCMTD:strncmp.obj
 0001:00049760       __ascii_strnicmp           000000014004a760 f   LIBCMTD:strnicmp.obj
 0001:00049840       _strnicmp                  000000014004a840 f   LIBCMTD:strnicmp.obj
 0001:00049a90       _strnicmp_l                000000014004aa90 f   LIBCMTD:strnicmp.obj
 0001:00049e40       __termconout               000000014004ae40 f   LIBCMTD:initcon.obj
 0001:00049e70       __initconout               000000014004ae70 f   LIBCMTD:initcon.obj
 0001:00049ec0       malloc                     000000014004aec0 f   LIBCMTD:dbgmalloc.obj
 0001:00049f00       _atoi64                    000000014004af00 f   LIBCMTD:atox.obj
 0001:00049f20       _atoi64_l                  000000014004af20 f   LIBCMTD:atox.obj
 0001:00049f50       _atoi_l                    000000014004af50 f   LIBCMTD:atox.obj
 0001:00049f80       _atol_l                    000000014004af80 f   LIBCMTD:atox.obj
 0001:00049fb0       atoi                       000000014004afb0 f   LIBCMTD:atox.obj
 0001:00049fd0       atol                       000000014004afd0 f   LIBCMTD:atox.obj
 0001:00049ff0       _validate_param_reuseW     000000014004aff0 f   LIBCMTD:woutputp.obj
 0001:0004a360       _woutput_p_l               000000014004b360 f   LIBCMTD:woutputp.obj
 0001:0004e520       _woutput_s_l               000000014004f520 f   LIBCMTD:woutputs.obj
 0001:0004fe30       _fputwc_nolock             0000000140050e30 f   LIBCMTD:fputwc.obj
 0001:00050290       fputwc                     0000000140051290 f   LIBCMTD:fputwc.obj
 0001:00050390       putwc                      0000000140051390 f   LIBCMTD:fputwc.obj
 0001:000503c0       __DestructExceptionObject  00000001400513c0 f   LIBCMTD:frame.obj
 0001:000504b0       ??0bad_exception@std@@QEAA@AEBV01@@Z 00000001400514b0 f i LIBCMTD:frame.obj
 0001:000504f0       ??0bad_exception@std@@QEAA@PEBD@Z 00000001400514f0 f i LIBCMTD:frame.obj
 0001:00050530       ??1bad_exception@std@@UEAA@XZ 0000000140051530 f i LIBCMTD:frame.obj
 0001:00050560       ??_Gbad_exception@std@@UEAAPEAXI@Z 0000000140051560 f i LIBCMTD:frame.obj
 0001:00050560       ??_Ebad_exception@std@@UEAAPEAXI@Z 0000000140051560 f i LIBCMTD:frame.obj
 0001:00051530       ?__uncaught_exception@@YA_NXZ 0000000140052530 f   LIBCMTD:frame.obj
 0001:00051560       ?_is_exception_typeof@@YAHAEBVtype_info@@PEAU_EXCEPTION_POINTERS@@@Z 0000000140052560 f   LIBCMTD:frame.obj
 0001:000516b0       __AdjustPointer            00000001400526b0 f   LIBCMTD:frame.obj
 0001:00051730       __BuildCatchObject         0000000140052730 f   LIBCMTD:frame.obj
 0001:00051870       __BuildCatchObjectHelper   0000000140052870 f   LIBCMTD:frame.obj
 0001:00051c00       __CxxCallCatchBlock        0000000140052c00 f   LIBCMTD:frame.obj
 0001:00051e70       __CxxDetectRethrow         0000000140052e70 f   LIBCMTD:frame.obj
 0001:00051f20       __CxxExceptionFilter       0000000140052f20 f   LIBCMTD:frame.obj
 0001:00052260       __CxxQueryExceptionSize    0000000140053260 f   LIBCMTD:frame.obj
 0001:00052270       __CxxRegisterExceptionObject 0000000140053270 f   LIBCMTD:frame.obj
 0001:00052400       __CxxUnregisterExceptionObject 0000000140053400 f   LIBCMTD:frame.obj
 0001:000525c0       __FrameUnwindFilter        00000001400535c0 f   LIBCMTD:frame.obj
 0001:00052650       __FrameUnwindToState       0000000140053650 f   LIBCMTD:frame.obj
 0001:000528b0       __InternalCxxFrameHandler  00000001400538b0 f   LIBCMTD:frame.obj
 0001:00052cd0       __TypeMatch                0000000140053cd0 f   LIBCMTD:frame.obj
 0001:00052e90       ?__GetCurrentState@@YAHPEA_KPEAU_xDISPATCHER_CONTEXT@@PEBU_s_FuncInfo@@@Z 0000000140053e90 f   LIBCMTD:ehstate.obj
 0001:00052ef0       ?__GetUnwindTryBlock@@YAHPEA_KPEAU_xDISPATCHER_CONTEXT@@PEBU_s_FuncInfo@@@Z 0000000140053ef0 f   LIBCMTD:ehstate.obj
 0001:00052f40       ?__SetState@@YAXPEA_KPEAU_xDISPATCHER_CONTEXT@@PEBU_s_FuncInfo@@H@Z 0000000140053f40 f   LIBCMTD:ehstate.obj
 0001:00052f70       ?__SetUnwindTryBlock@@YAXPEA_KPEAU_xDISPATCHER_CONTEXT@@PEBU_s_FuncInfo@@H@Z 0000000140053f70 f   LIBCMTD:ehstate.obj
 0001:00052fe0       ?__StateFromControlPc@@YAHPEBU_s_FuncInfo@@PEAU_xDISPATCHER_CONTEXT@@@Z 0000000140053fe0 f   LIBCMTD:ehstate.obj
 0001:00053010       ?__StateFromIp@@YAHPEBU_s_FuncInfo@@PEAU_xDISPATCHER_CONTEXT@@_J@Z 0000000140054010 f   LIBCMTD:ehstate.obj
 0001:000530f0       __init_collate             00000001400540f0 f   LIBCMTD:initcoll.obj
 0001:00053110       memcmp                     0000000140054110 f   LIBCMTD:memcmp.obj
 0001:000531e0       wcscmp                     00000001400541e0 f   LIBCMTD:wcscmp.obj
 0001:00053260       wcscspn                    0000000140054260 f   LIBCMTD:wcscspn.obj
 0001:00053300       wcsnlen                    0000000140054300 f   LIBCMTD:wcslen_s.obj
 0001:00053360       wcsncmp                    0000000140054360 f   LIBCMTD:wcsncmp.obj
 0001:000533f0       wcspbrk                    00000001400543f0 f   LIBCMTD:wcspbrk.obj
 0001:000540e0       __get_qualified_locale     00000001400550e0 f   LIBCMTD:getqloc.obj
 0001:00054430       _close                     0000000140055430 f   LIBCMTD:close.obj
 0001:000546c0       _close_nolock              00000001400556c0 f   LIBCMTD:close.obj
 0001:000547e0       _freebuf                   00000001400557e0 f   LIBCMTD:_freebuf.obj
 0001:000548a0       _chsize                    00000001400558a0 f   LIBCMTD:chsize.obj
 0001:000548f0       _chsize_nolock             00000001400558f0 f   LIBCMTD:chsize.obj
 0001:00054b80       _chsize_s                  0000000140055b80 f   LIBCMTD:chsize.obj
 0001:00054ec0       _get_fmode                 0000000140055ec0 f   LIBCMTD:setmode.obj
 0001:00054f90       _set_fmode                 0000000140055f90 f   LIBCMTD:setmode.obj
 0001:00055070       _setmode                   0000000140056070 f   LIBCMTD:setmode.obj
 0001:000553c0       _setmode_nolock            00000001400563c0 f   LIBCMTD:setmode.obj
 0001:00055700       _tolower                   0000000140056700 f   LIBCMTD:tolower.obj
 0001:00055710       _tolower_l                 0000000140056710 f   LIBCMTD:tolower.obj
 0001:00055a70       tolower                    0000000140056a70 f   LIBCMTD:tolower.obj
 0001:00056160       _strtoi64                  0000000140057160 f   LIBCMTD:strtoq.obj
 0001:000561d0       _strtoi64_l                00000001400571d0 f   LIBCMTD:strtoq.obj
 0001:00056210       _strtoui64                 0000000140057210 f   LIBCMTD:strtoq.obj
 0001:00056280       _strtoui64_l               0000000140057280 f   LIBCMTD:strtoq.obj
 0001:000567f0       _wcstol_l                  00000001400577f0 f   LIBCMTD:wcstol.obj
 0001:00056830       _wcstoul_l                 0000000140057830 f   LIBCMTD:wcstol.obj
 0001:00056870       wcstol                     0000000140057870 f   LIBCMTD:wcstol.obj
 0001:000568a0       wcstoul                    00000001400578a0 f   LIBCMTD:wcstol.obj
 0001:000568e0       _flswbuf                   00000001400578e0 f   LIBCMTD:_flswbuf.obj
 0001:00056ca0       ?_ValidateExecute@@YAHP6A_JXZ@Z 0000000140057ca0 f   LIBCMTD:validate.obj
 0001:00056cd0       ?_ValidateRead@@YAHPEBXI@Z 0000000140057cd0 f   LIBCMTD:validate.obj
 0001:00056d00       ?_ValidateWrite@@YAHPEAXI@Z 0000000140057d00 f   LIBCMTD:validate.obj
 0001:00056d40       _CallSettingFrame          0000000140057d40 f   LIBCMTD:handlers.obj
 0001:00056d80       _GetNextInstrOffset        0000000140057d80 f   LIBCMTD:handlers.obj
 0001:00056d90       ??0__non_rtti_object@std@@QEAA@AEBV01@@Z 0000000140057d90 f   LIBCMTD:stdexcpt.obj
 0001:00056dd0       ??0__non_rtti_object@std@@QEAA@PEBD@Z 0000000140057dd0 f   LIBCMTD:stdexcpt.obj
 0001:00056e10       ??0bad_cast@std@@QEAA@AEBV01@@Z 0000000140057e10 f   LIBCMTD:stdexcpt.obj
 0001:00056e50       ??0bad_cast@std@@QEAA@PEBD@Z 0000000140057e50 f   LIBCMTD:stdexcpt.obj
 0001:00056e90       ??0bad_typeid@std@@QEAA@AEBV01@@Z 0000000140057e90 f   LIBCMTD:stdexcpt.obj
 0001:00056ed0       ??0bad_typeid@std@@QEAA@PEBD@Z 0000000140057ed0 f   LIBCMTD:stdexcpt.obj
 0001:00056f10       ??0exception@std@@QEAA@AEBQEBD@Z 0000000140057f10 f   LIBCMTD:stdexcpt.obj
 0001:00056f60       ??0exception@std@@QEAA@AEBQEBDH@Z 0000000140057f60 f   LIBCMTD:stdexcpt.obj
 0001:00056fa0       ??0exception@std@@QEAA@AEBV01@@Z 0000000140057fa0 f   LIBCMTD:stdexcpt.obj
 0001:00056ff0       ??0exception@std@@QEAA@XZ  0000000140057ff0 f   LIBCMTD:stdexcpt.obj
 0001:00057020       ??1__non_rtti_object@std@@UEAA@XZ 0000000140058020 f   LIBCMTD:stdexcpt.obj
 0001:00057050       ??1bad_cast@std@@UEAA@XZ   0000000140058050 f   LIBCMTD:stdexcpt.obj
 0001:00057080       ??1bad_typeid@std@@UEAA@XZ 0000000140058080 f   LIBCMTD:stdexcpt.obj
 0001:000570b0       ??1exception@std@@UEAA@XZ  00000001400580b0 f   LIBCMTD:stdexcpt.obj
 0001:000570e0       ??4exception@std@@QEAAAEAV01@AEBV01@@Z 00000001400580e0 f   LIBCMTD:stdexcpt.obj
 0001:00057150       ??_G__non_rtti_object@std@@UEAAPEAXI@Z 0000000140058150 f i LIBCMTD:stdexcpt.obj
 0001:00057150       ??_E__non_rtti_object@std@@UEAAPEAXI@Z 0000000140058150 f i LIBCMTD:stdexcpt.obj
 0001:00057190       ??_Gbad_cast@std@@UEAAPEAXI@Z 0000000140058190 f i LIBCMTD:stdexcpt.obj
 0001:00057190       ??_Ebad_cast@std@@UEAAPEAXI@Z 0000000140058190 f i LIBCMTD:stdexcpt.obj
 0001:000571d0       ??_Ebad_typeid@std@@UEAAPEAXI@Z 00000001400581d0 f i LIBCMTD:stdexcpt.obj
 0001:000571d0       ??_Gbad_typeid@std@@UEAAPEAXI@Z 00000001400581d0 f i LIBCMTD:stdexcpt.obj
 0001:00057210       ??_Gexception@std@@UEAAPEAXI@Z 0000000140058210 f i LIBCMTD:stdexcpt.obj
 0001:00057210       ??_Eexception@std@@UEAAPEAXI@Z 0000000140058210 f i LIBCMTD:stdexcpt.obj
 0001:00057250       ?_Copy_str@exception@std@@AEAAXPEBD@Z 0000000140058250 f   LIBCMTD:stdexcpt.obj
 0001:000572c0       ?_Tidy@exception@std@@AEAAXXZ 00000001400582c0 f   LIBCMTD:stdexcpt.obj
 0001:00057300       ?what@exception@std@@UEBAPEBDXZ 0000000140058300 f   LIBCMTD:stdexcpt.obj
 0001:00057340       _CxxThrowException         0000000140058340 f   LIBCMTD:throw.obj
 0001:00057450       _wtoi                      0000000140058450 f   LIBCMTD:wtox.obj
 0001:00057470       _wtoi64                    0000000140058470 f   LIBCMTD:wtox.obj
 0001:00057490       _wtoi64_l                  0000000140058490 f   LIBCMTD:wtox.obj
 0001:000574c0       _wtoi_l                    00000001400584c0 f   LIBCMTD:wtox.obj
 0001:000574f0       _wtol                      00000001400584f0 f   LIBCMTD:wtox.obj
 0001:00057510       _wtol_l                    0000000140058510 f   LIBCMTD:wtox.obj
 0001:00057540       wcschr                     0000000140058540 f   LIBCMTD:wcschr.obj
 0001:000576a0       _wcsicmp                   00000001400586a0 f   LIBCMTD:wcsicmp.obj
 0001:000578f0       _wcsicmp_l                 00000001400588f0 f   LIBCMTD:wcsicmp.obj
 0001:00057c60       _wcsnicmp                  0000000140058c60 f   LIBCMTD:wcsnicmp.obj
 0001:00057f00       _wcsnicmp_l                0000000140058f00 f   LIBCMTD:wcsnicmp.obj
 0001:00058290       _wchartodigit              0000000140059290 f   LIBCMTD:wchtodig.obj
 0001:00058c80       _wcstoi64                  0000000140059c80 f   LIBCMTD:wcstoq.obj
 0001:00058cf0       _wcstoi64_l                0000000140059cf0 f   LIBCMTD:wcstoq.obj
 0001:00058d30       _wcstoui64                 0000000140059d30 f   LIBCMTD:wcstoq.obj
 0001:00058da0       _wcstoui64_l               0000000140059da0 f   LIBCMTD:wcstoq.obj
 0001:00058de0       _towlower_l                0000000140059de0 f   LIBCMTD:towlower.obj
 0001:00058fa0       towlower                   0000000140059fa0 f   LIBCMTD:towlower.obj
 0001:00058fc0       __crtLCMapStringW          0000000140059fc0 f   LIBCMTD:w_map.obj
 0001:00059024       ReadFile                   000000014005a024 f   kernel32:KERNEL32.dll
 0001:0005902a       EncodePointer              000000014005a02a f   kernel32:KERNEL32.dll
 0001:00059030       DecodePointer              000000014005a030 f   kernel32:KERNEL32.dll
 0001:00059036       GetCommandLineA            000000014005a036 f   kernel32:KERNEL32.dll
 0001:0005903c       IsDebuggerPresent          000000014005a03c f   kernel32:KERNEL32.dll
 0001:00059042       IsProcessorFeaturePresent  000000014005a042 f   kernel32:KERNEL32.dll
 0001:00059048       GetModuleFileNameW         000000014005a048 f   kernel32:KERNEL32.dll
 0001:0005904e       GetModuleHandleExW         000000014005a04e f   kernel32:KERNEL32.dll
 0001:00059054       HeapSize                   000000014005a054 f   kernel32:KERNEL32.dll
 0001:0005905a       HeapValidate               000000014005a05a f   kernel32:KERNEL32.dll
 0001:00059060       GetSystemInfo              000000014005a060 f   kernel32:KERNEL32.dll
 0001:00059066       EnterCriticalSection       000000014005a066 f   kernel32:KERNEL32.dll
 0001:0005906c       LeaveCriticalSection       000000014005a06c f   kernel32:KERNEL32.dll
 0001:00059072       InitializeCriticalSectionAndSpinCount 000000014005a072 f   kernel32:KERNEL32.dll
 0001:00059078       RtlUnwindEx                000000014005a078 f   kernel32:KERNEL32.dll
 0001:0005907e       GetLastError               000000014005a07e f   kernel32:KERNEL32.dll
 0001:00059084       MultiByteToWideChar        000000014005a084 f   kernel32:KERNEL32.dll
 0001:0005908a       GetConsoleMode             000000014005a08a f   kernel32:KERNEL32.dll
 0001:00059090       ReadConsoleW               000000014005a090 f   kernel32:KERNEL32.dll
 0001:00059096       SetFilePointer             000000014005a096 f   kernel32:KERNEL32.dll
 0001:0005909c       SetFilePointerEx           000000014005a09c f   kernel32:KERNEL32.dll
 0001:000590a2       GetStdHandle               000000014005a0a2 f   kernel32:KERNEL32.dll
 0001:000590a8       GetFileType                000000014005a0a8 f   kernel32:KERNEL32.dll
 0001:000590ae       DeleteCriticalSection      000000014005a0ae f   kernel32:KERNEL32.dll
 0001:000590b4       InitOnceExecuteOnce        000000014005a0b4 f   kernel32:KERNEL32.dll
 0001:000590ba       GetStartupInfoW            000000014005a0ba f   kernel32:KERNEL32.dll
 0001:000590c0       WriteFile                  000000014005a0c0 f   kernel32:KERNEL32.dll
 0001:000590c6       WideCharToMultiByte        000000014005a0c6 f   kernel32:KERNEL32.dll
 0001:000590cc       GetConsoleCP               000000014005a0cc f   kernel32:KERNEL32.dll
 0001:000590d2       SetLastError               000000014005a0d2 f   kernel32:KERNEL32.dll
 0001:000590d8       GetCurrentThread           000000014005a0d8 f   kernel32:KERNEL32.dll
 0001:000590de       GetCurrentThreadId         000000014005a0de f   kernel32:KERNEL32.dll
 0001:000590e4       GetProcAddress             000000014005a0e4 f   kernel32:KERNEL32.dll
 0001:000590ea       AreFileApisANSI            000000014005a0ea f   kernel32:KERNEL32.dll
 0001:000590f0       GetProcessHeap             000000014005a0f0 f   kernel32:KERNEL32.dll
 0001:000590f6       GetModuleFileNameA         000000014005a0f6 f   kernel32:KERNEL32.dll
 0001:000590fc       QueryPerformanceCounter    000000014005a0fc f   kernel32:KERNEL32.dll
 0001:00059102       GetSystemTimeAsFileTime    000000014005a102 f   kernel32:KERNEL32.dll
 0001:00059108       GetTickCount64             000000014005a108 f   kernel32:KERNEL32.dll
 0001:0005910e       GetEnvironmentStringsW     000000014005a10e f   kernel32:KERNEL32.dll
 0001:00059114       FreeEnvironmentStringsW    000000014005a114 f   kernel32:KERNEL32.dll
 0001:0005911a       RtlCaptureContext          000000014005a11a f   kernel32:KERNEL32.dll
 0001:00059120       RtlLookupFunctionEntry     000000014005a120 f   kernel32:KERNEL32.dll
 0001:00059126       RtlVirtualUnwind           000000014005a126 f   kernel32:KERNEL32.dll
 0001:0005912c       UnhandledExceptionFilter   000000014005a12c f   kernel32:KERNEL32.dll
 0001:00059132       SetUnhandledExceptionFilter 000000014005a132 f   kernel32:KERNEL32.dll
 0001:00059138       FlsAlloc                   000000014005a138 f   kernel32:KERNEL32.dll
 0001:0005913e       FlsGetValue                000000014005a13e f   kernel32:KERNEL32.dll
 0001:00059144       FlsSetValue                000000014005a144 f   kernel32:KERNEL32.dll
 0001:0005914a       FlsFree                    000000014005a14a f   kernel32:KERNEL32.dll
 0001:00059150       GetCurrentProcess          000000014005a150 f   kernel32:KERNEL32.dll
 0001:00059156       TerminateProcess           000000014005a156 f   kernel32:KERNEL32.dll
 0001:0005915c       GetModuleHandleW           000000014005a15c f   kernel32:KERNEL32.dll
 0001:00059162       FatalAppExitA              000000014005a162 f   kernel32:KERNEL32.dll
 0001:00059168       SetConsoleCtrlHandler      000000014005a168 f   kernel32:KERNEL32.dll
 0001:0005916e       OutputDebugStringW         000000014005a16e f   kernel32:KERNEL32.dll
 0001:00059174       WaitForSingleObjectEx      000000014005a174 f   kernel32:KERNEL32.dll
 0001:0005917a       LoadLibraryExW             000000014005a17a f   kernel32:KERNEL32.dll
 0001:00059180       LoadLibraryW               000000014005a180 f   kernel32:KERNEL32.dll
 0001:00059186       OutputDebugStringA         000000014005a186 f   kernel32:KERNEL32.dll
 0001:0005918c       WriteConsoleW              000000014005a18c f   kernel32:KERNEL32.dll
 0001:00059192       IsValidCodePage            000000014005a192 f   kernel32:KERNEL32.dll
 0001:00059198       GetACP                     000000014005a198 f   kernel32:KERNEL32.dll
 0001:0005919e       GetOEMCP                   000000014005a19e f   kernel32:KERNEL32.dll
 0001:000591a4       GetCPInfo                  000000014005a1a4 f   kernel32:KERNEL32.dll
 0001:000591aa       HeapFree                   000000014005a1aa f   kernel32:KERNEL32.dll
 0001:000591b0       HeapReAlloc                000000014005a1b0 f   kernel32:KERNEL32.dll
 0001:000591b6       HeapQueryInformation       000000014005a1b6 f   kernel32:KERNEL32.dll
 0001:000591bc       HeapAlloc                  000000014005a1bc f   kernel32:KERNEL32.dll
 0001:000591c2       SetStdHandle               000000014005a1c2 f   kernel32:KERNEL32.dll
 0001:000591c8       FlushFileBuffers           000000014005a1c8 f   kernel32:KERNEL32.dll
 0001:000591ce       GetTimeFormatEx            000000014005a1ce f   kernel32:KERNEL32.dll
 0001:000591d4       GetDateFormatEx            000000014005a1d4 f   kernel32:KERNEL32.dll
 0001:000591da       CompareStringEx            000000014005a1da f   kernel32:KERNEL32.dll
 0001:000591e0       GetLocaleInfoEx            000000014005a1e0 f   kernel32:KERNEL32.dll
 0001:000591e6       GetUserDefaultLocaleName   000000014005a1e6 f   kernel32:KERNEL32.dll
 0001:000591ec       LCMapStringEx              000000014005a1ec f   kernel32:KERNEL32.dll
 0001:000591f2       IsValidLocaleName          000000014005a1f2 f   kernel32:KERNEL32.dll
 0001:000591f8       EnumSystemLocalesEx        000000014005a1f8 f   kernel32:KERNEL32.dll
 0001:000591fe       GetStringTypeW             000000014005a1fe f   kernel32:KERNEL32.dll
 0001:00059204       CreateFileW                000000014005a204 f   kernel32:KERNEL32.dll
 0001:0005920a       RtlPcToFileHeader          000000014005a20a f   kernel32:KERNEL32.dll
 0001:00059210       RaiseException             000000014005a210 f   kernel32:KERNEL32.dll
 0001:00059216       SetEndOfFile               000000014005a216 f   kernel32:KERNEL32.dll
 0002:00000000       __xc_a                     0000000140075000     LIBCMTD:crt0init.obj
 0002:00000240       __xc_z                     0000000140075240     LIBCMTD:crt0init.obj
 0002:00000350       __xi_a                     0000000140075350     LIBCMTD:crt0init.obj
 0002:00000698       __xi_z                     0000000140075698     LIBCMTD:crt0init.obj
 0002:000007a8       __xp_a                     00000001400757a8     LIBCMTD:crt0init.obj
 0002:00000ae0       __xp_z                     0000000140075ae0     LIBCMTD:crt0init.obj
 0002:00000bf0       __xt_a                     0000000140075bf0     LIBCMTD:crt0init.obj
 0002:00000d00       __xt_z                     0000000140075d00     LIBCMTD:crt0init.obj
 0002:00000e48       ?min_exponent@?$numeric_limits@O@std@@2HB 0000000140075e48     allhead.obj
 0002:00000e4c       ?min_exponent10@?$numeric_limits@O@std@@2HB 0000000140075e4c     allhead.obj
 0002:00000e50       ?has_denorm@_Num_base@std@@2W4float_denorm_style@2@B 0000000140075e50     allhead.obj
 0002:00000e54       ?has_denorm_loss@_Num_base@std@@2_NB 0000000140075e54     allhead.obj
 0002:00000e55       ?has_infinity@_Num_base@std@@2_NB 0000000140075e55     allhead.obj
 0002:00000e56       ?has_quiet_NaN@_Num_base@std@@2_NB 0000000140075e56     allhead.obj
 0002:00000e57       ?has_signaling_NaN@_Num_base@std@@2_NB 0000000140075e57     allhead.obj
 0002:00000e58       ?is_bounded@_Num_base@std@@2_NB 0000000140075e58     allhead.obj
 0002:00000e59       ?is_exact@_Num_base@std@@2_NB 0000000140075e59     allhead.obj
 0002:00000e5a       ?is_iec559@_Num_base@std@@2_NB 0000000140075e5a     allhead.obj
 0002:00000e5b       ?is_integer@_Num_base@std@@2_NB 0000000140075e5b     allhead.obj
 0002:00000e5c       ?is_modulo@_Num_base@std@@2_NB 0000000140075e5c     allhead.obj
 0002:00000e5d       ?is_signed@_Num_base@std@@2_NB 0000000140075e5d     allhead.obj
 0002:00000e5e       ?is_specialized@_Num_base@std@@2_NB 0000000140075e5e     allhead.obj
 0002:00000e5f       ?tinyness_before@_Num_base@std@@2_NB 0000000140075e5f     allhead.obj
 0002:00000e60       ?traps@_Num_base@std@@2_NB 0000000140075e60     allhead.obj
 0002:00000e64       ?round_style@_Num_base@std@@2W4float_round_style@2@B 0000000140075e64     allhead.obj
 0002:00000e68       ?digits@_Num_base@std@@2HB 0000000140075e68     allhead.obj
 0002:00000e6c       ?digits10@_Num_base@std@@2HB 0000000140075e6c     allhead.obj
 0002:00000e70       ?max_digits10@_Num_base@std@@2HB 0000000140075e70     allhead.obj
 0002:00000e74       ?max_exponent@_Num_base@std@@2HB 0000000140075e74     allhead.obj
 0002:00000e78       ?max_exponent10@_Num_base@std@@2HB 0000000140075e78     allhead.obj
 0002:00000e7c       ?min_exponent@_Num_base@std@@2HB 0000000140075e7c     allhead.obj
 0002:00000e80       ?min_exponent10@_Num_base@std@@2HB 0000000140075e80     allhead.obj
 0002:00000e84       ?radix@_Num_base@std@@2HB  0000000140075e84     allhead.obj
 0002:00000e88       ?is_bounded@_Num_int_base@std@@2_NB 0000000140075e88     allhead.obj
 0002:00000e89       ?is_exact@_Num_int_base@std@@2_NB 0000000140075e89     allhead.obj
 0002:00000e8a       ?is_integer@_Num_int_base@std@@2_NB 0000000140075e8a     allhead.obj
 0002:00000e8b       ?is_modulo@_Num_int_base@std@@2_NB 0000000140075e8b     allhead.obj
 0002:00000e8c       ?is_specialized@_Num_int_base@std@@2_NB 0000000140075e8c     allhead.obj
 0002:00000e90       ?radix@_Num_int_base@std@@2HB 0000000140075e90     allhead.obj
 0002:00000e94       ?has_denorm@_Num_float_base@std@@2W4float_denorm_style@2@B 0000000140075e94     allhead.obj
 0002:00000e98       ?has_denorm_loss@_Num_float_base@std@@2_NB 0000000140075e98     allhead.obj
 0002:00000e99       ?has_infinity@_Num_float_base@std@@2_NB 0000000140075e99     allhead.obj
 0002:00000e9a       ?has_quiet_NaN@_Num_float_base@std@@2_NB 0000000140075e9a     allhead.obj
 0002:00000e9b       ?has_signaling_NaN@_Num_float_base@std@@2_NB 0000000140075e9b     allhead.obj
 0002:00000e9c       ?is_bounded@_Num_float_base@std@@2_NB 0000000140075e9c     allhead.obj
 0002:00000e9d       ?is_exact@_Num_float_base@std@@2_NB 0000000140075e9d     allhead.obj
 0002:00000e9e       ?is_iec559@_Num_float_base@std@@2_NB 0000000140075e9e     allhead.obj
 0002:00000e9f       ?is_integer@_Num_float_base@std@@2_NB 0000000140075e9f     allhead.obj
 0002:00000ea0       ?is_modulo@_Num_float_base@std@@2_NB 0000000140075ea0     allhead.obj
 0002:00000ea1       ?is_signed@_Num_float_base@std@@2_NB 0000000140075ea1     allhead.obj
 0002:00000ea2       ?is_specialized@_Num_float_base@std@@2_NB 0000000140075ea2     allhead.obj
 0002:00000ea3       ?tinyness_before@_Num_float_base@std@@2_NB 0000000140075ea3     allhead.obj
 0002:00000ea4       ?traps@_Num_float_base@std@@2_NB 0000000140075ea4     allhead.obj
 0002:00000ea8       ?round_style@_Num_float_base@std@@2W4float_round_style@2@B 0000000140075ea8     allhead.obj
 0002:00000eac       ?radix@_Num_float_base@std@@2HB 0000000140075eac     allhead.obj
 0002:00000eb0       ?is_signed@?$numeric_limits@D@std@@2_NB 0000000140075eb0     allhead.obj
 0002:00000eb4       ?digits@?$numeric_limits@D@std@@2HB 0000000140075eb4     allhead.obj
 0002:00000eb8       ?digits10@?$numeric_limits@D@std@@2HB 0000000140075eb8     allhead.obj
 0002:00000ebc       ?is_signed@?$numeric_limits@_W@std@@2_NB 0000000140075ebc     allhead.obj
 0002:00000ec0       ?digits@?$numeric_limits@_W@std@@2HB 0000000140075ec0     allhead.obj
 0002:00000ec4       ?digits10@?$numeric_limits@_W@std@@2HB 0000000140075ec4     allhead.obj
 0002:00000ec8       ?is_modulo@?$numeric_limits@_N@std@@2_NB 0000000140075ec8     allhead.obj
 0002:00000ec9       ?is_signed@?$numeric_limits@_N@std@@2_NB 0000000140075ec9     allhead.obj
 0002:00000ecc       ?digits@?$numeric_limits@_N@std@@2HB 0000000140075ecc     allhead.obj
 0002:00000ed0       ?digits10@?$numeric_limits@_N@std@@2HB 0000000140075ed0     allhead.obj
 0002:00000ed4       ?is_signed@?$numeric_limits@C@std@@2_NB 0000000140075ed4     allhead.obj
 0002:00000ed8       ?digits@?$numeric_limits@C@std@@2HB 0000000140075ed8     allhead.obj
 0002:00000edc       ?digits10@?$numeric_limits@C@std@@2HB 0000000140075edc     allhead.obj
 0002:00000ee0       ?value@?$_Sizeof@HU_Nil@std@@U12@U12@U12@U12@U12@U12@@std@@2_KB 0000000140075ee0     allhead.obj
 0002:00000ee9       ?is_signed@?$numeric_limits@E@std@@2_NB 0000000140075ee9     allhead.obj
 0002:00000eec       ?digits@?$numeric_limits@E@std@@2HB 0000000140075eec     allhead.obj
 0002:00000ef0       ?digits10@?$numeric_limits@E@std@@2HB 0000000140075ef0     allhead.obj
 0002:00000ef4       ?is_signed@?$numeric_limits@F@std@@2_NB 0000000140075ef4     allhead.obj
 0002:00000ef8       ?digits@?$numeric_limits@F@std@@2HB 0000000140075ef8     allhead.obj
 0002:00000efc       ?digits10@?$numeric_limits@F@std@@2HB 0000000140075efc     allhead.obj
 0002:00000f00       ?is_signed@?$numeric_limits@G@std@@2_NB 0000000140075f00     allhead.obj
 0002:00000f04       ?digits@?$numeric_limits@G@std@@2HB 0000000140075f04     allhead.obj
 0002:00000f08       ?digits10@?$numeric_limits@G@std@@2HB 0000000140075f08     allhead.obj
 0002:00000f0c       ?is_signed@?$numeric_limits@H@std@@2_NB 0000000140075f0c     allhead.obj
 0002:00000f10       ?digits@?$numeric_limits@H@std@@2HB 0000000140075f10     allhead.obj
 0002:00000f14       ?digits10@?$numeric_limits@H@std@@2HB 0000000140075f14     allhead.obj
 0002:00000f18       ?is_signed@?$numeric_limits@I@std@@2_NB 0000000140075f18     allhead.obj
 0002:00000f1c       ?digits@?$numeric_limits@I@std@@2HB 0000000140075f1c     allhead.obj
 0002:00000f20       ?digits10@?$numeric_limits@I@std@@2HB 0000000140075f20     allhead.obj
 0002:00000f24       ?is_signed@?$numeric_limits@J@std@@2_NB 0000000140075f24     allhead.obj
 0002:00000f28       ?digits@?$numeric_limits@J@std@@2HB 0000000140075f28     allhead.obj
 0002:00000f2c       ?digits10@?$numeric_limits@J@std@@2HB 0000000140075f2c     allhead.obj
 0002:00000f30       ?is_signed@?$numeric_limits@K@std@@2_NB 0000000140075f30     allhead.obj
 0002:00000f34       ?digits@?$numeric_limits@K@std@@2HB 0000000140075f34     allhead.obj
 0002:00000f38       ?digits10@?$numeric_limits@K@std@@2HB 0000000140075f38     allhead.obj
 0002:00000f3c       ?is_signed@?$numeric_limits@_J@std@@2_NB 0000000140075f3c     allhead.obj
 0002:00000f40       ?value@?$integral_constant@_K$0A@@std@@2_KB 0000000140075f40     allhead.obj
 0002:00000f4c       ?digits@?$numeric_limits@_J@std@@2HB 0000000140075f4c     allhead.obj
 0002:00000f50       ?digits10@?$numeric_limits@_J@std@@2HB 0000000140075f50     allhead.obj
 0002:00000f58       ?value@?$_Sizeof@U_Nil@std@@U12@U12@U12@U12@U12@U12@U12@@std@@2_KB 0000000140075f58     allhead.obj
 0002:00000f61       ?is_signed@?$numeric_limits@_K@std@@2_NB 0000000140075f61     allhead.obj
 0002:00000f64       ?digits@?$numeric_limits@_K@std@@2HB 0000000140075f64     allhead.obj
 0002:00000f68       ?digits10@?$numeric_limits@_K@std@@2HB 0000000140075f68     allhead.obj
 0002:00000f6c       ?digits@?$numeric_limits@M@std@@2HB 0000000140075f6c     allhead.obj
 0002:00000f70       ?digits10@?$numeric_limits@M@std@@2HB 0000000140075f70     allhead.obj
 0002:00000f74       ?max_digits10@?$numeric_limits@M@std@@2HB 0000000140075f74     allhead.obj
 0002:00000f78       ?max_exponent@?$numeric_limits@M@std@@2HB 0000000140075f78     allhead.obj
 0002:00000f7c       ?max_exponent10@?$numeric_limits@M@std@@2HB 0000000140075f7c     allhead.obj
 0002:00000f80       ?min_exponent@?$numeric_limits@M@std@@2HB 0000000140075f80     allhead.obj
 0002:00000f84       ?min_exponent10@?$numeric_limits@M@std@@2HB 0000000140075f84     allhead.obj
 0002:00000f88       ?digits@?$numeric_limits@N@std@@2HB 0000000140075f88     allhead.obj
 0002:00000f8c       ?digits10@?$numeric_limits@N@std@@2HB 0000000140075f8c     allhead.obj
 0002:00000f90       ?value@?$integral_constant@_N$0A@@std@@2_NB 0000000140075f90     allhead.obj
 0002:00000f94       ?max_digits10@?$numeric_limits@N@std@@2HB 0000000140075f94     allhead.obj
 0002:00000f98       ?max_exponent@?$numeric_limits@N@std@@2HB 0000000140075f98     allhead.obj
 0002:00000f9c       ?max_exponent10@?$numeric_limits@N@std@@2HB 0000000140075f9c     allhead.obj
 0002:00000fa0       ?min_exponent@?$numeric_limits@N@std@@2HB 0000000140075fa0     allhead.obj
 0002:00000fa4       ?value@?$integral_constant@_N$00@std@@2_NB 0000000140075fa4     allhead.obj
 0002:00000fa8       ?min_exponent10@?$numeric_limits@N@std@@2HB 0000000140075fa8     allhead.obj
 0002:00000fac       ?digits@?$numeric_limits@O@std@@2HB 0000000140075fac     allhead.obj
 0002:00000fb0       ?digits10@?$numeric_limits@O@std@@2HB 0000000140075fb0     allhead.obj
 0002:00000fb4       ?max_digits10@?$numeric_limits@O@std@@2HB 0000000140075fb4     allhead.obj
 0002:00000fb8       ?max_exponent@?$numeric_limits@O@std@@2HB 0000000140075fb8     allhead.obj
 0002:00000fbc       ?max_exponent10@?$numeric_limits@O@std@@2HB 0000000140075fbc     allhead.obj
 0002:00000fc0       ??_C@_0GG@CNDLGNIC@FAILED?3?5?$CFs?6ERROR?3?5?$CFs?6FILE?5?8?$CFs?8?0?5@ 0000000140075fc0     CPlatform.obj
 0002:00001040       ??_C@_0BN@EOOGBHPM@?4?4?2?4?4?2platform?2CPlatform?4cpp?$AA@ 0000000140076040     CPlatform.obj
 0002:00001068       ??_C@_0BP@NNPAEPGP@enum?5to?5caps?5inconsistency?5X64?$AA@ 0000000140076068     CPlatform.obj
 0002:00001090       ??_C@_0CP@BOGKDJIH@HasPlatformCap?$CIPLAT_CAP_X64?$CJ?5?$DN?$DN?5@ 0000000140076090     CPlatform.obj
 0002:000010c8       ??_C@_0BP@CLNLELNI@enum?5to?5caps?5inconsistency?5MMX?$AA@ 00000001400760c8     CPlatform.obj
 0002:000010f0       ??_C@_0CP@ENCDOFNK@HasPlatformCap?$CIPLAT_CAP_MMX?$CJ?5?$DN?$DN?5@ 00000001400760f0     CPlatform.obj
 0002:00001128       ??_C@_0BP@HCMJIJBC@enum?5to?5caps?5inconsistency?5SSE?$AA@ 0000000140076128     CPlatform.obj
 0002:00001150       ??_C@_0CP@HJEADKHO@HasPlatformCap?$CIPLAT_CAP_SSE?$CJ?5?$DN?$DN?5@ 0000000140076150     CPlatform.obj
 0002:00001188       ??_C@_0CA@BOLLOMLA@enum?5to?5caps?5inconsistency?5SSE2?$AA@ 0000000140076188     CPlatform.obj
 0002:000011b0       ??_C@_0DB@HBDGNEHM@HasPlatformCap?$CIPLAT_CAP_SSE2?$CJ?5?$DN?$DN@ 00000001400761b0     CPlatform.obj
 0002:000011f0       ??_C@_0CA@HKANNPB@enum?5to?5caps?5inconsistency?5SSE3?$AA@ 00000001400761f0     CPlatform.obj
 0002:00001218       ??_C@_0DB@HPAFIBPN@HasPlatformCap?$CIPLAT_CAP_SSE3?$CJ?5?$DN?$DN@ 0000000140076218     CPlatform.obj
 0002:00001258       ??_C@_0CB@BLNIBLMG@enum?5to?5caps?5inconsistency?5SSSE3@ 0000000140076258     CPlatform.obj
 0002:00001280       ??_C@_0DD@OCKPEOBN@HasPlatformCap?$CIPLAT_CAP_SSSE3?$CJ?5?$DN@ 0000000140076280     CPlatform.obj
 0002:000012c0       ??_C@_0CB@JKPHDGA@enum?5to?5caps?5inconsistency?5SSE41@ 00000001400762c0     CPlatform.obj
 0002:000012e8       ??_C@_0DD@IMGKAEP@HasPlatformCap?$CIPLAT_CAP_SSE41?$CJ?5?$DN@ 00000001400762e8     CPlatform.obj
 0002:00001328       ??_C@_0CB@CCICCAKD@enum?5to?5caps?5inconsistency?5SSE42@ 0000000140076328     CPlatform.obj
 0002:00001350       ??_C@_0DD@FFAOMKLB@HasPlatformCap?$CIPLAT_CAP_SSE42?$CJ?5?$DN@ 0000000140076350     CPlatform.obj
 0002:00001390       ??_C@_0CB@LDBECODE@enum?5to?5caps?5inconsistency?5SSE4a@ 0000000140076390     CPlatform.obj
 0002:000013b8       ??_C@_0DD@LGMFGCGH@HasPlatformCap?$CIPLAT_CAP_SSE4a?$CJ?5?$DN@ 00000001400763b8     CPlatform.obj
 0002:000013f8       ??_C@_0BP@HBHOLIPB@enum?5to?5caps?5inconsistency?5AVX?$AA@ 00000001400763f8     CPlatform.obj
 0002:00001420       ??_C@_0CP@DOKPDFEH@HasPlatformCap?$CIPLAT_CAP_AVX?$CJ?5?$DN?$DN?5@ 0000000140076420     CPlatform.obj
 0002:00001458       ??_C@_0BP@IHEBLCBD@enum?5to?5caps?5inconsistency?5XOP?$AA@ 0000000140076458     CPlatform.obj
 0002:00001480       ??_C@_0CP@HAEGBBOM@HasPlatformCap?$CIPLAT_CAP_XOP?$CJ?5?$DN?$DN?5@ 0000000140076480     CPlatform.obj
 0002:000014b8       ??_C@_0CA@BIGPENHD@enum?5to?5caps?5inconsistency?5FMA3?$AA@ 00000001400764b8     CPlatform.obj
 0002:000014e0       ??_C@_0DB@HLOMFMKE@HasPlatformCap?$CIPLAT_CAP_FMA3?$CJ?5?$DN?$DN@ 00000001400764e0     CPlatform.obj
 0002:00001520       ??_C@_0CA@FHCONLLE@enum?5to?5caps?5inconsistency?5FMA4?$AA@ 0000000140076520     CPlatform.obj
 0002:00001548       ??_C@_0DB@FBHEPECD@HasPlatformCap?$CIPLAT_CAP_FMA4?$CJ?5?$DN?$DN@ 0000000140076548     CPlatform.obj
 0002:00001590       ??_C@_0FB@DCLGMKGJ@?9?9?9?9?9?9?9?9?9?9?9?9?9?9?9?9?9?9?9?9?9?9?9?9?9?9?9?9?9?9?9?9@ 0000000140076590     CPlatform.obj
 0002:000015f8       ??_C@_0BD@EKJEBJCG@Capabilities?5Spew?3?$AA@ 00000001400765f8     CPlatform.obj
 0002:00001610       ??_C@_09MPKHKAGI@Availible?$AA@ 0000000140076610     CPlatform.obj
 0002:00001620       ??_C@_0M@LONPJNID@Unavailible?$AA@ 0000000140076620     CPlatform.obj
 0002:00001630       ??_C@_0O@EGNOOOIG@X64?3?5?5?5?5?5?5?$CFs?6?$AA@ 0000000140076630     CPlatform.obj
 0002:00001640       ??_C@_0O@NEKKFOCJ@MMX?3?5?5?5?5?5?5?$CFs?6?$AA@ 0000000140076640     CPlatform.obj
 0002:00001650       ??_C@_0O@KFNFHBLN@SSE?3?5?5?5?5?5?5?$CFs?6?$AA@ 0000000140076650     CPlatform.obj
 0002:00001660       ??_C@_0O@CPJKIBNJ@SSE2?3?5?5?5?5?5?$CFs?6?$AA@ 0000000140076660     CPlatform.obj
 0002:00001670       ??_C@_0O@OOBEFOBJ@SSE3?3?5?5?5?5?5?$CFs?6?$AA@ 0000000140076670     CPlatform.obj
 0002:00001680       ??_C@_0O@NOFNGNJA@SSSE3?3?5?5?5?5?$CFs?6?$AA@ 0000000140076680     CPlatform.obj
 0002:00001690       ??_C@_0O@GCBHIIC@SSE41?3?5?5?5?5?$CFs?6?$AA@ 0000000140076690     CPlatform.obj
 0002:000016a0       ??_C@_0O@ONBGMDIB@SSE42?3?5?5?5?5?$CFs?6?$AA@ 00000001400766a0     CPlatform.obj
 0002:000016b0       ??_C@_0O@LPDFPOMK@SSE4a?3?5?5?5?5?$CFs?6?$AA@ 00000001400766b0     CPlatform.obj
 0002:000016c0       ??_C@_0O@KNJBNGHN@AVX?3?5?5?5?5?5?5?$CFs?6?$AA@ 00000001400766c0     CPlatform.obj
 0002:000016d0       ??_C@_0O@FAOLMPJN@XOP?3?5?5?5?5?5?5?$CFs?6?$AA@ 00000001400766d0     CPlatform.obj
 0002:000016e0       ??_C@_0O@EBOCJNAN@FMA3?3?5?5?5?5?5?$CFs?6?$AA@ 00000001400766e0     CPlatform.obj
 0002:000016f0       ??_C@_0O@GINJIIIO@FMA4?3?5?5?5?5?5?$CFs?6?$AA@ 00000001400766f0     CPlatform.obj
 0002:00001700       ??_C@_0CJ@MMACOKNL@?4?4?2?4?4?2platform?2windows?2CPlatform@ 0000000140076700     CPlatform_win.obj
 0002:00001738       ??_C@_0CI@NPMLKFBB@Active?5window?5is?5invalid?5in?5GetK@ 0000000140076738     CPlatform_win.obj
 0002:00001768       ??_C@_0BC@CMOBAOBD@GetActiveWindow?$CI?$CJ?$AA@ 0000000140076768     CPlatform_win.obj
 0002:00001780       ??_C@_0CK@FJLLJJJB@Active?5window?5is?5invalid?5in?5GetM@ 0000000140076780     CPlatform_win.obj
 0002:000017b8       ??_C@_0BN@NIBJMAGD@Could?5not?5load?5library?5?$CI?$CFs?$CJ?6?$AA@ 00000001400767b8     CPlatform_win.obj
 0002:000017dc       ??_C@_04HLONOPDM@?4dll?$AA@ 00000001400767dc     CPlatform_win.obj
 0002:000017e8       ??_C@_0BH@PPBGFLKL@Could?5not?5open?5file?5?$CFs?$AA@ 00000001400767e8     CPlatform_win.obj
 0002:00001808       ??_C@_08CBNHFBDL@err?5?$DN?$DN?50?$AA@ 0000000140076808     CPlatform_win.obj
 0002:00001818       ??_C@_0CB@KBBKBBBO@GetFileSize?3?5fgetpos?5has?5failed?$CB@ 0000000140076818     CPlatform_win.obj
 0002:00001840       ??_C@_0CB@FLDACHPG@GetFileSize?3?5fsetpos?5has?5failed?$CB@ 0000000140076840     CPlatform_win.obj
 0002:00001878       ??_7IPlatform@@6B@         0000000140076878     Launcher.obj
 0002:00001958       ??_7CPlatform@@6B@         0000000140076958     Launcher.obj
 0002:00001a28       ??_C@_08CBHCFJJK@platform?$AA@ 0000000140076a28     Launcher.obj
 0002:00001a38       ??_C@_0BA@BEGJCGKD@Created?5Windows?$AA@ 0000000140076a38     Launcher.obj
 0002:00001a50       ??_C@_0N@PBDIGKPB@Launcher?4cpp?$AA@ 0000000140076a50     Launcher.obj
 0002:00001a60       ??_C@_0CA@HGLBFJCB@Unable?5to?5create?5engine?5thread?$CB?$AA@ 0000000140076a60     Launcher.obj
 0002:00001a88       ??_C@_0BF@PGKJDDHA@engineThread?5?$CB?$DN?5NULL?$AA@ 0000000140076a88     Launcher.obj
 0002:00001aa8       ??_C@_0CB@ONGBBFJ@Finished?5Launching?5Engine?5Thread@ 0000000140076aa8     Launcher.obj
 0002:00001ad0       ??_C@_0CK@HAGLHOE@Engine?5exited?5under?5strange?5circ@ 0000000140076ad0     Launcher.obj
 0002:00001b08       ??_C@_0CA@CIPPGOCD@Setting?5Application?5Path?5to?5?$CFs?6?$AA@ 0000000140076b08     Launcher.obj
 0002:00001b30       ??_C@_0L@EMPDFJNI@engine?4dll?$AA@ 0000000140076b30     Launcher.obj
 0002:00001b40       ??_C@_0BL@ICBGBOGO@Unable?5to?5load?5Engine?5DLL?$CB?$AA@ 0000000140076b40     Launcher.obj
 0002:00001b60       ??_C@_09IGCHBHPI@dllHandle?$AA@ 0000000140076b60     Launcher.obj
 0002:00001b6c       ??_C@_06LOBMEHPF@engine?$AA@ 0000000140076b6c     Launcher.obj
 0002:00001b78       ??_C@_0DM@FGDNLOMH@Engine?5DLL?5loaded?0?5but?5unable?5to@ 0000000140076b78     Launcher.obj
 0002:00001bc0       ??_C@_07CFLPOPOO@pEngine?$AA@ 0000000140076bc0     Launcher.obj
 0002:00001bd0       ??_C@_1CC@MGIEJOME@?$AA?$CI?$AAf?$AAo?$AAr?$AAm?$AAa?$AAt?$AA?5?$AA?$CB?$AA?$DN?$AA?5?$AAN?$AAU?$AAL?$AAL?$AA?$CJ?$AA?$AA@ 0000000140076bd0     LIBCMTD:vsnprnc.obj
 0002:00001bf4       ??_C@_15GANGMFKL@?$AA?$CF?$AAs?$AA?$AA@ 0000000140076bf4     LIBCMTD:vsnprnc.obj
 0002:00001c00       ??_C@_1GO@KICJGPPN@?$AAf?$AA?3?$AA?2?$AAd?$AAd?$AA?2?$AAv?$AAc?$AAt?$AAo?$AAo?$AAl?$AAs?$AA?2?$AAc?$AAr?$AAt?$AA_?$AAb?$AAl?$AAd?$AA?2?$AAs?$AAe?$AAl?$AAf?$AA_?$AA6?$AA4?$AA_?$AAa?$AAm@ 0000000140076c00     LIBCMTD:vsnprnc.obj
 0002:00001c70       ??_C@_1CE@PCFPEIFI@?$AA_?$AAv?$AAs?$AAn?$AAp?$AAr?$AAi?$AAn?$AAt?$AAf?$AA_?$AAh?$AAe?$AAl?$AAp?$AAe?$AAr?$AA?$AA@ 0000000140076c70     LIBCMTD:vsnprnc.obj
 0002:00001ca0       ??_C@_1EC@FABAOFFO@?$AA?$CI?$AAc?$AAo?$AAu?$AAn?$AAt?$AA?5?$AA?$DN?$AA?$DN?$AA?5?$AA0?$AA?$CJ?$AA?5?$AA?$HM?$AA?$HM?$AA?5?$AA?$CI?$AAs?$AAt?$AAr?$AAi?$AAn?$AAg?$AA?5?$AA?$CB?$AA?$DN?$AA?5?$AAN?$AAU?$AAL?$AAL?$AA?$CJ@ 0000000140076ca0     LIBCMTD:vsnprnc.obj
 0002:00001ce8       ??_C@_1BO@MLMCMBKN@?$AAf?$AAo?$AAr?$AAm?$AAa?$AAt?$AA?5?$AA?$CB?$AA?$DN?$AA?5?$AAN?$AAU?$AAL?$AAL?$AA?$AA@ 0000000140076ce8     LIBCMTD:vsnprnc.obj
 0002:00001d08       ??_C@_1BM@BLJALHEF@?$AA_?$AAv?$AAs?$AAp?$AAr?$AAi?$AAn?$AAt?$AAf?$AA_?$AAs?$AA_?$AAl?$AA?$AA@ 0000000140076d08     LIBCMTD:vsnprnc.obj
 0002:00001d30       ??_C@_1EE@OKCKIGFK@?$AAs?$AAt?$AAr?$AAi?$AAn?$AAg?$AA?5?$AA?$CB?$AA?$DN?$AA?5?$AAN?$AAU?$AAL?$AAL?$AA?5?$AA?$CG?$AA?$CG?$AA?5?$AAs?$AAi?$AAz?$AAe?$AAI?$AAn?$AAB?$AAy?$AAt?$AAe?$AAs?$AA?5?$AA?$DO?$AA?5@ 0000000140076d30     LIBCMTD:vsnprnc.obj
 0002:00001d78       ??_C@_1DA@HPBFKMEB@?$AA?$CI?$AA?$CC?$AAB?$AAu?$AAf?$AAf?$AAe?$AAr?$AA?5?$AAt?$AAo?$AAo?$AA?5?$AAs?$AAm?$AAa?$AAl?$AAl?$AA?$CC?$AA?0?$AA?5?$AA0?$AA?$CJ?$AA?$AA@ 0000000140076d78     LIBCMTD:vsnprnc.obj
 0002:00001da8       ??_C@_1BO@MMPELNIM@?$AA_?$AAv?$AAs?$AAn?$AAp?$AAr?$AAi?$AAn?$AAt?$AAf?$AA_?$AAs?$AA_?$AAl?$AA?$AA@ 0000000140076da8     LIBCMTD:vsnprnc.obj
 0002:00001dc8       ??_C@_1BI@IGILPKD@?$AA_?$AAv?$AAs?$AAp?$AAr?$AAi?$AAn?$AAt?$AAf?$AA_?$AAl?$AA?$AA@ 0000000140076dc8     LIBCMTD:vsprintf.obj
 0002:00001de0       ??_C@_1CC@OLIJCKA@?$AA?$CI?$AAs?$AAt?$AAr?$AAi?$AAn?$AAg?$AA?5?$AA?$CB?$AA?$DN?$AA?5?$AAN?$AAU?$AAL?$AAL?$AA?$CJ?$AA?$AA@ 0000000140076de0     LIBCMTD:vsprintf.obj
 0002:00001e08       ??_C@_1CE@HMKDJHB@?$AA_?$AAv?$AAs?$AAc?$AAp?$AAr?$AAi?$AAn?$AAt?$AAf?$AA_?$AAh?$AAe?$AAl?$AAp?$AAe?$AAr?$AA?$AA@ 0000000140076e08     LIBCMTD:vsprintf.obj
 0002:00001e30       ??_C@_1CC@FADMNIL@?$AA?$CI?$AAs?$AAt?$AAr?$AAe?$AAa?$AAm?$AA?5?$AA?$CB?$AA?$DN?$AA?5?$AAN?$AAU?$AAL?$AAL?$AA?$CJ?$AA?$AA@ 0000000140076e30     LIBCMTD:fgetpos.obj
 0002:00001e60       ??_C@_1GM@KFEJPECI@?$AAf?$AA?3?$AA?2?$AAd?$AAd?$AA?2?$AAv?$AAc?$AAt?$AAo?$AAo?$AAl?$AAs?$AA?2?$AAc?$AAr?$AAt?$AA_?$AAb?$AAl?$AAd?$AA?2?$AAs?$AAe?$AAl?$AAf?$AA_?$AA6?$AA4?$AA_?$AAa?$AAm@ 0000000140076e60     LIBCMTD:fgetpos.obj
 0002:00001ed0       ??_C@_1BA@PDKPGILH@?$AAf?$AAg?$AAe?$AAt?$AAp?$AAo?$AAs?$AA?$AA@ 0000000140076ed0     LIBCMTD:fgetpos.obj
 0002:00001ee0       ??_C@_1BM@IMKAODOM@?$AA?$CI?$AAp?$AAo?$AAs?$AA?5?$AA?$CB?$AA?$DN?$AA?5?$AAN?$AAU?$AAL?$AAL?$AA?$CJ?$AA?$AA@ 0000000140076ee0     LIBCMTD:fgetpos.obj
 0002:00001f00       ??_C@_1BO@CLGIAEOJ@?$AA?$CI?$AAf?$AAi?$AAl?$AAe?$AA?5?$AA?$CB?$AA?$DN?$AA?5?$AAN?$AAU?$AAL?$AAL?$AA?$CJ?$AA?$AA@ 0000000140076f00     LIBCMTD:fopen.obj
 0002:00001f20       ??_C@_1GI@LIMKHKB@?$AAf?$AA?3?$AA?2?$AAd?$AAd?$AA?2?$AAv?$AAc?$AAt?$AAo?$AAo?$AAl?$AAs?$AA?2?$AAc?$AAr?$AAt?$AA_?$AAb?$AAl?$AAd?$AA?2?$AAs?$AAe?$AAl?$AAf?$AA_?$AA6?$AA4?$AA_?$AAa?$AAm@ 0000000140076f20     LIBCMTD:fopen.obj
 0002:00001f88       ??_C@_1BA@HNEAFMNL@?$AA_?$AAf?$AAs?$AAo?$AAp?$AAe?$AAn?$AA?$AA@ 0000000140076f88     LIBCMTD:fopen.obj
 0002:00001f98       ??_C@_1BO@MJMKAKCJ@?$AA?$CI?$AAm?$AAo?$AAd?$AAe?$AA?5?$AA?$CB?$AA?$DN?$AA?5?$AAN?$AAU?$AAL?$AAL?$AA?$CJ?$AA?$AA@ 0000000140076f98     LIBCMTD:fopen.obj
 0002:00001fb8       ??_C@_1CI@HBNALCBB@?$AA?$CI?$AA?$CK?$AAm?$AAo?$AAd?$AAe?$AA?5?$AA?$CB?$AA?$DN?$AA?5?$AA_?$AAT?$AA?$CI?$AA?8?$AA?2?$AA0?$AA?8?$AA?$CJ?$AA?$CJ?$AA?$AA@ 0000000140076fb8     LIBCMTD:fopen.obj
 0002:00001fe0       ??_C@_1CA@LLJLFCDN@?$AA?$CI?$AAp?$AAf?$AAi?$AAl?$AAe?$AA?5?$AA?$CB?$AA?$DN?$AA?5?$AAN?$AAU?$AAL?$AAL?$AA?$CJ?$AA?$AA@ 0000000140076fe0     LIBCMTD:fopen.obj
 0002:00002000       ??_C@_1BA@PBGKCCAP@?$AAf?$AAo?$AAp?$AAe?$AAn?$AA_?$AAs?$AA?$AA@ 0000000140077000     LIBCMTD:fopen.obj
 0002:00002010       ??_C@_1GI@NGFEMNMI@?$AAf?$AA?3?$AA?2?$AAd?$AAd?$AA?2?$AAv?$AAc?$AAt?$AAo?$AAo?$AAl?$AAs?$AA?2?$AAc?$AAr?$AAt?$AA_?$AAb?$AAl?$AAd?$AA?2?$AAs?$AAe?$AAl?$AAf?$AA_?$AA6?$AA4?$AA_?$AAa?$AAm@ 0000000140077010     LIBCMTD:fread.obj
 0002:00002078       ??_C@_1BA@CMLCEIGG@?$AAf?$AAr?$AAe?$AAa?$AAd?$AA_?$AAs?$AA?$AA@ 0000000140077078     LIBCMTD:fread.obj
 0002:00002088       ??_C@_1CC@CGFEEBMC@?$AA?$CI?$AAb?$AAu?$AAf?$AAf?$AAe?$AAr?$AA?5?$AA?$CB?$AA?$DN?$AA?5?$AAN?$AAU?$AAL?$AAL?$AA?$CJ?$AA?$AA@ 0000000140077088     LIBCMTD:fread.obj
 0002:000020b0       ??_C@_1CA@IDPOGFL@?$AA_?$AAf?$AAr?$AAe?$AAa?$AAd?$AA_?$AAn?$AAo?$AAl?$AAo?$AAc?$AAk?$AA_?$AAs?$AA?$AA@ 00000001400770b0     LIBCMTD:fread.obj
 0002:000020d0       ??_C@_1EA@FAMECDND@?$AAn?$AAu?$AAm?$AA?5?$AA?$DM?$AA?$DN?$AA?5?$AA?$CI?$AAS?$AAI?$AAZ?$AAE?$AA_?$AAM?$AAA?$AAX?$AA?5?$AA?1?$AA?5?$AAe?$AAl?$AAe?$AAm?$AAe?$AAn?$AAt?$AAS?$AAi?$AAz?$AAe?$AA?$CJ?$AA?$AA@ 00000001400770d0     LIBCMTD:fread.obj
 0002:00002110       ??_C@_1LG@DCNDJCHK@?$AA?$CI?$AA?$CC?$AAI?$AAn?$AAc?$AAo?$AAn?$AAs?$AAi?$AAs?$AAt?$AAe?$AAn?$AAt?$AA?5?$AAS?$AAt?$AAr?$AAe?$AAa?$AAm?$AA?5?$AAC?$AAo?$AAu?$AAn?$AAt?$AA?4?$AA?5?$AAF?$AAl?$AAu@ 0000000140077110     LIBCMTD:fread.obj
 0002:000021c8       ??_C@_1DA@DKEFLDMG@?$AA?$CI?$AA?$CC?$AAb?$AAu?$AAf?$AAf?$AAe?$AAr?$AA?5?$AAt?$AAo?$AAo?$AA?5?$AAs?$AAm?$AAa?$AAl?$AAl?$AA?$CC?$AA?0?$AA?5?$AA0?$AA?$CJ?$AA?$AA@ 00000001400771c8     LIBCMTD:fread.obj
 0002:00002200       ??_C@_1GM@IAECHPDG@?$AAf?$AA?3?$AA?2?$AAd?$AAd?$AA?2?$AAv?$AAc?$AAt?$AAo?$AAo?$AAl?$AAs?$AA?2?$AAc?$AAr?$AAt?$AA_?$AAb?$AAl?$AAd?$AA?2?$AAs?$AAe?$AAl?$AAf?$AA_?$AA6?$AA4?$AA_?$AAa?$AAm@ 0000000140077200     LIBCMTD:fsetpos.obj
 0002:00002270       ??_C@_1BA@IMLBNLMA@?$AAf?$AAs?$AAe?$AAt?$AAp?$AAo?$AAs?$AA?$AA@ 0000000140077270     LIBCMTD:fsetpos.obj
 0002:00002280       ??_C@_1GI@JLJAJOGI@?$AAf?$AA?3?$AA?2?$AAd?$AAd?$AA?2?$AAv?$AAc?$AAt?$AAo?$AAo?$AAl?$AAs?$AA?2?$AAc?$AAr?$AAt?$AA_?$AAb?$AAl?$AAd?$AA?2?$AAs?$AAe?$AAl?$AAf?$AA_?$AA6?$AA4?$AA_?$AAa?$AAm@ 0000000140077280     LIBCMTD:fseek.obj
 0002:000022e8       ??_C@_1M@HCCOIONH@?$AAf?$AAs?$AAe?$AAe?$AAk?$AA?$AA@ 00000001400772e8     LIBCMTD:fseek.obj
 0002:00002300       ??_C@_1IO@PMHBOLJK@?$AA?$CI?$AA?$CI?$AAw?$AAh?$AAe?$AAn?$AAc?$AAe?$AA?5?$AA?$DN?$AA?$DN?$AA?5?$AAS?$AAE?$AAE?$AAK?$AA_?$AAS?$AAE?$AAT?$AA?$CJ?$AA?5?$AA?$HM?$AA?$HM?$AA?5?$AA?$CI?$AAw?$AAh?$AAe?$AAn?$AAc?$AAe@ 0000000140077300     LIBCMTD:fseek.obj
 0002:00002390       ??_C@_1GI@IINBGHL@?$AAf?$AA?3?$AA?2?$AAd?$AAd?$AA?2?$AAv?$AAc?$AAt?$AAo?$AAo?$AAl?$AAs?$AA?2?$AAc?$AAr?$AAt?$AA_?$AAb?$AAl?$AAd?$AA?2?$AAs?$AAe?$AAl?$AAf?$AA_?$AA6?$AA4?$AA_?$AAa?$AAm@ 0000000140077390     LIBCMTD:ftell.obj
 0002:000023f8       ??_C@_1M@CKCKPMNP@?$AAf?$AAt?$AAe?$AAl?$AAl?$AA?$AA@ 00000001400773f8     LIBCMTD:ftell.obj
 0002:00002408       ??_C@_1BM@JMKHIAHP@?$AA?$CI?$AAs?$AAt?$AAr?$AA?5?$AA?$CB?$AA?$DN?$AA?5?$AAN?$AAU?$AAL?$AAL?$AA?$CJ?$AA?$AA@ 0000000140077408     LIBCMTD:ftell.obj
 0002:00002428       ??_C@_1BM@EPIDANEK@?$AA_?$AAf?$AAt?$AAe?$AAl?$AAl?$AA_?$AAn?$AAo?$AAl?$AAo?$AAc?$AAk?$AA?$AA@ 0000000140077428     LIBCMTD:ftell.obj
 0002:00002450       ??_C@_1GK@FANABGFH@?$AAf?$AA?3?$AA?2?$AAd?$AAd?$AA?2?$AAv?$AAc?$AAt?$AAo?$AAo?$AAl?$AAs?$AA?2?$AAc?$AAr?$AAt?$AA_?$AAb?$AAl?$AAd?$AA?2?$AAs?$AAe?$AAl?$AAf?$AA_?$AA6?$AA4?$AA_?$AAa?$AAm@ 0000000140077450     LIBCMTD:fwrite.obj
 0002:000024c0       ??_C@_1O@KLNKIMAP@?$AAf?$AAw?$AAr?$AAi?$AAt?$AAe?$AA?$AA@ 00000001400774c0     LIBCMTD:fwrite.obj
 0002:000024d0       ??_C@_1BO@JGPKCBCE@?$AA_?$AAf?$AAw?$AAr?$AAi?$AAt?$AAe?$AA_?$AAn?$AAo?$AAl?$AAo?$AAc?$AAk?$AA?$AA@ 00000001400774d0     LIBCMTD:fwrite.obj
 0002:000024f0       ??_C@_1DC@FHEPNAPF@?$AAn?$AAu?$AAm?$AA?5?$AA?$DM?$AA?$DN?$AA?5?$AA?$CI?$AAS?$AAI?$AAZ?$AAE?$AA_?$AAM?$AAA?$AAX?$AA?5?$AA?1?$AA?5?$AAs?$AAi?$AAz?$AAe?$AA?$CJ?$AA?$AA@ 00000001400774f0     LIBCMTD:fwrite.obj
 0002:00002530       ??_7type_info@@6B@         0000000140077530     LIBCMTD:typinfo.obj
 0002:00002538       ?ProcessDetach@NativeDll@<CrtImplementationDetails>@@0IB 0000000140077538     LIBCMTD:invarg.obj
 0002:0000253c       ?ProcessAttach@NativeDll@<CrtImplementationDetails>@@0IB 000000014007753c     LIBCMTD:invarg.obj
 0002:00002540       ?ThreadAttach@NativeDll@<CrtImplementationDetails>@@0IB 0000000140077540     LIBCMTD:invarg.obj
 0002:00002544       ?ThreadDetach@NativeDll@<CrtImplementationDetails>@@0IB 0000000140077544     LIBCMTD:invarg.obj
 0002:00002548       ?ProcessVerifier@NativeDll@<CrtImplementationDetails>@@0IB 0000000140077548     LIBCMTD:invarg.obj
 0002:00002550       ??_C@_1BI@MFCLPIBM@?$AAs?$AAt?$AAr?$AA?5?$AA?$CB?$AA?$DN?$AA?5?$AAN?$AAU?$AAL?$AAL?$AA?$AA@ 0000000140077550     LIBCMTD:_flsbuf.obj
 0002:00002570       ??_C@_1GM@BENPKNAA@?$AAf?$AA?3?$AA?2?$AAd?$AAd?$AA?2?$AAv?$AAc?$AAt?$AAo?$AAo?$AAl?$AAs?$AA?2?$AAc?$AAr?$AAt?$AA_?$AAb?$AAl?$AAd?$AA?2?$AAs?$AAe?$AAl?$AAf?$AA_?$AA6?$AA4?$AA_?$AAa?$AAm@ 0000000140077570     LIBCMTD:_flsbuf.obj
 0002:000025e0       ??_C@_1HO@MLMGPAFH@?$AA?$CI?$AA?$CC?$AAi?$AAn?$AAc?$AAo?$AAn?$AAs?$AAi?$AAs?$AAt?$AAe?$AAn?$AAt?$AA?5?$AAI?$AAO?$AAB?$AA?5?$AAf?$AAi?$AAe?$AAl?$AAd?$AAs?$AA?$CC?$AA?0?$AA?5?$AAs?$AAt?$AAr?$AAe@ 00000001400775e0     LIBCMTD:_flsbuf.obj
 0002:00002678       ??_C@_1BA@GLMCNLEM@?$AAW?$AAa?$AAr?$AAn?$AAi?$AAn?$AAg?$AA?$AA@ 0000000140077678     LIBCMTD:dbgrptw.obj
 0002:00002688       ??_C@_1M@ILHOPKA@?$AAE?$AAr?$AAr?$AAo?$AAr?$AA?$AA@ 0000000140077688     LIBCMTD:dbgrptw.obj
 0002:00002698       ??_C@_1CC@CGHMNGDG@?$AAA?$AAs?$AAs?$AAe?$AAr?$AAt?$AAi?$AAo?$AAn?$AA?5?$AAF?$AAa?$AAi?$AAl?$AAe?$AAd?$AA?$AA@ 0000000140077698     LIBCMTD:dbgrptw.obj
 0002:000026c0       ??_C@_17LGKOMLJ@?$AA?4?$AA?4?$AA?4?$AA?$AA@ 00000001400776c0     LIBCMTD:dbgrptw.obj
 0002:000026d0       ??_C@_1HI@OFEHGPPC@?$AAm?$AAo?$AAd?$AAe?$AA?5?$AA?$DN?$AA?$DN?$AA?5?$AA_?$AAC?$AAR?$AAT?$AA_?$AAR?$AAP?$AAT?$AAH?$AAO?$AAO?$AAK?$AA_?$AAI?$AAN?$AAS?$AAT?$AAA?$AAL?$AAL?$AA?5?$AA?$HM?$AA?$HM?$AA?5@ 00000001400776d0     LIBCMTD:dbgrptw.obj
 0002:00002750       ??_C@_1GK@OPBLBEGA@?$AAf?$AA?3?$AA?2?$AAd?$AAd?$AA?2?$AAv?$AAc?$AAt?$AAo?$AAo?$AAl?$AAs?$AA?2?$AAc?$AAr?$AAt?$AA_?$AAb?$AAl?$AAd?$AA?2?$AAs?$AAe?$AAl?$AAf?$AA_?$AA6?$AA4?$AA_?$AAa?$AAm@ 0000000140077750     LIBCMTD:dbgrptw.obj
 0002:000027c0       ??_C@_1CI@IIHEAKEI@?$AA_?$AAC?$AAr?$AAt?$AAS?$AAe?$AAt?$AAR?$AAe?$AAp?$AAo?$AAr?$AAt?$AAH?$AAo?$AAo?$AAk?$AAW?$AA2?$AA?$AA@ 00000001400777c0     LIBCMTD:dbgrptw.obj
 0002:000027e8       ??_C@_1CG@JBJEFOCM@?$AAp?$AAf?$AAn?$AAN?$AAe?$AAw?$AAH?$AAo?$AAo?$AAk?$AA?5?$AA?$CB?$AA?$DN?$AA?5?$AAN?$AAU?$AAL?$AAL?$AA?$AA@ 00000001400777e8     LIBCMTD:dbgrptw.obj
 0002:00002810       ??_C@_1FI@PHIAFFHM@?$AA?$CI?$AA?$CC?$AAT?$AAh?$AAe?$AA?5?$AAh?$AAo?$AAo?$AAk?$AA?5?$AAf?$AAu?$AAn?$AAc?$AAt?$AAi?$AAo?$AAn?$AA?5?$AAi?$AAs?$AA?5?$AAn?$AAo?$AAt?$AA?5?$AAi?$AAn?$AA?5?$AAt?$AAh@ 0000000140077810     LIBCMTD:dbgrptw.obj
 0002:00002868       ??_C@_0DF@OKIEDDMM@f?3?2dd?2vctools?2crt_bld?2self_64_am@ 0000000140077868     LIBCMTD:dbgrptw.obj
 0002:000028a0       ??_C@_1CI@PGJIFDEK@?$AA_?$AA_?$AAc?$AAr?$AAt?$AAM?$AAe?$AAs?$AAs?$AAa?$AAg?$AAe?$AAW?$AAi?$AAn?$AAd?$AAo?$AAw?$AAW?$AA?$AA@ 00000001400778a0     LIBCMTD:dbgrptw.obj
 0002:000028d0       ??_C@_1GI@DEDNNLCI@?$AAw?$AAc?$AAs?$AAc?$AAp?$AAy?$AA_?$AAs?$AA?$CI?$AAs?$AAz?$AAE?$AAx?$AAe?$AAN?$AAa?$AAm?$AAe?$AA?0?$AA?5?$AA2?$AA6?$AA0?$AA?0?$AA?5?$AAL?$AA?$CC?$AA?$DM?$AAp?$AAr?$AAo?$AAg@ 00000001400778d0     LIBCMTD:dbgrptw.obj
 0002:00002938       ??_C@_1CO@EAEJAADC@?$AA?$DM?$AAp?$AAr?$AAo?$AAg?$AAr?$AAa?$AAm?$AA?5?$AAn?$AAa?$AAm?$AAe?$AA?5?$AAu?$AAn?$AAk?$AAn?$AAo?$AAw?$AAn?$AA?$DO?$AA?$AA@ 0000000140077938     LIBCMTD:dbgrptw.obj
 0002:00002970       ??_C@_1NO@LECLLHOL@?$AAm?$AAe?$AAm?$AAc?$AAp?$AAy?$AA_?$AAs?$AA?$CI?$AAs?$AAz?$AAS?$AAh?$AAo?$AAr?$AAt?$AAP?$AAr?$AAo?$AAg?$AAN?$AAa?$AAm?$AAe?$AA?0?$AA?5?$AAs?$AAi?$AAz?$AAe?$AAo?$AAf@ 0000000140077970     LIBCMTD:dbgrptw.obj
 0002:00002a50       ??_C@_1OG@PMPPFHAF@?$AA?6?$AA?6?$AAF?$AAo?$AAr?$AA?5?$AAi?$AAn?$AAf?$AAo?$AAr?$AAm?$AAa?$AAt?$AAi?$AAo?$AAn?$AA?5?$AAo?$AAn?$AA?5?$AAh?$AAo?$AAw?$AA?5?$AAy?$AAo?$AAu?$AAr?$AA?5?$AAp?$AAr@ 0000000140077a50     LIBCMTD:dbgrptw.obj
 0002:00002b38       ??_C@_11LOCGONAA@?$AA?$AA@ 0000000140077b38     LIBCMTD:dbgrptw.obj
 0002:00002b40       ??_C@_1BK@PEDCIPMA@?$AAE?$AAx?$AAp?$AAr?$AAe?$AAs?$AAs?$AAi?$AAo?$AAn?$AA?3?$AA?5?$AA?$AA@ 0000000140077b40     LIBCMTD:dbgrptw.obj
 0002:00002b5c       ??_C@_15IABLJNFO@?$AA?6?$AA?6?$AA?$AA@ 0000000140077b5c     LIBCMTD:dbgrptw.obj
 0002:00002b68       ??_C@_1BA@GLLGCPCK@?$AA?6?$AAL?$AAi?$AAn?$AAe?$AA?3?$AA?5?$AA?$AA@ 0000000140077b68     LIBCMTD:dbgrptw.obj
 0002:00002b78       ??_C@_1BA@LNHECFIM@?$AA?6?$AAF?$AAi?$AAl?$AAe?$AA?3?$AA?5?$AA?$AA@ 0000000140077b78     LIBCMTD:dbgrptw.obj
 0002:00002b88       ??_C@_1BE@CGCJKGHI@?$AA?6?$AAM?$AAo?$AAd?$AAu?$AAl?$AAe?$AA?3?$AA?5?$AA?$AA@ 0000000140077b88     LIBCMTD:dbgrptw.obj
 0002:00002ba0       ??_C@_1KM@HNMIBKJH@?$AAD?$AAe?$AAb?$AAu?$AAg?$AA?5?$AA?$CF?$AAs?$AA?$CB?$AA?6?$AA?6?$AAP?$AAr?$AAo?$AAg?$AAr?$AAa?$AAm?$AA?3?$AA?5?$AA?$CF?$AAs?$AA?$CF?$AAs?$AA?$CF?$AAs?$AA?$CF?$AAs?$AA?$CF?$AAs?$AA?$CF?$AAs@ 0000000140077ba0     LIBCMTD:dbgrptw.obj
 0002:00002c50       ??_C@_1BI@KALLJECN@?$AA?$CI?$AA?$CK?$AA_?$AAe?$AAr?$AAr?$AAn?$AAo?$AA?$CI?$AA?$CJ?$AA?$CJ?$AA?$AA@ 0000000140077c50     LIBCMTD:dbgrptw.obj
 0002:00002c70       ??_C@_1JI@EACPGHID@?$AAw?$AAc?$AAs?$AAc?$AAp?$AAy?$AA_?$AAs?$AA?$CI?$AAs?$AAz?$AAO?$AAu?$AAt?$AAM?$AAe?$AAs?$AAs?$AAa?$AAg?$AAe?$AA?0?$AA?5?$AA4?$AA0?$AA9?$AA6?$AA?0?$AA?5?$AAL?$AA?$CC?$AA_@ 0000000140077c70     LIBCMTD:dbgrptw.obj
 0002:00002d10       ??_C@_1FG@BBOLDHGF@?$AA_?$AAC?$AAr?$AAt?$AAD?$AAb?$AAg?$AAR?$AAe?$AAp?$AAo?$AAr?$AAt?$AA?3?$AA?5?$AAS?$AAt?$AAr?$AAi?$AAn?$AAg?$AA?5?$AAt?$AAo?$AAo?$AA?5?$AAl?$AAo?$AAn?$AAg?$AA?5?$AAo@ 0000000140077d10     LIBCMTD:dbgrptw.obj
 0002:00002d70       ??_C@_1EK@MBDPDCGA@?$AAM?$AAi?$AAc?$AAr?$AAo?$AAs?$AAo?$AAf?$AAt?$AA?5?$AAV?$AAi?$AAs?$AAu?$AAa?$AAl?$AA?5?$AAC?$AA?$CL?$AA?$CL?$AA?5?$AAR?$AAu?$AAn?$AAt?$AAi?$AAm?$AAe?$AA?5?$AAL?$AAi?$AAb@ 0000000140077d70     LIBCMTD:dbgrptw.obj
 0002:00002dbc       ??_C@_06OJHGLDPL@?$CInull?$CJ?$AA@ 0000000140077dbc     LIBCMTD:output.obj
 0002:00002dc8       ??_C@_1O@CEDCILHN@?$AA?$CI?$AAn?$AAu?$AAl?$AAl?$AA?$CJ?$AA?$AA@ 0000000140077dc8     LIBCMTD:output.obj
 0002:00002de0       __lookuptable              0000000140077de0     LIBCMTD:output.obj
 0002:00002e40       ??_C@_1GK@BJNDONIJ@?$AAf?$AA?3?$AA?2?$AAd?$AAd?$AA?2?$AAv?$AAc?$AAt?$AAo?$AAo?$AAl?$AAs?$AA?2?$AAc?$AAr?$AAt?$AA_?$AAb?$AAl?$AAd?$AA?2?$AAs?$AAe?$AAl?$AAf?$AA_?$AA6?$AA4?$AA_?$AAa?$AAm@ 0000000140077e40     LIBCMTD:output.obj
 0002:00002eb0       ??_C@_1BE@IONLIDNC@?$AA_?$AAo?$AAu?$AAt?$AAp?$AAu?$AAt?$AA_?$AAl?$AA?$AA@ 0000000140077eb0     LIBCMTD:output.obj
 0002:00002ed0       ??_C@_1BAA@ODEGEDCK@?$AA?$CI?$AA?5?$AA?$CI?$AA_?$AAS?$AAt?$AAr?$AAe?$AAa?$AAm?$AA?9?$AA?$DO?$AA_?$AAf?$AAl?$AAa?$AAg?$AA?5?$AA?$CG?$AA?5?$AA_?$AAI?$AAO?$AAS?$AAT?$AAR?$AAG?$AA?$CJ?$AA?5?$AA?$HM?$AA?$HM?$AA?5@ 0000000140077ed0     LIBCMTD:output.obj
 0002:00002fd0       ??_C@_1CC@IFFHEMNF@?$AA?$CI?$AAc?$AAh?$AA?5?$AA?$CB?$AA?$DN?$AA?5?$AA_?$AAT?$AA?$CI?$AA?8?$AA?2?$AA0?$AA?8?$AA?$CJ?$AA?$CJ?$AA?$AA@ 0000000140077fd0     LIBCMTD:output.obj
 0002:00003000       ??_C@_1EK@PNGFDECN@?$AA?$CI?$AA?$CC?$AA?8?$AAn?$AA?8?$AA?5?$AAf?$AAo?$AAr?$AAm?$AAa?$AAt?$AA?5?$AAs?$AAp?$AAe?$AAc?$AAi?$AAf?$AAi?$AAe?$AAr?$AA?5?$AAd?$AAi?$AAs?$AAa?$AAb?$AAl?$AAe?$AAd?$AA?$CC@ 0000000140078000     LIBCMTD:output.obj
 0002:00003050       ??_C@_0DF@MNLBDNAL@f?3?2dd?2vctools?2crt_bld?2self_64_am@ 0000000140078050     LIBCMTD:output.obj
 0002:00003090       __lookuptable_s            0000000140078090     LIBCMTD:outputs.obj
 0002:000030f0       ??_C@_1BI@COFBLHCG@?$AA_?$AAo?$AAu?$AAt?$AAp?$AAu?$AAt?$AA_?$AAs?$AA_?$AAl?$AA?$AA@ 00000001400780f0     LIBCMTD:outputs.obj
 0002:00003110       ??_C@_1EE@DMAIGNBG@?$AA?$CI?$AA?$CC?$AAI?$AAn?$AAc?$AAo?$AAr?$AAr?$AAe?$AAc?$AAt?$AA?5?$AAf?$AAo?$AAr?$AAm?$AAa?$AAt?$AA?5?$AAs?$AAp?$AAe?$AAc?$AAi?$AAf?$AAi?$AAe?$AAr?$AA?$CC?$AA?0?$AA?5?$AA0@ 0000000140078110     LIBCMTD:outputs.obj
 0002:00003160       ??_C@_1FK@LNCFKALM@?$AA?$CI?$AA?$CI?$AAs?$AAt?$AAa?$AAt?$AAe?$AA?5?$AA?$DN?$AA?$DN?$AA?5?$AAS?$AAT?$AA_?$AAN?$AAO?$AAR?$AAM?$AAA?$AAL?$AA?$CJ?$AA?5?$AA?$HM?$AA?$HM?$AA?5?$AA?$CI?$AAs?$AAt?$AAa?$AAt?$AAe?$AA?5@ 0000000140078160     LIBCMTD:outputs.obj
 0002:000031c0       ??_C@_1BI@KANOLAMF@?$AA_?$AAo?$AAu?$AAt?$AAp?$AAu?$AAt?$AA_?$AAp?$AA_?$AAl?$AA?$AA@ 00000001400781c0     LIBCMTD:outputp.obj
 0002:000031e0       ??_C@_1JC@PFJNKEIO@?$AA?$CI?$AA?$CI?$AAt?$AAy?$AAp?$AAe?$AA_?$AAp?$AAo?$AAs?$AA?5?$AA?$DO?$AA?$DN?$AA?5?$AA0?$AA?$CJ?$AA?5?$AA?$CG?$AA?$CG?$AA?5?$AA?$CI?$AA?$CK?$AAe?$AAn?$AAd?$AA_?$AAp?$AAo?$AAs?$AA?5?$AA?$DN?$AA?$DN@ 00000001400781e0     LIBCMTD:outputp.obj
 0002:00003280       ??_C@_1JE@NMBHOLFI@?$AA?$CI?$AA?$CI?$AAw?$AAi?$AAd?$AAt?$AAh?$AA_?$AAp?$AAo?$AAs?$AA?5?$AA?$DO?$AA?$DN?$AA?5?$AA0?$AA?$CJ?$AA?5?$AA?$CG?$AA?$CG?$AA?5?$AA?$CI?$AA?$CK?$AAe?$AAn?$AAd?$AA_?$AAp?$AAo?$AAs?$AA?5?$AA?$DN@ 0000000140078280     LIBCMTD:outputp.obj
 0002:00003320       ??_C@_1II@PIPIMLPF@?$AA_?$AAt?$AAv?$AAa?$AAl?$AAi?$AAd?$AAa?$AAt?$AAe?$AA_?$AAp?$AAa?$AAr?$AAa?$AAm?$AA_?$AAr?$AAe?$AAu?$AAs?$AAe?$AA?$CI?$AA?$CG?$AAp?$AAo?$AAs?$AA_?$AAv?$AAa?$AAl?$AAu@ 0000000140078320     LIBCMTD:outputp.obj
 0002:000033b0       ??_C@_1JG@JBJBOCFB@?$AA?$CI?$AA?$CI?$AAp?$AAr?$AAe?$AAc?$AAi?$AAs?$AA_?$AAp?$AAo?$AAs?$AA?5?$AA?$DO?$AA?$DN?$AA?5?$AA0?$AA?$CJ?$AA?5?$AA?$CG?$AA?$CG?$AA?5?$AA?$CI?$AA?$CK?$AAe?$AAn?$AAd?$AA_?$AAp?$AAo?$AAs?$AA?5@ 00000001400783b0     LIBCMTD:outputp.obj
 0002:00003450       ??_C@_1IK@EIEPDKHJ@?$AA_?$AAt?$AAv?$AAa?$AAl?$AAi?$AAd?$AAa?$AAt?$AAe?$AA_?$AAp?$AAa?$AAr?$AAa?$AAm?$AA_?$AAr?$AAe?$AAu?$AAs?$AAe?$AA?$CI?$AA?$CG?$AAp?$AAo?$AAs?$AA_?$AAv?$AAa?$AAl?$AAu@ 0000000140078450     LIBCMTD:outputp.obj
 0002:000034e0       ??_C@_1EM@BNPHBBIA@?$AA?$CI?$AA?$CI?$AAt?$AAy?$AAp?$AAe?$AA_?$AAp?$AAo?$AAs?$AA?$DO?$AA?$DN?$AA0?$AA?$CJ?$AA?5?$AA?$CG?$AA?$CG?$AA?5?$AA?$CI?$AAt?$AAy?$AAp?$AAe?$AA_?$AAp?$AAo?$AAs?$AA?$DM?$AA_?$AAA?$AAR?$AAG@ 00000001400784e0     LIBCMTD:outputp.obj
 0002:00003530       ??_C@_1IK@MHEDJAMK@?$AA_?$AAt?$AAv?$AAa?$AAl?$AAi?$AAd?$AAa?$AAt?$AAe?$AA_?$AAp?$AAa?$AAr?$AAa?$AAm?$AA_?$AAr?$AAe?$AAu?$AAs?$AAe?$AA?$CI?$AA?$CG?$AAp?$AAo?$AAs?$AA_?$AAv?$AAa?$AAl?$AAu@ 0000000140078530     LIBCMTD:outputp.obj
 0002:000035c0       ??_C@_1IG@FDCPLALG@?$AA_?$AAt?$AAv?$AAa?$AAl?$AAi?$AAd?$AAa?$AAt?$AAe?$AA_?$AAp?$AAa?$AAr?$AAa?$AAm?$AA_?$AAr?$AAe?$AAu?$AAs?$AAe?$AA?$CI?$AA?$CG?$AAp?$AAo?$AAs?$AA_?$AAv?$AAa?$AAl?$AAu@ 00000001400785c0     LIBCMTD:outputp.obj
 0002:00003650       ??_C@_1IG@HJIMKDHC@?$AA_?$AAt?$AAv?$AAa?$AAl?$AAi?$AAd?$AAa?$AAt?$AAe?$AA_?$AAp?$AAa?$AAr?$AAa?$AAm?$AA_?$AAr?$AAe?$AAu?$AAs?$AAe?$AA?$CI?$AA?$CG?$AAp?$AAo?$AAs?$AA_?$AAv?$AAa?$AAl?$AAu@ 0000000140078650     LIBCMTD:outputp.obj
 0002:000036e0       ??_C@_1IM@DNGHAPLB@?$AA_?$AAt?$AAv?$AAa?$AAl?$AAi?$AAd?$AAa?$AAt?$AAe?$AA_?$AAp?$AAa?$AAr?$AAa?$AAm?$AA_?$AAr?$AAe?$AAu?$AAs?$AAe?$AA?$CI?$AA?$CG?$AAp?$AAo?$AAs?$AA_?$AAv?$AAa?$AAl?$AAu@ 00000001400786e0     LIBCMTD:outputp.obj
 0002:00003770       ??_C@_1DG@GOHGNKHE@?$AAp?$AAa?$AAs?$AAs?$AA?5?$AA?$DN?$AA?$DN?$AA?5?$AAF?$AAO?$AAR?$AAM?$AAA?$AAT?$AA_?$AAO?$AAU?$AAT?$AAP?$AAU?$AAT?$AA_?$AAP?$AAA?$AAS?$AAS?$AA?$AA@ 0000000140078770     LIBCMTD:outputp.obj
 0002:000037b0       ??_C@_1IK@NBGDDCBN@?$AA_?$AAt?$AAv?$AAa?$AAl?$AAi?$AAd?$AAa?$AAt?$AAe?$AA_?$AAp?$AAa?$AAr?$AAa?$AAm?$AA_?$AAr?$AAe?$AAu?$AAs?$AAe?$AA?$CI?$AA?$CG?$AAp?$AAo?$AAs?$AA_?$AAv?$AAa?$AAl?$AAu@ 00000001400787b0     LIBCMTD:outputp.obj
 0002:00003840       ??_C@_1JC@OACKELNN@?$AA_?$AAt?$AAv?$AAa?$AAl?$AAi?$AAd?$AAa?$AAt?$AAe?$AA_?$AAp?$AAa?$AAr?$AAa?$AAm?$AA_?$AAr?$AAe?$AAu?$AAs?$AAe?$AA?$CI?$AA?$CG?$AAp?$AAo?$AAs?$AA_?$AAv?$AAa?$AAl?$AAu@ 0000000140078840     LIBCMTD:outputp.obj
 0002:000038e0       ??_C@_1FK@BCPANIEK@?$AA?$CI?$AA?$CC?$AAM?$AAi?$AAs?$AAs?$AAi?$AAn?$AAg?$AA?5?$AAp?$AAo?$AAs?$AAi?$AAt?$AAi?$AAo?$AAn?$AA?5?$AAi?$AAn?$AA?5?$AAt?$AAh?$AAe?$AA?5?$AAf?$AAo?$AAr?$AAm?$AAa?$AAt@ 00000001400788e0     LIBCMTD:outputp.obj
 0002:00003940       ??_C@_1BO@LKEBEKJP@?$AAp?$AAV?$AAa?$AAl?$AAu?$AAe?$AA?5?$AA?$CB?$AA?$DN?$AA?5?$AAN?$AAU?$AAL?$AAL?$AA?$AA@ 0000000140078940     LIBCMTD:dosmap.obj
 0002:00003960       ??_C@_1GK@KLOFHDOP@?$AAf?$AA?3?$AA?2?$AAd?$AAd?$AA?2?$AAv?$AAc?$AAt?$AAo?$AAo?$AAl?$AAs?$AA?2?$AAc?$AAr?$AAt?$AA_?$AAb?$AAl?$AAd?$AA?2?$AAs?$AAe?$AAl?$AAf?$AA_?$AA6?$AA4?$AA_?$AAa?$AAm@ 0000000140078960     LIBCMTD:dosmap.obj
 0002:000039d0       ??_C@_1BG@KCMPBBDK@?$AA_?$AAg?$AAe?$AAt?$AA_?$AAe?$AAr?$AAr?$AAn?$AAo?$AA?$AA@ 00000001400789d0     LIBCMTD:dosmap.obj
 0002:000039e8       ??_C@_1BM@INIPHHDD@?$AA_?$AAg?$AAe?$AAt?$AA_?$AAd?$AAo?$AAs?$AAe?$AAr?$AAr?$AAn?$AAo?$AA?$AA@ 00000001400789e8     LIBCMTD:dosmap.obj
 0002:00003a30       ??_C@_04HJMOFLDF@Free?$AA@ 0000000140078a30     LIBCMTD:dbgheap.obj
 0002:00003a38       ??_C@_06EFAGIKOH@Normal?$AA@ 0000000140078a38     LIBCMTD:dbgheap.obj
 0002:00003a40       ??_C@_03OGPFLFLO@CRT?$AA@  0000000140078a40     LIBCMTD:dbgheap.obj
 0002:00003a44       ??_C@_06KMEJCCGM@Ignore?$AA@ 0000000140078a44     LIBCMTD:dbgheap.obj
 0002:00003a4c       ??_C@_06PJIGMIJB@Client?$AA@ 0000000140078a4c     LIBCMTD:dbgheap.obj
 0002:00003a58       ??_C@_1CE@LJFEPPMP@?$AA_?$AAC?$AAr?$AAt?$AAC?$AAh?$AAe?$AAc?$AAk?$AAM?$AAe?$AAm?$AAo?$AAr?$AAy?$AA?$CI?$AA?$CJ?$AA?$AA@ 0000000140078a58     LIBCMTD:dbgheap.obj
 0002:00003a80       ??_C@_1GM@EEGHMGNN@?$AAf?$AA?3?$AA?2?$AAd?$AAd?$AA?2?$AAv?$AAc?$AAt?$AAo?$AAo?$AAl?$AAs?$AA?2?$AAc?$AAr?$AAt?$AA_?$AAb?$AAl?$AAd?$AA?2?$AAs?$AAe?$AAl?$AAf?$AA_?$AA6?$AA4?$AA_?$AAa?$AAm@ 0000000140078a80     LIBCMTD:dbgheap.obj
 0002:00003af0       ??_C@_0DF@BBEGIFEK@Client?5hook?5allocation?5failure?5a@ 0000000140078af0     LIBCMTD:dbgheap.obj
 0002:00003b28       ??_C@_0CB@CCLOLAHO@Client?5hook?5allocation?5failure?4?6@ 0000000140078b28     LIBCMTD:dbgheap.obj
 0002:00003b4c       ??_C@_02DKCKIIND@?$CFs?$AA@ 0000000140078b4c     LIBCMTD:dbgheap.obj
 0002:00003b50       ??_C@_0CF@BICKFLAF@Invalid?5allocation?5size?3?5?$CFIu?5byt@ 0000000140078b50     LIBCMTD:dbgheap.obj
 0002:00003b78       ??_C@_0DC@JEMAGEKG@Error?3?5memory?5allocation?3?5bad?5me@ 0000000140078b78     LIBCMTD:dbgheap.obj
 0002:00003bb0       ??_C@_0DI@KKJPDPGM@Client?5hook?5re?9allocation?5failur@ 0000000140078bb0     LIBCMTD:dbgheap.obj
 0002:00003be8       ??_C@_0CE@DOFMDOL@Client?5hook?5re?9allocation?5failur@ 0000000140078be8     LIBCMTD:dbgheap.obj
 0002:00003c10       ??_C@_0ED@GPCPBAGP@Invalid?5allocation?5size?3?5?$CFIu?5byt@ 0000000140078c10     LIBCMTD:dbgheap.obj
 0002:00003c60       ??_C@_0FA@EFEIGJKG@Error?3?5memory?5allocation?3?5bad?5me@ 0000000140078c60     LIBCMTD:dbgheap.obj
 0002:00003cb0       ??_C@_0EM@LGFLMAGJ@The?5Block?5at?50x?$CFp?5was?5allocated?5@ 0000000140078cb0     LIBCMTD:dbgheap.obj
 0002:00003d00       ??_C@_1EE@GFOPCECE@?$AA_?$AAC?$AAr?$AAt?$AAI?$AAs?$AAV?$AAa?$AAl?$AAi?$AAd?$AAH?$AAe?$AAa?$AAp?$AAP?$AAo?$AAi?$AAn?$AAt?$AAe?$AAr?$AA?$CI?$AAp?$AAU?$AAs?$AAe?$AAr?$AAD?$AAa?$AAt?$AAa@ 0000000140078d00     LIBCMTD:dbgheap.obj
 0002:00003d50       ??_C@_1IK@DCPKDGNH@?$AAp?$AAO?$AAl?$AAd?$AAB?$AAl?$AAo?$AAc?$AAk?$AA?9?$AA?$DO?$AAn?$AAL?$AAi?$AAn?$AAe?$AA?5?$AA?$DN?$AA?$DN?$AA?5?$AAI?$AAG?$AAN?$AAO?$AAR?$AAE?$AA_?$AAL?$AAI?$AAN?$AAE?$AA?5@ 0000000140078d50     LIBCMTD:dbgheap.obj
 0002:00003de0       ??_C@_0DA@HFBKENN@Error?3?5possible?5heap?5corruption?5@ 0000000140078de0     LIBCMTD:dbgheap.obj
 0002:00003e10       ??_C@_1GE@PCKLOLAO@?$AAf?$AAR?$AAe?$AAa?$AAl?$AAl?$AAo?$AAc?$AA?5?$AA?$HM?$AA?$HM?$AA?5?$AA?$CI?$AA?$CB?$AAf?$AAR?$AAe?$AAa?$AAl?$AAl?$AAo?$AAc?$AA?5?$AA?$CG?$AA?$CG?$AA?5?$AAp?$AAN?$AAe?$AAw?$AAB?$AAl@ 0000000140078e10     LIBCMTD:dbgheap.obj
 0002:00003e78       ??_C@_1DC@GEFKNOOL@?$AA_?$AAp?$AAL?$AAa?$AAs?$AAt?$AAB?$AAl?$AAo?$AAc?$AAk?$AA?5?$AA?$DN?$AA?$DN?$AA?5?$AAp?$AAO?$AAl?$AAd?$AAB?$AAl?$AAo?$AAc?$AAk?$AA?$AA@ 0000000140078e78     LIBCMTD:dbgheap.obj
 0002:00003eb0       ??_C@_1DE@KOOKLFBB@?$AA_?$AAp?$AAF?$AAi?$AAr?$AAs?$AAt?$AAB?$AAl?$AAo?$AAc?$AAk?$AA?5?$AA?$DN?$AA?$DN?$AA?5?$AAp?$AAO?$AAl?$AAd?$AAB?$AAl?$AAo?$AAc?$AAk?$AA?$AA@ 0000000140078eb0     LIBCMTD:dbgheap.obj
 0002:00003ee8       ??_C@_1CE@CJACEFBA@?$AAp?$AAU?$AAs?$AAe?$AAr?$AAD?$AAa?$AAt?$AAa?$AA?5?$AA?$CB?$AA?$DN?$AA?5?$AAN?$AAU?$AAL?$AAL?$AA?$AA@ 0000000140078ee8     LIBCMTD:dbgheap.obj
 0002:00003f10       ??_C@_1BI@HAPNGHDP@?$AA_?$AAe?$AAx?$AAp?$AAa?$AAn?$AAd?$AA_?$AAd?$AAb?$AAg?$AA?$AA@ 0000000140078f10     LIBCMTD:dbgheap.obj
 0002:00003f30       ??_C@_0EJ@HEIBCIMJ@The?5Block?5at?50x?$CFp?5was?5allocated?5@ 0000000140078f30     LIBCMTD:dbgheap.obj
 0002:00003f80       ??_C@_0BL@KEIPLFAC@Client?5hook?5free?5failure?4?6?$AA@ 0000000140078f80     LIBCMTD:dbgheap.obj
 0002:00003fa0       ??_C@_1EO@LHDAJOCM@?$AA_?$AAB?$AAL?$AAO?$AAC?$AAK?$AA_?$AAT?$AAY?$AAP?$AAE?$AA_?$AAI?$AAS?$AA_?$AAV?$AAA?$AAL?$AAI?$AAD?$AA?$CI?$AAp?$AAH?$AAe?$AAa?$AAd?$AA?9?$AA?$DO?$AAn?$AAB?$AAl?$AAo@ 0000000140078fa0     LIBCMTD:dbgheap.obj
 0002:00003ff0       ??_C@_0KI@JGFOHMEB@HEAP?5CORRUPTION?5DETECTED?3?5before@ 0000000140078ff0     LIBCMTD:dbgheap.obj
 0002:000040a0       ??_C@_0IK@PJCGLBOB@HEAP?5CORRUPTION?5DETECTED?3?5before@ 00000001400790a0     LIBCMTD:dbgheap.obj
 0002:00004130       ??_C@_0KE@MBMNHHHN@HEAP?5CORRUPTION?5DETECTED?3?5after?5@ 0000000140079130     LIBCMTD:dbgheap.obj
 0002:000041e0       ??_C@_0IG@LEMBDCJK@HEAP?5CORRUPTION?5DETECTED?3?5after?5@ 00000001400791e0     LIBCMTD:dbgheap.obj
 0002:00004270       ??_C@_1HK@HPCBMDFG@?$AAp?$AAH?$AAe?$AAa?$AAd?$AA?9?$AA?$DO?$AAn?$AAL?$AAi?$AAn?$AAe?$AA?5?$AA?$DN?$AA?$DN?$AA?5?$AAI?$AAG?$AAN?$AAO?$AAR?$AAE?$AA_?$AAL?$AAI?$AAN?$AAE?$AA?5?$AA?$CG?$AA?$CG?$AA?5?$AAp@ 0000000140079270     LIBCMTD:dbgheap.obj
 0002:000042f0       ??_C@_1DM@ODCJIDCP@?$AAp?$AAH?$AAe?$AAa?$AAd?$AA?9?$AA?$DO?$AAn?$AAB?$AAl?$AAo?$AAc?$AAk?$AAU?$AAs?$AAe?$AA?5?$AA?$DN?$AA?$DN?$AA?5?$AAn?$AAB?$AAl?$AAo?$AAc?$AAk?$AAU?$AAs?$AAe?$AA?$AA@ 00000001400792f0     LIBCMTD:dbgheap.obj
 0002:00004330       ??_C@_1CK@DMAGEMBG@?$AA_?$AAp?$AAL?$AAa?$AAs?$AAt?$AAB?$AAl?$AAo?$AAc?$AAk?$AA?5?$AA?$DN?$AA?$DN?$AA?5?$AAp?$AAH?$AAe?$AAa?$AAd?$AA?$AA@ 0000000140079330     LIBCMTD:dbgheap.obj
 0002:00004360       ??_C@_1CM@MMAADDMD@?$AA_?$AAp?$AAF?$AAi?$AAr?$AAs?$AAt?$AAB?$AAl?$AAo?$AAc?$AAk?$AA?5?$AA?$DN?$AA?$DN?$AA?5?$AAp?$AAH?$AAe?$AAa?$AAd?$AA?$AA@ 0000000140079360     LIBCMTD:dbgheap.obj
 0002:00004390       ??_C@_1BG@MBKOGDLD@?$AA_?$AAm?$AAs?$AAi?$AAz?$AAe?$AA_?$AAd?$AAb?$AAg?$AA?$AA@ 0000000140079390     LIBCMTD:dbgheap.obj
 0002:000043a8       ??_C@_0CE@MKKHMBMK@_heapchk?5fails?5with?5_HEAPBADBEGI@ 00000001400793a8     LIBCMTD:dbgheap.obj
 0002:000043d0       ??_C@_0CD@CPKEAPBD@_heapchk?5fails?5with?5_HEAPBADNODE@ 00000001400793d0     LIBCMTD:dbgheap.obj
 0002:000043f8       ??_C@_0CC@MJGLGBDG@_heapchk?5fails?5with?5_HEAPBADEND?4@ 00000001400793f8     LIBCMTD:dbgheap.obj
 0002:00004420       ??_C@_0CC@MFFCHFHO@_heapchk?5fails?5with?5_HEAPBADPTR?4@ 0000000140079420     LIBCMTD:dbgheap.obj
 0002:00004448       ??_C@_0CL@HNNNMKMJ@_heapchk?5fails?5with?5unknown?5retu@ 0000000140079448     LIBCMTD:dbgheap.obj
 0002:00004478       ??_C@_07OHKEFPKJ@DAMAGED?$AA@ 0000000140079478     LIBCMTD:dbgheap.obj
 0002:00004480       ??_C@_0KA@IHNJJKPL@HEAP?5CORRUPTION?5DETECTED?3?5on?5top@ 0000000140079480     LIBCMTD:dbgheap.obj
 0002:00004520       ??_C@_0IC@BBJIOOJH@HEAP?5CORRUPTION?5DETECTED?3?5on?5top@ 0000000140079520     LIBCMTD:dbgheap.obj
 0002:000045b0       ??_C@_0EG@DGJMPDBH@?$CFhs?5located?5at?50x?$CFp?5is?5?$CFIu?5bytes@ 00000001400795b0     LIBCMTD:dbgheap.obj
 0002:000045f8       ??_C@_0CI@JMLBEDHJ@?$CFhs?5located?5at?50x?$CFp?5is?5?$CFIu?5bytes@ 00000001400795f8     LIBCMTD:dbgheap.obj
 0002:00004620       ??_C@_1BHO@NNANJNF@?$AA?$CI?$AAf?$AAN?$AAe?$AAw?$AAB?$AAi?$AAt?$AAs?$AA?$DN?$AA?$DN?$AA_?$AAC?$AAR?$AAT?$AAD?$AAB?$AAG?$AA_?$AAR?$AAE?$AAP?$AAO?$AAR?$AAT?$AA_?$AAF?$AAL?$AAA?$AAG?$AA?$CJ?$AA?5@ 0000000140079620     LIBCMTD:dbgheap.obj
 0002:000047a0       ??_C@_1BO@GJFDNMNF@?$AA_?$AAC?$AAr?$AAt?$AAS?$AAe?$AAt?$AAD?$AAb?$AAg?$AAF?$AAl?$AAa?$AAg?$AA?$AA@ 00000001400797a0     LIBCMTD:dbgheap.obj
 0002:000047c0       ??_C@_1BI@CJGCEEDL@?$AAp?$AAf?$AAn?$AA?5?$AA?$CB?$AA?$DN?$AA?5?$AAN?$AAU?$AAL?$AAL?$AA?$AA@ 00000001400797c0     LIBCMTD:dbgheap.obj
 0002:000047d8       ??_C@_1DE@GJCKCKEC@?$AA_?$AAC?$AAr?$AAt?$AAD?$AAo?$AAF?$AAo?$AAr?$AAA?$AAl?$AAl?$AAC?$AAl?$AAi?$AAe?$AAn?$AAt?$AAO?$AAb?$AAj?$AAe?$AAc?$AAt?$AAs?$AA?$AA@ 00000001400797d8     LIBCMTD:dbgheap.obj
 0002:00004810       ??_C@_1BM@MIMANDHC@?$AAs?$AAt?$AAa?$AAt?$AAe?$AA?5?$AA?$CB?$AA?$DN?$AA?5?$AAN?$AAU?$AAL?$AAL?$AA?$AA@ 0000000140079810     LIBCMTD:dbgheap.obj
 0002:00004830       ??_C@_1CE@NJJKELF@?$AA_?$AAC?$AAr?$AAt?$AAM?$AAe?$AAm?$AAC?$AAh?$AAe?$AAc?$AAk?$AAp?$AAo?$AAi?$AAn?$AAt?$AA?$AA@ 0000000140079830     LIBCMTD:dbgheap.obj
 0002:00004858       ??_C@_0DP@LEFMFBOD@Bad?5memory?5block?5found?5at?50x?$CFp?4?6@ 0000000140079858     LIBCMTD:dbgheap.obj
 0002:00004898       ??_C@_0CB@EAAIGELO@Bad?5memory?5block?5found?5at?50x?$CFp?4?6@ 0000000140079898     LIBCMTD:dbgheap.obj
 0002:000048c0       ??_C@_1CE@PDIENACM@?$AA_?$AAC?$AAr?$AAt?$AAM?$AAe?$AAm?$AAD?$AAi?$AAf?$AAf?$AAe?$AAr?$AAe?$AAn?$AAc?$AAe?$AA?$AA@ 00000001400798c0     LIBCMTD:dbgheap.obj
 0002:000048e8       ??_C@_1CC@DHPFEMMN@?$AAo?$AAl?$AAd?$AAS?$AAt?$AAa?$AAt?$AAe?$AA?5?$AA?$CB?$AA?$DN?$AA?5?$AAN?$AAU?$AAL?$AAL?$AA?$AA@ 00000001400798e8     LIBCMTD:dbgheap.obj
 0002:00004910       ??_C@_1CC@DFPEDFBP@?$AAn?$AAe?$AAw?$AAS?$AAt?$AAa?$AAt?$AAe?$AA?5?$AA?$CB?$AA?$DN?$AA?5?$AAN?$AAU?$AAL?$AAL?$AA?$AA@ 0000000140079910     LIBCMTD:dbgheap.obj
 0002:00004934       ??_C@_05MKKEDADM@?$CF?42X?5?$AA@ 0000000140079934     LIBCMTD:dbgheap.obj
 0002:00004940       ??_C@_1CG@LPFIACGM@?$AA_?$AAp?$AAr?$AAi?$AAn?$AAt?$AAM?$AAe?$AAm?$AAB?$AAl?$AAo?$AAc?$AAk?$AAD?$AAa?$AAt?$AAa?$AA?$AA@ 0000000140079940     LIBCMTD:dbgheap.obj
 0002:00004968       ??_C@_0BA@HJBKCELP@?5Data?3?5?$DM?$CFs?$DO?5?$CFs?6?$AA@ 0000000140079968     LIBCMTD:dbgheap.obj
 0002:00004978       ??_C@_0BE@KCIPKCIA@Dumping?5objects?5?9?$DO?6?$AA@ 0000000140079978     LIBCMTD:dbgheap.obj
 0002:00004990       ??_C@_0BE@OIEFNFL@?$CDFile?5Error?$CD?$CI?$CFd?$CJ?5?3?5?$AA@ 0000000140079990     LIBCMTD:dbgheap.obj
 0002:000049a8       ??_C@_0L@JMEFFCCJ@?$CFhs?$CI?$CFd?$CJ?5?3?5?$AA@ 00000001400799a8     LIBCMTD:dbgheap.obj
 0002:000049b4       ??_C@_06PKLGBFGM@?$HL?$CFld?$HN?5?$AA@ 00000001400799b4     LIBCMTD:dbgheap.obj
 0002:000049c0       ??_C@_0DD@GHNAAKBB@client?5block?5at?50x?$CFp?0?5subtype?5?$CFx@ 00000001400799c0     LIBCMTD:dbgheap.obj
 0002:000049f8       ??_C@_0CH@FAGDDGPN@normal?5block?5at?50x?$CFp?0?5?$CFIu?5bytes?5@ 00000001400799f8     LIBCMTD:dbgheap.obj
 0002:00004a20       ??_C@_0DA@MDLBNIBM@crt?5block?5at?50x?$CFp?0?5subtype?5?$CFx?0?5?$CF@ 0000000140079a20     LIBCMTD:dbgheap.obj
 0002:00004a50       ??_C@_0BH@GFGKJDCO@Object?5dump?5complete?4?6?$AA@ 0000000140079a50     LIBCMTD:dbgheap.obj
 0002:00004a68       ??_C@_0BI@JBFPOEJA@Detected?5memory?5leaks?$CB?6?$AA@ 0000000140079a68     LIBCMTD:dbgheap.obj
 0002:00004a80       ??_C@_1CM@MPNIBKGK@?$AA_?$AAC?$AAr?$AAt?$AAM?$AAe?$AAm?$AAD?$AAu?$AAm?$AAp?$AAS?$AAt?$AAa?$AAt?$AAi?$AAs?$AAt?$AAi?$AAc?$AAs?$AA?$AA@ 0000000140079a80     LIBCMTD:dbgheap.obj
 0002:00004ab0       ??_C@_0BO@DACNIABB@?$CFId?5bytes?5in?5?$CFId?5?$CFhs?5Blocks?4?6?$AA@ 0000000140079ab0     LIBCMTD:dbgheap.obj
 0002:00004ad0       ??_C@_0CB@BLHDAFNE@Largest?5number?5used?3?5?$CFId?5bytes?4?6@ 0000000140079ad0     LIBCMTD:dbgheap.obj
 0002:00004af8       ??_C@_0BP@DEDHGGGI@Total?5allocations?3?5?$CFId?5bytes?4?6?$AA@ 0000000140079af8     LIBCMTD:dbgheap.obj
 0002:00004b18       ??_C@_1CE@NPMGPNNP@?$AAI?$AAS?$AA_?$AA2?$AA_?$AAP?$AAO?$AAW?$AA_?$AAN?$AA?$CI?$AAa?$AAl?$AAi?$AAg?$AAn?$AA?$CJ?$AA?$AA@ 0000000140079b18     LIBCMTD:dbgheap.obj
 0002:00004b40       ??_C@_1DG@DONCJBBJ@?$AA_?$AAa?$AAl?$AAi?$AAg?$AAn?$AAe?$AAd?$AA_?$AAo?$AAf?$AAf?$AAs?$AAe?$AAt?$AA_?$AAm?$AAa?$AAl?$AAl?$AAo?$AAc?$AA_?$AAd?$AAb?$AAg?$AA?$AA@ 0000000140079b40     LIBCMTD:dbgheap.obj
 0002:00004b78       ??_C@_1DK@LFLKFPDA@?$AAo?$AAf?$AAf?$AAs?$AAe?$AAt?$AA?5?$AA?$DN?$AA?$DN?$AA?5?$AA0?$AA?5?$AA?$HM?$AA?$HM?$AA?5?$AAo?$AAf?$AAf?$AAs?$AAe?$AAt?$AA?5?$AA?$DM?$AA?5?$AAs?$AAi?$AAz?$AAe?$AA?$AA@ 0000000140079b78     LIBCMTD:dbgheap.obj
 0002:00004bc0       ??_C@_0EI@NDNJMAJK@The?5block?5at?50x?$CFp?5was?5not?5alloca@ 0000000140079bc0     LIBCMTD:dbgheap.obj
 0002:00004c08       ??_C@_0DL@PGHMMKNE@Damage?5before?50x?$CFp?5which?5was?5all@ 0000000140079c08     LIBCMTD:dbgheap.obj
 0002:00004c48       ??_C@_1DI@NINIKFFK@?$AA_?$AAa?$AAl?$AAi?$AAg?$AAn?$AAe?$AAd?$AA_?$AAo?$AAf?$AAf?$AAs?$AAe?$AAt?$AA_?$AAr?$AAe?$AAa?$AAl?$AAl?$AAo?$AAc?$AA_?$AAd?$AAb?$AAg?$AA?$AA@ 0000000140079c48     LIBCMTD:dbgheap.obj
 0002:00004c80       ??_C@_0EF@PGELACII@The?5block?5at?50x?$CFp?5was?5not?5alloca@ 0000000140079c80     LIBCMTD:dbgheap.obj
 0002:00004cc8       ??_C@_1CC@MOBIKHH@?$AAm?$AAe?$AAm?$AAb?$AAl?$AAo?$AAc?$AAk?$AA?5?$AA?$CB?$AA?$DN?$AA?5?$AAN?$AAU?$AAL?$AAL?$AA?$AA@ 0000000140079cc8     LIBCMTD:dbgheap.obj
 0002:00004cf0       ??_C@_1CG@CEGMHIMN@?$AA_?$AAa?$AAl?$AAi?$AAg?$AAn?$AAe?$AAd?$AA_?$AAm?$AAs?$AAi?$AAz?$AAe?$AA_?$AAd?$AAb?$AAg?$AA?$AA@ 0000000140079cf0     LIBCMTD:dbgheap.obj
 0002:00004d20       ??_C@_1GO@JBBBNCCB@?$AAf?$AA?3?$AA?2?$AAd?$AAd?$AA?2?$AAv?$AAc?$AAt?$AAo?$AAo?$AAl?$AAs?$AA?2?$AAc?$AAr?$AAt?$AA_?$AAb?$AAl?$AAd?$AA?2?$AAs?$AAe?$AAl?$AAf?$AA_?$AA6?$AA4?$AA_?$AAa?$AAm@ 0000000140079d20     LIBCMTD:ftelli64.obj
 0002:00004d90       ??_C@_1BE@DHFIIAMO@?$AA_?$AAf?$AAt?$AAe?$AAl?$AAl?$AAi?$AA6?$AA4?$AA?$AA@ 0000000140079d90     LIBCMTD:ftelli64.obj
 0002:00004da8       ??_C@_0DE@PMGNLEO@f?3?2dd?2vctools?2crt_bld?2self_64_am@ 0000000140079da8     LIBCMTD:_file.obj
 0002:00004de0       ??_C@_0DF@MDFFADLF@f?3?2dd?2vctools?2crt_bld?2self_64_am@ 0000000140079de0     LIBCMTD:stream.obj
 0002:00004e40       ??_C@_1CC@JBMDNKJP@?$AAf?$AAi?$AAl?$AAe?$AAn?$AAa?$AAm?$AAe?$AA?5?$AA?$CB?$AA?$DN?$AA?5?$AAN?$AAU?$AAL?$AAL?$AA?$AA@ 0000000140079e40     LIBCMTD:_open.obj
 0002:00004e70       ??_C@_1GI@CHOPOMJM@?$AAf?$AA?3?$AA?2?$AAd?$AAd?$AA?2?$AAv?$AAc?$AAt?$AAo?$AAo?$AAl?$AAs?$AA?2?$AAc?$AAr?$AAt?$AA_?$AAb?$AAl?$AAd?$AA?2?$AAs?$AAe?$AAl?$AAf?$AA_?$AA6?$AA4?$AA_?$AAa?$AAm@ 0000000140079e70     LIBCMTD:_open.obj
 0002:00004ed8       ??_C@_1BK@HGLMNMEC@?$AAm?$AAo?$AAd?$AAe?$AA?5?$AA?$CB?$AA?$DN?$AA?5?$AAN?$AAU?$AAL?$AAL?$AA?$AA@ 0000000140079ed8     LIBCMTD:_open.obj
 0002:00004ef8       ??_C@_1DK@PKMJBLLN@?$AA?$CI?$AA?$CC?$AAI?$AAn?$AAv?$AAa?$AAl?$AAi?$AAd?$AA?5?$AAf?$AAi?$AAl?$AAe?$AA?5?$AAo?$AAp?$AAe?$AAn?$AA?5?$AAm?$AAo?$AAd?$AAe?$AA?$CC?$AA?0?$AA0?$AA?$CJ?$AA?$AA@ 0000000140079ef8     LIBCMTD:_open.obj
 0002:00004f38       ??_C@_1BE@DONHJJKE@?$AA_?$AAo?$AAp?$AAe?$AAn?$AAf?$AAi?$AAl?$AAe?$AA?$AA@ 0000000140079f38     LIBCMTD:_open.obj
 0002:00004f50       ??_C@_1CI@KEDPFCAL@?$AA?$CI?$AA?$CK?$AAm?$AAo?$AAd?$AAe?$AA?5?$AA?$DN?$AA?$DN?$AA?5?$AA_?$AAT?$AA?$CI?$AA?8?$AA?2?$AA0?$AA?8?$AA?$CJ?$AA?$CJ?$AA?$AA@ 0000000140079f50     LIBCMTD:_open.obj
 0002:00004f80       ??_C@_1GM@FOKAPIIM@?$AAf?$AA?3?$AA?2?$AAd?$AAd?$AA?2?$AAv?$AAc?$AAt?$AAo?$AAo?$AAl?$AAs?$AA?2?$AAc?$AAr?$AAt?$AA_?$AAb?$AAl?$AAd?$AA?2?$AAs?$AAe?$AAl?$AAf?$AA_?$AA6?$AA4?$AA_?$AAa?$AAm@ 0000000140079f80     LIBCMTD:_filbuf.obj
 0002:00004ff0       ??_C@_1BA@IIKEPOGH@?$AA_?$AAf?$AAi?$AAl?$AAb?$AAu?$AAf?$AA?$AA@ 0000000140079ff0     LIBCMTD:_filbuf.obj
 0002:00005000       ??_C@_1GK@JPBKPHOG@?$AAf?$AA?3?$AA?2?$AAd?$AAd?$AA?2?$AAv?$AAc?$AAt?$AAo?$AAo?$AAl?$AAs?$AA?2?$AAc?$AAr?$AAt?$AA_?$AAb?$AAl?$AAd?$AA?2?$AAs?$AAe?$AAl?$AAf?$AA_?$AA6?$AA4?$AA_?$AAa?$AAm@ 000000014007a000     LIBCMTD:fileno.obj
 0002:00005070       ??_C@_1BA@JGHIEKKM@?$AA_?$AAf?$AAi?$AAl?$AAe?$AAn?$AAo?$AA?$AA@ 000000014007a070     LIBCMTD:fileno.obj
 0002:00005080       ??_C@_1BI@GKKCBDMD@?$AAd?$AAs?$AAt?$AA?5?$AA?$CB?$AA?$DN?$AA?5?$AAN?$AAU?$AAL?$AAL?$AA?$AA@ 000000014007a080     LIBCMTD:memcpy_s.obj
 0002:000050a0       ??_C@_1GO@EDMFKEMH@?$AAf?$AA?3?$AA?2?$AAd?$AAd?$AA?2?$AAv?$AAc?$AAt?$AAo?$AAo?$AAl?$AAs?$AA?2?$AAc?$AAr?$AAt?$AA_?$AAb?$AAl?$AAd?$AA?2?$AAs?$AAe?$AAl?$AAf?$AA_?$AA6?$AA4?$AA_?$AAa?$AAm@ 000000014007a0a0     LIBCMTD:memcpy_s.obj
 0002:00005110       ??_C@_1BC@GKHDJMGB@?$AAm?$AAe?$AAm?$AAc?$AAp?$AAy?$AA_?$AAs?$AA?$AA@ 000000014007a110     LIBCMTD:memcpy_s.obj
 0002:00005128       ??_C@_1BI@DCHLDCPP@?$AAs?$AAr?$AAc?$AA?5?$AA?$CB?$AA?$DN?$AA?5?$AAN?$AAU?$AAL?$AAL?$AA?$AA@ 000000014007a128     LIBCMTD:memcpy_s.obj
 0002:00005140       ??_C@_1CK@DDKKOLAN@?$AAs?$AAi?$AAz?$AAe?$AAI?$AAn?$AAB?$AAy?$AAt?$AAe?$AAs?$AA?5?$AA?$DO?$AA?$DN?$AA?5?$AAc?$AAo?$AAu?$AAn?$AAt?$AA?$AA@ 000000014007a140     LIBCMTD:memcpy_s.obj
 0002:00005170       ??_C@_1FO@LPCLHKGE@?$AA?$CI?$AAf?$AAh?$AA?5?$AA?$DO?$AA?$DN?$AA?5?$AA0?$AA?5?$AA?$CG?$AA?$CG?$AA?5?$AA?$CI?$AAu?$AAn?$AAs?$AAi?$AAg?$AAn?$AAe?$AAd?$AA?$CJ?$AAf?$AAh?$AA?5?$AA?$DM?$AA?5?$AA?$CI?$AAu?$AAn?$AAs?$AAi@ 000000014007a170     LIBCMTD:read.obj
 0002:000051d0       ??_C@_1GG@KJCMOJMC@?$AAf?$AA?3?$AA?2?$AAd?$AAd?$AA?2?$AAv?$AAc?$AAt?$AAo?$AAo?$AAl?$AAs?$AA?2?$AAc?$AAr?$AAt?$AA_?$AAb?$AAl?$AAd?$AA?2?$AAs?$AAe?$AAl?$AAf?$AA_?$AA6?$AA4?$AA_?$AAa?$AAm@ 000000014007a1d0     LIBCMTD:read.obj
 0002:00005238       ??_C@_1M@NHJOLLDM@?$AA_?$AAr?$AAe?$AAa?$AAd?$AA?$AA@ 000000014007a238     LIBCMTD:read.obj
 0002:00005248       ??_C@_1CM@OKGMMMDH@?$AA?$CI?$AA_?$AAo?$AAs?$AAf?$AAi?$AAl?$AAe?$AA?$CI?$AAf?$AAh?$AA?$CJ?$AA?5?$AA?$CG?$AA?5?$AAF?$AAO?$AAP?$AAE?$AAN?$AA?$CJ?$AA?$AA@ 000000014007a248     LIBCMTD:read.obj
 0002:00005278       ??_C@_1CC@HBLPFNKH@?$AA?$CI?$AAc?$AAn?$AAt?$AA?5?$AA?$DM?$AA?$DN?$AA?5?$AAI?$AAN?$AAT?$AA_?$AAM?$AAA?$AAX?$AA?$CJ?$AA?$AA@ 000000014007a278     LIBCMTD:read.obj
 0002:000052a0       ??_C@_1JE@ECKHFIFP@?$AA?$CI?$AA?$CC?$AAI?$AAn?$AAv?$AAa?$AAl?$AAi?$AAd?$AA?5?$AAf?$AAi?$AAl?$AAe?$AA?5?$AAd?$AAe?$AAs?$AAc?$AAr?$AAi?$AAp?$AAt?$AAo?$AAr?$AA?4?$AA?5?$AAF?$AAi?$AAl?$AAe?$AA?5@ 000000014007a2a0     LIBCMTD:read.obj
 0002:00005338       ??_C@_1BK@JJBHNDKJ@?$AA_?$AAr?$AAe?$AAa?$AAd?$AA_?$AAn?$AAo?$AAl?$AAo?$AAc?$AAk?$AA?$AA@ 000000014007a338     LIBCMTD:read.obj
 0002:00005358       ??_C@_1CG@OHLJHGGK@?$AA?$CI?$AAi?$AAn?$AAp?$AAu?$AAt?$AAb?$AAu?$AAf?$AA?5?$AA?$CB?$AA?$DN?$AA?5?$AAN?$AAU?$AAL?$AAL?$AA?$CJ?$AA?$AA@ 000000014007a358     LIBCMTD:read.obj
 0002:00005380       ??_C@_1CC@EEOLPHGO@?$AA?$CI?$AA?$CI?$AAc?$AAn?$AAt?$AA?5?$AA?$CG?$AA?5?$AA1?$AA?$CJ?$AA?5?$AA?$DN?$AA?$DN?$AA?5?$AA0?$AA?$CJ?$AA?$AA@ 000000014007a380     LIBCMTD:read.obj
 0002:000053a8       ??_C@_0DD@PGLLFABO@f?3?2dd?2vctools?2crt_bld?2self_64_am@ 000000014007a3a8     LIBCMTD:read.obj
 0002:000053e0       ??_C@_1GO@MIODNAKM@?$AAf?$AA?3?$AA?2?$AAd?$AAd?$AA?2?$AAv?$AAc?$AAt?$AAo?$AAo?$AAl?$AAs?$AA?2?$AAc?$AAr?$AAt?$AA_?$AAb?$AAl?$AAd?$AA?2?$AAs?$AAe?$AAl?$AAf?$AA_?$AA6?$AA4?$AA_?$AAa?$AAm@ 000000014007a3e0     LIBCMTD:fseeki64.obj
 0002:00005450       ??_C@_1BE@LFNEFJFD@?$AA_?$AAf?$AAs?$AAe?$AAe?$AAk?$AAi?$AA6?$AA4?$AA?$AA@ 000000014007a450     LIBCMTD:fseeki64.obj
 0002:00005470       ??_C@_1GI@GPCDCEEE@?$AAf?$AA?3?$AA?2?$AAd?$AAd?$AA?2?$AAv?$AAc?$AAt?$AAo?$AAo?$AAl?$AAs?$AA?2?$AAc?$AAr?$AAt?$AA_?$AAb?$AAl?$AAd?$AA?2?$AAs?$AAe?$AAl?$AAf?$AA_?$AA6?$AA4?$AA_?$AAa?$AAm@ 000000014007a470     LIBCMTD:lseek.obj
 0002:000054d8       ??_C@_1O@EDOIKGHF@?$AA_?$AAl?$AAs?$AAe?$AAe?$AAk?$AA?$AA@ 000000014007a4d8     LIBCMTD:lseek.obj
 0002:000054e8       ??_C@_1DM@LMLOLGJ@?$AA?$CI?$AA?$CC?$AAI?$AAn?$AAv?$AAa?$AAl?$AAi?$AAd?$AA?5?$AAf?$AAi?$AAl?$AAe?$AA?5?$AAd?$AAe?$AAs?$AAc?$AAr?$AAi?$AAp?$AAt?$AAo?$AAr?$AA?$CC?$AA?0?$AA0?$AA?$CJ?$AA?$AA@ 000000014007a4e8     LIBCMTD:lseek.obj
 0002:00005530       ??_C@_1GO@FPPADPCM@?$AAf?$AA?3?$AA?2?$AAd?$AAd?$AA?2?$AAv?$AAc?$AAt?$AAo?$AAo?$AAl?$AAs?$AA?2?$AAc?$AAr?$AAt?$AA_?$AAb?$AAl?$AAd?$AA?2?$AAs?$AAe?$AAl?$AAf?$AA_?$AA6?$AA4?$AA_?$AAa?$AAm@ 000000014007a530     LIBCMTD:lseeki64.obj
 0002:000055a0       ??_C@_1BE@KHFBJMNM@?$AA_?$AAl?$AAs?$AAe?$AAe?$AAk?$AAi?$AA6?$AA4?$AA?$AA@ 000000014007a5a0     LIBCMTD:lseeki64.obj
 0002:000055b8       ??_C@_0DF@MJBFINAE@f?3?2dd?2vctools?2crt_bld?2self_64_am@ 000000014007a5b8     LIBCMTD:ioinit.obj
 0002:000055f0       ??_C@_1GI@JGDMGFHE@?$AAf?$AA?3?$AA?2?$AAd?$AAd?$AA?2?$AAv?$AAc?$AAt?$AAo?$AAo?$AAl?$AAs?$AA?2?$AAc?$AAr?$AAt?$AA_?$AAb?$AAl?$AAd?$AA?2?$AAs?$AAe?$AAl?$AAf?$AA_?$AA6?$AA4?$AA_?$AAa?$AAm@ 000000014007a5f0     LIBCMTD:write.obj
 0002:00005658       ??_C@_1O@KOFKDHPL@?$AA_?$AAw?$AAr?$AAi?$AAt?$AAe?$AA?$AA@ 000000014007a658     LIBCMTD:write.obj
 0002:00005668       ??_C@_1BM@KFJLMBPG@?$AA?$CI?$AAb?$AAu?$AAf?$AA?5?$AA?$CB?$AA?$DN?$AA?5?$AAN?$AAU?$AAL?$AAL?$AA?$CJ?$AA?$AA@ 000000014007a668     LIBCMTD:write.obj
 0002:00005688       ??_C@_1BM@NCANHCIP@?$AA_?$AAw?$AAr?$AAi?$AAt?$AAe?$AA_?$AAn?$AAo?$AAl?$AAo?$AAc?$AAk?$AA?$AA@ 000000014007a688     LIBCMTD:write.obj
 0002:000056a8       ??_C@_1DI@CNMHHHLG@?$AAi?$AAs?$AAl?$AAe?$AAa?$AAd?$AAb?$AAy?$AAt?$AAe?$AA?$CI?$AA_?$AAd?$AAb?$AAc?$AAs?$AAB?$AAu?$AAf?$AAf?$AAe?$AAr?$AA?$CI?$AAf?$AAh?$AA?$CJ?$AA?$CJ?$AA?$AA@ 000000014007a6a8     LIBCMTD:write.obj
 0002:00005850       ??_C@_1FK@PGACCAFB@?$AAR?$AA6?$AA0?$AA0?$AA2?$AA?$AN?$AA?6?$AA?9?$AA?5?$AAf?$AAl?$AAo?$AAa?$AAt?$AAi?$AAn?$AAg?$AA?5?$AAp?$AAo?$AAi?$AAn?$AAt?$AA?5?$AAs?$AAu?$AAp?$AAp?$AAo?$AAr?$AAt?$AA?5@ 000000014007a850     LIBCMTD:crt0msg.obj
 0002:000058b0       ??_C@_1FE@LLNEDJMD@?$AAR?$AA6?$AA0?$AA0?$AA8?$AA?$AN?$AA?6?$AA?9?$AA?5?$AAn?$AAo?$AAt?$AA?5?$AAe?$AAn?$AAo?$AAu?$AAg?$AAh?$AA?5?$AAs?$AAp?$AAa?$AAc?$AAe?$AA?5?$AAf?$AAo?$AAr?$AA?5?$AAa?$AAr@ 000000014007a8b0     LIBCMTD:crt0msg.obj
 0002:00005910       ??_C@_1FI@HONFMGBI@?$AAR?$AA6?$AA0?$AA0?$AA9?$AA?$AN?$AA?6?$AA?9?$AA?5?$AAn?$AAo?$AAt?$AA?5?$AAe?$AAn?$AAo?$AAu?$AAg?$AAh?$AA?5?$AAs?$AAp?$AAa?$AAc?$AAe?$AA?5?$AAf?$AAo?$AAr?$AA?5?$AAe?$AAn@ 000000014007a910     LIBCMTD:crt0msg.obj
 0002:00005970       ??_C@_1EG@BEHAGFJD@?$AAR?$AA6?$AA0?$AA1?$AA0?$AA?$AN?$AA?6?$AA?9?$AA?5?$AAa?$AAb?$AAo?$AAr?$AAt?$AA?$CI?$AA?$CJ?$AA?5?$AAh?$AAa?$AAs?$AA?5?$AAb?$AAe?$AAe?$AAn?$AA?5?$AAc?$AAa?$AAl?$AAl?$AAe?$AAd@ 000000014007a970     LIBCMTD:crt0msg.obj
 0002:000059c0       ??_C@_1FI@LOGNIKDM@?$AAR?$AA6?$AA0?$AA1?$AA6?$AA?$AN?$AA?6?$AA?9?$AA?5?$AAn?$AAo?$AAt?$AA?5?$AAe?$AAn?$AAo?$AAu?$AAg?$AAh?$AA?5?$AAs?$AAp?$AAa?$AAc?$AAe?$AA?5?$AAf?$AAo?$AAr?$AA?5?$AAt?$AAh@ 000000014007a9c0     LIBCMTD:crt0msg.obj
 0002:00005a20       ??_C@_1FK@BEOGODMC@?$AAR?$AA6?$AA0?$AA1?$AA7?$AA?$AN?$AA?6?$AA?9?$AA?5?$AAu?$AAn?$AAe?$AAx?$AAp?$AAe?$AAc?$AAt?$AAe?$AAd?$AA?5?$AAm?$AAu?$AAl?$AAt?$AAi?$AAt?$AAh?$AAr?$AAe?$AAa?$AAd?$AA?5@ 000000014007aa20     LIBCMTD:crt0msg.obj
 0002:00005a80       ??_C@_1EC@JIBHAOPH@?$AAR?$AA6?$AA0?$AA1?$AA8?$AA?$AN?$AA?6?$AA?9?$AA?5?$AAu?$AAn?$AAe?$AAx?$AAp?$AAe?$AAc?$AAt?$AAe?$AAd?$AA?5?$AAh?$AAe?$AAa?$AAp?$AA?5?$AAe?$AAr?$AAr?$AAo?$AAr?$AA?$AN?$AA?6@ 000000014007aa80     LIBCMTD:crt0msg.obj
 0002:00005ad0       ??_C@_1FC@ECHBIFBC@?$AAR?$AA6?$AA0?$AA1?$AA9?$AA?$AN?$AA?6?$AA?9?$AA?5?$AAu?$AAn?$AAa?$AAb?$AAl?$AAe?$AA?5?$AAt?$AAo?$AA?5?$AAo?$AAp?$AAe?$AAn?$AA?5?$AAc?$AAo?$AAn?$AAs?$AAo?$AAl?$AAe?$AA?5@ 000000014007aad0     LIBCMTD:crt0msg.obj
 0002:00005b30       ??_C@_1GK@FHCKBEFA@?$AAR?$AA6?$AA0?$AA2?$AA4?$AA?$AN?$AA?6?$AA?9?$AA?5?$AAn?$AAo?$AAt?$AA?5?$AAe?$AAn?$AAo?$AAu?$AAg?$AAh?$AA?5?$AAs?$AAp?$AAa?$AAc?$AAe?$AA?5?$AAf?$AAo?$AAr?$AA?5?$AA_?$AAo@ 000000014007ab30     LIBCMTD:crt0msg.obj
 0002:00005ba0       ??_C@_1EM@MAADIHMB@?$AAR?$AA6?$AA0?$AA2?$AA5?$AA?$AN?$AA?6?$AA?9?$AA?5?$AAp?$AAu?$AAr?$AAe?$AA?5?$AAv?$AAi?$AAr?$AAt?$AAu?$AAa?$AAl?$AA?5?$AAf?$AAu?$AAn?$AAc?$AAt?$AAi?$AAo?$AAn?$AA?5?$AAc@ 000000014007aba0     LIBCMTD:crt0msg.obj
 0002:00005bf0       ??_C@_1GK@MCAAGJMO@?$AAR?$AA6?$AA0?$AA2?$AA6?$AA?$AN?$AA?6?$AA?9?$AA?5?$AAn?$AAo?$AAt?$AA?5?$AAe?$AAn?$AAo?$AAu?$AAg?$AAh?$AA?5?$AAs?$AAp?$AAa?$AAc?$AAe?$AA?5?$AAf?$AAo?$AAr?$AA?5?$AAs?$AAt@ 000000014007abf0     LIBCMTD:crt0msg.obj
 0002:00005c60       ??_C@_1GK@MFGOKLAG@?$AAR?$AA6?$AA0?$AA2?$AA7?$AA?$AN?$AA?6?$AA?9?$AA?5?$AAn?$AAo?$AAt?$AA?5?$AAe?$AAn?$AAo?$AAu?$AAg?$AAh?$AA?5?$AAs?$AAp?$AAa?$AAc?$AAe?$AA?5?$AAf?$AAo?$AAr?$AA?5?$AAl?$AAo@ 000000014007ac60     LIBCMTD:crt0msg.obj
 0002:00005cd0       ??_C@_1EK@HHFLMAOL@?$AAR?$AA6?$AA0?$AA2?$AA8?$AA?$AN?$AA?6?$AA?9?$AA?5?$AAu?$AAn?$AAa?$AAb?$AAl?$AAe?$AA?5?$AAt?$AAo?$AA?5?$AAi?$AAn?$AAi?$AAt?$AAi?$AAa?$AAl?$AAi?$AAz?$AAe?$AA?5?$AAh?$AAe@ 000000014007acd0     LIBCMTD:crt0msg.obj
 0002:00005d20       ??_C@_1DO@BMFCDCD@?$AAR?$AA6?$AA0?$AA3?$AA0?$AA?$AN?$AA?6?$AA?9?$AA?5?$AAC?$AAR?$AAT?$AA?5?$AAn?$AAo?$AAt?$AA?5?$AAi?$AAn?$AAi?$AAt?$AAi?$AAa?$AAl?$AAi?$AAz?$AAe?$AAd?$AA?$AN?$AA?6?$AA?$AA@ 000000014007ad20     LIBCMTD:crt0msg.obj
 0002:00005d60       ??_C@_1MG@ENCOOIDF@?$AAR?$AA6?$AA0?$AA3?$AA1?$AA?$AN?$AA?6?$AA?9?$AA?5?$AAA?$AAt?$AAt?$AAe?$AAm?$AAp?$AAt?$AA?5?$AAt?$AAo?$AA?5?$AAi?$AAn?$AAi?$AAt?$AAi?$AAa?$AAl?$AAi?$AAz?$AAe?$AA?5?$AAt@ 000000014007ad60     LIBCMTD:crt0msg.obj
 0002:00005e30       ??_C@_1GG@GOPILAJP@?$AAR?$AA6?$AA0?$AA3?$AA2?$AA?$AN?$AA?6?$AA?9?$AA?5?$AAn?$AAo?$AAt?$AA?5?$AAe?$AAn?$AAo?$AAu?$AAg?$AAh?$AA?5?$AAs?$AAp?$AAa?$AAc?$AAe?$AA?5?$AAf?$AAo?$AAr?$AA?5?$AAl?$AAo@ 000000014007ae30     LIBCMTD:crt0msg.obj
 0002:00005ea0       ??_C@_1BOO@KGEDBGAJ@?$AAR?$AA6?$AA0?$AA3?$AA3?$AA?$AN?$AA?6?$AA?9?$AA?5?$AAA?$AAt?$AAt?$AAe?$AAm?$AAp?$AAt?$AA?5?$AAt?$AAo?$AA?5?$AAu?$AAs?$AAe?$AA?5?$AAM?$AAS?$AAI?$AAL?$AA?5?$AAc?$AAo?$AAd@ 000000014007aea0     LIBCMTD:crt0msg.obj
 0002:00006090       ??_C@_1GG@MKFPEKFO@?$AAR?$AA6?$AA0?$AA3?$AA4?$AA?$AN?$AA?6?$AA?9?$AA?5?$AAi?$AAn?$AAc?$AAo?$AAn?$AAs?$AAi?$AAs?$AAt?$AAe?$AAn?$AAt?$AA?5?$AAo?$AAn?$AAe?$AAx?$AAi?$AAt?$AA?5?$AAb?$AAe?$AAg@ 000000014007b090     LIBCMTD:crt0msg.obj
 0002:000060f8       ??_C@_1BO@BFCDCGC@?$AAD?$AAO?$AAM?$AAA?$AAI?$AAN?$AA?5?$AAe?$AAr?$AAr?$AAo?$AAr?$AA?$AN?$AA?6?$AA?$AA@ 000000014007b0f8     LIBCMTD:crt0msg.obj
 0002:00006118       ??_C@_1BK@KMOMNAAI@?$AAS?$AAI?$AAN?$AAG?$AA?5?$AAe?$AAr?$AAr?$AAo?$AAr?$AA?$AN?$AA?6?$AA?$AA@ 000000014007b118     LIBCMTD:crt0msg.obj
 0002:00006138       ??_C@_1BM@JBBEPPHI@?$AAT?$AAL?$AAO?$AAS?$AAS?$AA?5?$AAe?$AAr?$AAr?$AAo?$AAr?$AA?$AN?$AA?6?$AA?$AA@ 000000014007b138     LIBCMTD:crt0msg.obj
 0002:00006154       ??_C@_15JNBOKNOG@?$AA?$AN?$AA?6?$AA?$AA@ 000000014007b154     LIBCMTD:crt0msg.obj
 0002:00006160       ??_C@_1BO@BKOMIGKJ@?$AAr?$AAu?$AAn?$AAt?$AAi?$AAm?$AAe?$AA?5?$AAe?$AAr?$AAr?$AAo?$AAr?$AA?5?$AA?$AA@ 000000014007b160     LIBCMTD:crt0msg.obj
 0002:00006180       ??_C@_1GM@DBEHMII@?$AAf?$AA?3?$AA?2?$AAd?$AAd?$AA?2?$AAv?$AAc?$AAt?$AAo?$AAo?$AAl?$AAs?$AA?2?$AAc?$AAr?$AAt?$AA_?$AAb?$AAl?$AAd?$AA?2?$AAs?$AAe?$AAl?$AAf?$AA_?$AA6?$AA4?$AA_?$AAa?$AAm@ 000000014007b180     LIBCMTD:crt0msg.obj
 0002:000061f0       ??_C@_1BI@EAHMBMEC@?$AA_?$AAN?$AAM?$AAS?$AAG?$AA_?$AAW?$AAR?$AAI?$AAT?$AAE?$AA?$AA@ 000000014007b1f0     LIBCMTD:crt0msg.obj
 0002:00006210       ??_C@_1KO@BKLCKNFL@?$AAw?$AAc?$AAs?$AAc?$AAp?$AAy?$AA_?$AAs?$AA?$CI?$AAo?$AAu?$AAt?$AAm?$AAs?$AAg?$AA?0?$AA?5?$AA?$CI?$AAs?$AAi?$AAz?$AAe?$AAo?$AAf?$AA?$CI?$AAo?$AAu?$AAt?$AAm?$AAs?$AAg?$AA?$CJ@ 000000014007b210     LIBCMTD:crt0msg.obj
 0002:000062c0       ??_C@_1DE@JNGNBFGO@?$AAR?$AAu?$AAn?$AAt?$AAi?$AAm?$AAe?$AA?5?$AAE?$AAr?$AAr?$AAo?$AAr?$AA?$CB?$AA?6?$AA?6?$AAP?$AAr?$AAo?$AAg?$AAr?$AAa?$AAm?$AA?3?$AA?5?$AA?$AA@ 000000014007b2c0     LIBCMTD:crt0msg.obj
 0002:00006300       ??_C@_1HK@FJJNAABO@?$AAw?$AAc?$AAs?$AAc?$AAp?$AAy?$AA_?$AAs?$AA?$CI?$AAp?$AAr?$AAo?$AAg?$AAn?$AAa?$AAm?$AAe?$AA?0?$AA?5?$AAp?$AAr?$AAo?$AAg?$AAn?$AAa?$AAm?$AAe?$AA_?$AAs?$AAi?$AAz?$AAe@ 000000014007b300     LIBCMTD:crt0msg.obj
 0002:00006380       ??_C@_1HI@FLHKGEBE@?$AAw?$AAc?$AAs?$AAn?$AAc?$AAp?$AAy?$AA_?$AAs?$AA?$CI?$AAp?$AAc?$AAh?$AA?0?$AA?5?$AAp?$AAr?$AAo?$AAg?$AAn?$AAa?$AAm?$AAe?$AA_?$AAs?$AAi?$AAz?$AAe?$AA?5?$AA?9?$AA?5?$AA?$CI@ 000000014007b380     LIBCMTD:crt0msg.obj
 0002:00006400       ??_C@_1IA@DCJGKHFO@?$AAw?$AAc?$AAs?$AAc?$AAa?$AAt?$AA_?$AAs?$AA?$CI?$AAo?$AAu?$AAt?$AAm?$AAs?$AAg?$AA?0?$AA?5?$AA?$CI?$AAs?$AAi?$AAz?$AAe?$AAo?$AAf?$AA?$CI?$AAo?$AAu?$AAt?$AAm?$AAs?$AAg?$AA?$CJ@ 000000014007b400     LIBCMTD:crt0msg.obj
 0002:00006480       ??_C@_1IG@NMONDPP@?$AAw?$AAc?$AAs?$AAc?$AAa?$AAt?$AA_?$AAs?$AA?$CI?$AAo?$AAu?$AAt?$AAm?$AAs?$AAg?$AA?0?$AA?5?$AA?$CI?$AAs?$AAi?$AAz?$AAe?$AAo?$AAf?$AA?$CI?$AAo?$AAu?$AAt?$AAm?$AAs?$AAg?$AA?$CJ@ 000000014007b480     LIBCMTD:crt0msg.obj
 0002:00006508       ??_C@_0DH@IHLNMPAN@f?3?2dd?2vctools?2crt_bld?2self_64_am@ 000000014007b508     LIBCMTD:inithelp.obj
 0002:00006540       ??_C@_1GO@GMNCABKN@?$AAf?$AA?3?$AA?2?$AAd?$AAd?$AA?2?$AAv?$AAc?$AAt?$AAo?$AAo?$AAl?$AAs?$AA?2?$AAc?$AAr?$AAt?$AA_?$AAb?$AAl?$AAd?$AA?2?$AAs?$AAe?$AAl?$AAf?$AA_?$AA6?$AA4?$AA_?$AAa?$AAm@ 000000014007b540     LIBCMTD:inithelp.obj
 0002:000065b0       ??_C@_1CA@KHHCPEI@?$AA_?$AA_?$AAg?$AAe?$AAt?$AAl?$AAo?$AAc?$AAa?$AAl?$AAe?$AAi?$AAn?$AAf?$AAo?$AA?$AA@ 000000014007b5b0     LIBCMTD:inithelp.obj
 0002:000065d0       ??_C@_1GO@NGIGJNHH@?$AAs?$AAt?$AAr?$AAn?$AAc?$AAp?$AAy?$AA_?$AAs?$AA?$CI?$AA?$CK?$AAs?$AAt?$AAr?$AAa?$AAd?$AAd?$AAr?$AAe?$AAs?$AAs?$AA?0?$AA?5?$AAo?$AAu?$AAt?$AAs?$AAi?$AAz?$AAe?$AA?0?$AA?5@ 000000014007b5d0     LIBCMTD:inithelp.obj
 0002:00006640       ??_C@_1GO@IECEPLPI@?$AAf?$AA?3?$AA?2?$AAd?$AAd?$AA?2?$AAv?$AAc?$AAt?$AAo?$AAo?$AAl?$AAs?$AA?2?$AAc?$AAr?$AAt?$AA_?$AAb?$AAl?$AAd?$AA?2?$AAs?$AAe?$AAl?$AAf?$AA_?$AA6?$AA4?$AA_?$AAa?$AAm@ 000000014007b640     LIBCMTD:dbgdel.obj
 0002:000066b0       ??_C@_1CK@GELGGBDK@?$AAp?$AAN?$AAo?$AAd?$AAe?$AA?9?$AA?$DO?$AA_?$AAN?$AAe?$AAx?$AAt?$AA?5?$AA?$CB?$AA?$DN?$AA?5?$AAN?$AAU?$AAL?$AAL?$AA?$AA@ 000000014007b6b0     LIBCMTD:typname.obj
 0002:000066e0       ??_C@_1IA@CLCNOEMA@?$AAf?$AA?3?$AA?2?$AAd?$AAd?$AA?2?$AAv?$AAc?$AAt?$AAo?$AAo?$AAl?$AAs?$AA?2?$AAc?$AAr?$AAt?$AA_?$AAb?$AAl?$AAd?$AA?2?$AAs?$AAe?$AAl?$AAf?$AA_?$AA6?$AA4?$AA_?$AAa?$AAm@ 000000014007b6e0     LIBCMTD:typname.obj
 0002:00006760       ??_C@_1CM@OOICDMK@?$AAt?$AAy?$AAp?$AAe?$AA_?$AAi?$AAn?$AAf?$AAo?$AA?3?$AA?3?$AA_?$AAN?$AAa?$AAm?$AAe?$AA_?$AAb?$AAa?$AAs?$AAe?$AA?$AA@ 000000014007b760     LIBCMTD:typname.obj
 0002:00006790       ??_C@_1JK@NAFNEPGC@?$AAs?$AAt?$AAr?$AAc?$AAp?$AAy?$AA_?$AAs?$AA?5?$AA?$CI?$AA?$CI?$AAc?$AAh?$AAa?$AAr?$AA?5?$AA?$CK?$AA?$CJ?$AA?$CI?$AA?$CI?$AAt?$AAy?$AAp?$AAe?$AA_?$AAi?$AAn?$AAf?$AAo?$AA?5?$AA?$CK?$AA?$CJ@ 000000014007b790     LIBCMTD:typname.obj
 0002:00006830       ??_C@_1DO@OJJLFJPE@?$AAt?$AAy?$AAp?$AAe?$AA_?$AAi?$AAn?$AAf?$AAo?$AA?3?$AA?3?$AA_?$AAN?$AAa?$AAm?$AAe?$AA_?$AAb?$AAa?$AAs?$AAe?$AA_?$AAi?$AAn?$AAt?$AAe?$AAr?$AAn?$AAa?$AAl?$AA?$AA@ 000000014007b830     LIBCMTD:typname.obj
 0002:00006870       ??_C@_1GI@EAJKJPED@?$AAs?$AAt?$AAr?$AAc?$AAp?$AAy?$AA_?$AAs?$AA?5?$AA?$CI?$AAp?$AAT?$AAm?$AAp?$AAT?$AAy?$AAp?$AAe?$AAN?$AAa?$AAm?$AAe?$AA?0?$AA?5?$AAl?$AAe?$AAn?$AA?$CL?$AA2?$AA?0?$AA?5?$AA?$CI@ 000000014007b870     LIBCMTD:typname.obj
 0002:000068e0       _XcptActTab                000000014007b8e0     LIBCMTD:winxfltr.obj
 0002:000069a0       _XcptActTabCount           000000014007b9a0     LIBCMTD:winxfltr.obj
 0002:000069a4       _XcptActTabSize            000000014007b9a4     LIBCMTD:winxfltr.obj
 0002:000069a8       _First_FPE_Indx            000000014007b9a8     LIBCMTD:winxfltr.obj
 0002:000069ac       _Num_FPE                   000000014007b9ac     LIBCMTD:winxfltr.obj
 0002:000069b0       ??_C@_0DH@BOBGGICJ@f?3?2dd?2vctools?2crt_bld?2self_64_am@ 000000014007b9b0     LIBCMTD:tidtable.obj
 0002:000069e8       ??_C@_1BI@BGOHAHKC@?$AAm?$AAs?$AAc?$AAo?$AAr?$AAe?$AAe?$AA?4?$AAd?$AAl?$AAl?$AA?$AA@ 000000014007b9e8     LIBCMTD:crt0dat.obj
 0002:00006a00       ??_C@_0P@MIGLKIOC@CorExitProcess?$AA@ 000000014007ba00     LIBCMTD:crt0dat.obj
 0002:00006a10       ??_C@_1GM@EPNCCBAE@?$AAf?$AA?3?$AA?2?$AAd?$AAd?$AA?2?$AAv?$AAc?$AAt?$AAo?$AAo?$AAl?$AAs?$AA?2?$AAc?$AAr?$AAt?$AA_?$AAb?$AAl?$AAd?$AA?2?$AAs?$AAe?$AAl?$AAf?$AA_?$AA6?$AA4?$AA_?$AAa?$AAm@ 000000014007ba10     LIBCMTD:crt0dat.obj
 0002:00006a80       ??_C@_1BK@PNLDCCDP@?$AA_?$AAg?$AAe?$AAt?$AA_?$AAw?$AAp?$AAg?$AAm?$AAp?$AAt?$AAr?$AA?$AA@ 000000014007ba80     LIBCMTD:crt0dat.obj
 0002:00006aa0       ??_C@_1CC@CDIPMFPD@?$AA_?$AAw?$AAp?$AAg?$AAm?$AAp?$AAt?$AAr?$AA?5?$AA?$CB?$AA?$DN?$AA?5?$AAN?$AAU?$AAL?$AAL?$AA?$AA@ 000000014007baa0     LIBCMTD:crt0dat.obj
 0002:00006ac8       ??_C@_1BI@COAAPHJK@?$AA_?$AAg?$AAe?$AAt?$AA_?$AAp?$AAg?$AAm?$AAp?$AAt?$AAr?$AA?$AA@ 000000014007bac8     LIBCMTD:crt0dat.obj
 0002:00006ae0       ??_C@_1CA@BBNAFCKO@?$AA_?$AAp?$AAg?$AAm?$AAp?$AAt?$AAr?$AA?5?$AA?$CB?$AA?$DN?$AA?5?$AAN?$AAU?$AAL?$AAL?$AA?$AA@ 000000014007bae0     LIBCMTD:crt0dat.obj
 0002:00006b00       ??_C@_1BK@DJNILIMN@?$AAp?$AAa?$AAt?$AAh?$AA?5?$AA?$CB?$AA?$DN?$AA?5?$AAN?$AAU?$AAL?$AAL?$AA?$AA@ 000000014007bb00     LIBCMTD:crt0dat.obj
 0002:00006b20       ??_C@_1DG@KANBJOCK@?$AA_?$AA_?$AAc?$AAo?$AAp?$AAy?$AA_?$AAp?$AAa?$AAt?$AAh?$AA_?$AAt?$AAo?$AA_?$AAw?$AAi?$AAd?$AAe?$AA_?$AAs?$AAt?$AAr?$AAi?$AAn?$AAg?$AA?$AA@ 000000014007bb20     LIBCMTD:crt0dat.obj
 0002:00006b58       ??_C@_1CA@BGODLPHH@?$AAo?$AAu?$AAt?$AAP?$AAa?$AAt?$AAh?$AA?5?$AA?$CB?$AA?$DN?$AA?5?$AAN?$AAU?$AAL?$AAL?$AA?$AA@ 000000014007bb58     LIBCMTD:crt0dat.obj
 0002:00006b78       ??_C@_0DG@FPOBJAHG@f?3?2dd?2vctools?2crt_bld?2self_64_am@ 000000014007bb78     LIBCMTD:crt0dat.obj
 0002:00006bb0       ??_C@_1BC@DENNNKIM@?$AA_?$AAc?$AAr?$AAt?$AAh?$AAe?$AAa?$AAp?$AA?$AA@ 000000014007bbb0     LIBCMTD:heapinit.obj
 0002:00006bd0       ??_C@_1GO@EBGJMFI@?$AAf?$AA?3?$AA?2?$AAd?$AAd?$AA?2?$AAv?$AAc?$AAt?$AAo?$AAo?$AAl?$AAs?$AA?2?$AAc?$AAr?$AAt?$AA_?$AAb?$AAl?$AAd?$AA?2?$AAs?$AAe?$AAl?$AAf?$AA_?$AA6?$AA4?$AA_?$AAa?$AAm@ 000000014007bbd0     LIBCMTD:heapinit.obj
 0002:00006c40       ??_C@_0DG@CIKGHJB@f?3?2dd?2vctools?2crt_bld?2self_64_am@ 000000014007bc40     LIBCMTD:stdargv.obj
 0002:00006c78       ??_C@_0DG@PKDKGAIM@f?3?2dd?2vctools?2crt_bld?2self_64_am@ 000000014007bc78     LIBCMTD:stdenvp.obj
 0002:00006cb0       ??_C@_1GM@EPOINBMA@?$AAf?$AA?3?$AA?2?$AAd?$AAd?$AA?2?$AAv?$AAc?$AAt?$AAo?$AAo?$AAl?$AAs?$AA?2?$AAc?$AAr?$AAt?$AA_?$AAb?$AAl?$AAd?$AA?2?$AAs?$AAe?$AAl?$AAf?$AA_?$AA6?$AA4?$AA_?$AAa?$AAm@ 000000014007bcb0     LIBCMTD:stdenvp.obj
 0002:00006d20       ??_C@_1BC@GHMCNHHL@?$AA_?$AAs?$AAe?$AAt?$AAe?$AAn?$AAv?$AAp?$AA?$AA@ 000000014007bd20     LIBCMTD:stdenvp.obj
 0002:00006d38       ??_C@_1DE@MMOGFGHF@?$AAs?$AAt?$AAr?$AAc?$AAp?$AAy?$AA_?$AAs?$AA?$CI?$AA?$CK?$AAe?$AAn?$AAv?$AA?0?$AA?5?$AAc?$AAc?$AAh?$AAa?$AAr?$AAs?$AA?0?$AA?5?$AAp?$AA?$CJ?$AA?$AA@ 000000014007bd38     LIBCMTD:stdenvp.obj
 0002:00006d70       ??_C@_1DE@BCNCAIK@?$AA?$CI?$AA?$CC?$AAI?$AAn?$AAv?$AAa?$AAl?$AAi?$AAd?$AA?5?$AAe?$AAr?$AAr?$AAo?$AAr?$AA_?$AAm?$AAo?$AAd?$AAe?$AA?$CC?$AA?0?$AA?5?$AA0?$AA?$CJ?$AA?$AA@ 000000014007bd70     LIBCMTD:errmode.obj
 0002:00006db0       ??_C@_1GM@CPDLDAAM@?$AAf?$AA?3?$AA?2?$AAd?$AAd?$AA?2?$AAv?$AAc?$AAt?$AAo?$AAo?$AAl?$AAs?$AA?2?$AAc?$AAr?$AAt?$AA_?$AAb?$AAl?$AAd?$AA?2?$AAs?$AAe?$AAl?$AAf?$AA_?$AA6?$AA4?$AA_?$AAa?$AAm@ 000000014007bdb0     LIBCMTD:errmode.obj
 0002:00006e20       ??_C@_1CA@LFDHAMEM@?$AA_?$AAs?$AAe?$AAt?$AA_?$AAe?$AAr?$AAr?$AAo?$AAr?$AA_?$AAm?$AAo?$AAd?$AAe?$AA?$AA@ 000000014007be20     LIBCMTD:errmode.obj
 0002:00006e40       ??_C@_0DE@ONNEBBOK@f?3?2dd?2vctools?2crt_bld?2self_64_am@ 000000014007be40     LIBCMTD:a_env.obj
 0002:00006e78       ??_C@_0BE@JOGNEJCI@GetCurrentPackageId?$AA@ 000000014007be78     LIBCMTD:winapisupp.obj
 0002:00006e90       ??_C@_1BK@MGMFAEKH@?$AAk?$AAe?$AAr?$AAn?$AAe?$AAl?$AA3?$AA2?$AA?4?$AAd?$AAl?$AAl?$AA?$AA@ 000000014007be90     LIBCMTD:winapisupp.obj
 0002:00006eaa       ??_C@_00CNPNBAHC@?$AA@     000000014007beaa     LIBCMTD:wincmdln.obj
 0002:00006eb0       ??_C@_1GK@NBOOCPHJ@?$AAf?$AA?3?$AA?2?$AAd?$AAd?$AA?2?$AAv?$AAc?$AAt?$AAo?$AAo?$AAl?$AAs?$AA?2?$AAc?$AAr?$AAt?$AA_?$AAb?$AAl?$AAd?$AA?2?$AAs?$AAe?$AAl?$AAf?$AA_?$AA6?$AA4?$AA_?$AAa?$AAm@ 000000014007beb0     LIBCMTD:isatty.obj
 0002:00006f20       ??_C@_1BA@LEBDGIHM@?$AA_?$AAi?$AAs?$AAa?$AAt?$AAt?$AAy?$AA?$AA@ 000000014007bf20     LIBCMTD:isatty.obj
 0002:00006f30       ??_C@_1GM@EDDLLPPP@?$AAf?$AA?3?$AA?2?$AAd?$AAd?$AA?2?$AAv?$AAc?$AAt?$AAo?$AAo?$AAl?$AAs?$AA?2?$AAc?$AAr?$AAt?$AA_?$AAb?$AAl?$AAd?$AA?2?$AAs?$AAe?$AAl?$AAf?$AA_?$AA6?$AA4?$AA_?$AAa?$AAm@ 000000014007bf30     LIBCMTD:_getbuf.obj
 0002:00006fa0       ??_C@_0DG@HCAFNIGK@f?3?2dd?2vctools?2crt_bld?2self_64_am@ 000000014007bfa0     LIBCMTD:_getbuf.obj
 0002:00006ff0       ??_C@_1FC@PFMLEHKI@?$AA?$CI?$AA?$CI?$AA_?$AAD?$AAs?$AAt?$AA?$CJ?$AA?$CJ?$AA?5?$AA?$CB?$AA?$DN?$AA?5?$AAN?$AAU?$AAL?$AAL?$AA?5?$AA?$CG?$AA?$CG?$AA?5?$AA?$CI?$AA?$CI?$AA_?$AAS?$AAi?$AAz?$AAe?$AAI?$AAn?$AAW?$AAo?$AAr@ 000000014007bff0     LIBCMTD:wcscpy_s.obj
 0002:00007050       ??_C@_1HC@HEGDJOLJ@?$AAf?$AA?3?$AA?2?$AAd?$AAd?$AA?2?$AAv?$AAc?$AAt?$AAo?$AAo?$AAl?$AAs?$AA?2?$AAc?$AAr?$AAt?$AA_?$AAb?$AAl?$AAd?$AA?2?$AAs?$AAe?$AAl?$AAf?$AA_?$AA6?$AA4?$AA_?$AAa?$AAm@ 000000014007c050     LIBCMTD:wcscpy_s.obj
 0002:000070c8       ??_C@_1BC@KIONAFPO@?$AAw?$AAc?$AAs?$AAc?$AAp?$AAy?$AA_?$AAs?$AA?$AA@ 000000014007c0c8     LIBCMTD:wcscpy_s.obj
 0002:000070e0       ??_C@_1CG@OFBJMIGJ@?$AA?$CI?$AA?$CI?$AA?$CI?$AA_?$AAS?$AAr?$AAc?$AA?$CJ?$AA?$CJ?$AA?$CJ?$AA?5?$AA?$CB?$AA?$DN?$AA?5?$AAN?$AAU?$AAL?$AAL?$AA?$AA@ 000000014007c0e0     LIBCMTD:wcscpy_s.obj
 0002:00007108       ??_C@_1CI@HCPHDDLE@?$AAB?$AAu?$AAf?$AAf?$AAe?$AAr?$AA?5?$AAi?$AAs?$AA?5?$AAt?$AAo?$AAo?$AA?5?$AAs?$AAm?$AAa?$AAl?$AAl?$AA?$AA@ 000000014007c108     LIBCMTD:wcscpy_s.obj
 0002:00007130       ??_C@_1DM@MADKGDLO@?$AA?$CI?$AAL?$AA?$CC?$AAB?$AAu?$AAf?$AAf?$AAe?$AAr?$AA?5?$AAi?$AAs?$AA?5?$AAt?$AAo?$AAo?$AA?5?$AAs?$AAm?$AAa?$AAl?$AAl?$AA?$CC?$AA?5?$AA?$CG?$AA?$CG?$AA?5?$AA0?$AA?$CJ?$AA?$AA@ 000000014007c130     LIBCMTD:wcscpy_s.obj
 0002:00007170       ??_C@_0DE@NIIINDPP@f?3?2dd?2vctools?2crt_bld?2self_64_am@ 000000014007c170     LIBCMTD:mlock.obj
 0002:000071b0       ??_C@_1GO@KNENHDGE@?$AAf?$AA?3?$AA?2?$AAd?$AAd?$AA?2?$AAv?$AAc?$AAt?$AAo?$AAo?$AAl?$AAs?$AA?2?$AAc?$AAr?$AAt?$AA_?$AAb?$AAl?$AAd?$AA?2?$AAs?$AAe?$AAl?$AAf?$AA_?$AA6?$AA4?$AA_?$AAa?$AAm@ 000000014007c1b0     LIBCMTD:swprintf.obj
 0002:00007220       ??_C@_1BE@BMIJMLDD@?$AA_?$AAs?$AAw?$AAp?$AAr?$AAi?$AAn?$AAt?$AAf?$AA?$AA@ 000000014007c220     LIBCMTD:swprintf.obj
 0002:00007238       ??_C@_0DF@FDDLMKNK@f?3?2dd?2vctools?2crt_bld?2self_64_am@ 000000014007c238     LIBCMTD:winsig.obj
 0002:00007270       ??_C@_1DO@MLNEDKGB@?$AA?$CI?$AA?$CC?$AAI?$AAn?$AAv?$AAa?$AAl?$AAi?$AAd?$AA?5?$AAs?$AAi?$AAg?$AAn?$AAa?$AAl?$AA?5?$AAo?$AAr?$AA?5?$AAe?$AAr?$AAr?$AAo?$AAr?$AA?$CC?$AA?0?$AA?5?$AA0?$AA?$CJ?$AA?$AA@ 000000014007c270     LIBCMTD:winsig.obj
 0002:000072b0       ??_C@_1GK@GNJJJBGC@?$AAf?$AA?3?$AA?2?$AAd?$AAd?$AA?2?$AAv?$AAc?$AAt?$AAo?$AAo?$AAl?$AAs?$AA?2?$AAc?$AAr?$AAt?$AA_?$AAb?$AAl?$AAd?$AA?2?$AAs?$AAe?$AAl?$AAf?$AA_?$AA6?$AA4?$AA_?$AAa?$AAm@ 000000014007c2b0     LIBCMTD:winsig.obj
 0002:00007320       ??_C@_1O@EJLDHPPL@?$AAs?$AAi?$AAg?$AAn?$AAa?$AAl?$AA?$AA@ 000000014007c320     LIBCMTD:winsig.obj
 0002:00007330       ??_C@_1M@DMJEIKHL@?$AAr?$AAa?$AAi?$AAs?$AAe?$AA?$AA@ 000000014007c330     LIBCMTD:winsig.obj
 0002:00007340       ??_C@_1BG@GOEBHBDC@?$AAU?$AAS?$AAE?$AAR?$AA3?$AA2?$AA?4?$AAD?$AAL?$AAL?$AA?$AA@ 000000014007c340     LIBCMTD:crtmboxw.obj
 0002:00007358       ??_C@_0M@DLDCCGNP@MessageBoxW?$AA@ 000000014007c358     LIBCMTD:crtmboxw.obj
 0002:00007368       ??_C@_0BA@HNOPNCHB@GetActiveWindow?$AA@ 000000014007c368     LIBCMTD:crtmboxw.obj
 0002:00007378       ??_C@_0BD@HHGDFDBJ@GetLastActivePopup?$AA@ 000000014007c378     LIBCMTD:crtmboxw.obj
 0002:00007390       ??_C@_0BK@DEKFELLI@GetUserObjectInformationW?$AA@ 000000014007c390     LIBCMTD:crtmboxw.obj
 0002:000073b0       ??_C@_0BI@DFKBFLJE@GetProcessWindowStation?$AA@ 000000014007c3b0     LIBCMTD:crtmboxw.obj
 0002:000073d0       ??_C@_1FA@IFFFOLDJ@?$AAn?$AAR?$AAp?$AAt?$AAT?$AAy?$AAp?$AAe?$AA?5?$AA?$DO?$AA?$DN?$AA?5?$AA0?$AA?5?$AA?$CG?$AA?$CG?$AA?5?$AAn?$AAR?$AAp?$AAt?$AAT?$AAy?$AAp?$AAe?$AA?5?$AA?$DM?$AA?5?$AA_?$AAC?$AAR?$AAT@ 000000014007c3d0     LIBCMTD:dbgrptt.obj
 0002:00007420       ??_C@_1GM@CBJEPOJA@?$AAf?$AA?3?$AA?2?$AAd?$AAd?$AA?2?$AAv?$AAc?$AAt?$AAo?$AAo?$AAl?$AAs?$AA?2?$AAc?$AAr?$AAt?$AA_?$AAb?$AAl?$AAd?$AA?2?$AAs?$AAe?$AAl?$AAf?$AA_?$AA6?$AA4?$AA_?$AAa?$AAm@ 000000014007c420     LIBCMTD:dbgrptt.obj
 0002:00007490       ??_C@_1CE@FIHIECNJ@?$AA_?$AAC?$AAr?$AAt?$AAS?$AAe?$AAt?$AAR?$AAe?$AAp?$AAo?$AAr?$AAt?$AAM?$AAo?$AAd?$AAe?$AA?$AA@ 000000014007c490     LIBCMTD:dbgrptt.obj
 0002:000074c0       ??_C@_1NK@LOFHIHFC@?$AAf?$AAM?$AAo?$AAd?$AAe?$AA?5?$AA?$DN?$AA?$DN?$AA?5?$AA_?$AAC?$AAR?$AAT?$AAD?$AAB?$AAG?$AA_?$AAR?$AAE?$AAP?$AAO?$AAR?$AAT?$AA_?$AAM?$AAO?$AAD?$AAE?$AA?5?$AA?$HM?$AA?$HM?$AA?5@ 000000014007c4c0     LIBCMTD:dbgrptt.obj
 0002:000075a0       ??_C@_1CE@IKKEDCME@?$AA_?$AAC?$AAr?$AAt?$AAS?$AAe?$AAt?$AAR?$AAe?$AAp?$AAo?$AAr?$AAt?$AAF?$AAi?$AAl?$AAe?$AA?$AA@ 000000014007c5a0     LIBCMTD:dbgrptt.obj
 0002:000075c8       ??_C@_1CA@KHJHLKA@?$AA_?$AAV?$AAC?$AAr?$AAt?$AAD?$AAb?$AAg?$AAR?$AAe?$AAp?$AAo?$AAr?$AAt?$AAA?$AA?$AA@ 000000014007c5c8     LIBCMTD:dbgrptt.obj
 0002:000075f0       ??_C@_1FA@JPHJBHEM@?$AA_?$AAi?$AAt?$AAo?$AAa?$AA_?$AAs?$AA?$CI?$AAn?$AAL?$AAi?$AAn?$AAe?$AA?0?$AA?5?$AAs?$AAz?$AAL?$AAi?$AAn?$AAe?$AAM?$AAe?$AAs?$AAs?$AAa?$AAg?$AAe?$AA?0?$AA?5?$AA4?$AA0@ 000000014007c5f0     LIBCMTD:dbgrptt.obj
 0002:00007640       ??_C@_0CG@BNGLOCEO@Second?5Chance?5Assertion?5Failed?3?5@ 000000014007c640     LIBCMTD:dbgrptt.obj
 0002:00007668       ??_C@_0P@DFJNDPOP@?$DMfile?5unknown?$DO?$AA@ 000000014007c668     LIBCMTD:dbgrptt.obj
 0002:00007678       ??_C@_07BHGABMGB@?0?5Line?5?$AA@ 000000014007c678     LIBCMTD:dbgrptt.obj
 0002:00007680       ??_C@_01EEMJAFIK@?6?$AA@   000000014007c680     LIBCMTD:dbgrptt.obj
 0002:00007690       ??_C@_1JI@GAALPGBM@?$AAs?$AAt?$AAr?$AAc?$AAp?$AAy?$AA_?$AAs?$AA?$CI?$AAs?$AAz?$AAU?$AAs?$AAe?$AAr?$AAM?$AAe?$AAs?$AAs?$AAa?$AAg?$AAe?$AA?0?$AA?5?$AA4?$AA0?$AA9?$AA6?$AA?0?$AA?5?$AA?$CC?$AA_@ 000000014007c690     LIBCMTD:dbgrptt.obj
 0002:00007728       ??_C@_0CL@EACFGMNB@_CrtDbgReport?3?5String?5too?5long?5o@ 000000014007c728     LIBCMTD:dbgrptt.obj
 0002:00007760       ??_C@_1KK@GIGAEDMO@?$AAs?$AAt?$AAr?$AAc?$AAp?$AAy?$AA_?$AAs?$AA?$CI?$AAs?$AAz?$AAL?$AAi?$AAn?$AAe?$AAM?$AAe?$AAs?$AAs?$AAa?$AAg?$AAe?$AA?0?$AA?5?$AA4?$AA0?$AA9?$AA6?$AA?0?$AA?5?$AAs?$AAz@ 000000014007c760     LIBCMTD:dbgrptt.obj
 0002:00007810       ??_C@_0BD@CAENFOHP@Assertion?5failed?3?5?$AA@ 000000014007c810     LIBCMTD:dbgrptt.obj
 0002:00007828       ??_C@_0BC@LAIDCHCH@Assertion?5failed?$CB?$AA@ 000000014007c828     LIBCMTD:dbgrptt.obj
 0002:00007840       ??_C@_1FK@NPGBPOFO@?$AAs?$AAt?$AAr?$AAc?$AAa?$AAt?$AA_?$AAs?$AA?$CI?$AAs?$AAz?$AAL?$AAi?$AAn?$AAe?$AAM?$AAe?$AAs?$AAs?$AAa?$AAg?$AAe?$AA?0?$AA?5?$AA4?$AA0?$AA9?$AA6?$AA?0?$AA?5?$AAs?$AAz@ 000000014007c840     LIBCMTD:dbgrptt.obj
 0002:000078a0       ??_C@_1EI@CACDLAFK@?$AAs?$AAt?$AAr?$AAc?$AAa?$AAt?$AA_?$AAs?$AA?$CI?$AAs?$AAz?$AAL?$AAi?$AAn?$AAe?$AAM?$AAe?$AAs?$AAs?$AAa?$AAg?$AAe?$AA?0?$AA?5?$AA4?$AA0?$AA9?$AA6?$AA?0?$AA?5?$AA?$CC?$AA?2@ 000000014007c8a0     LIBCMTD:dbgrptt.obj
 0002:000078e8       ??_C@_01LIIJDEN@?$AN?$AA@  000000014007c8e8     LIBCMTD:dbgrptt.obj
 0002:000078f0       ??_C@_1EI@LDHJEDO@?$AAs?$AAt?$AAr?$AAc?$AAa?$AAt?$AA_?$AAs?$AA?$CI?$AAs?$AAz?$AAL?$AAi?$AAn?$AAe?$AAM?$AAe?$AAs?$AAs?$AAa?$AAg?$AAe?$AA?0?$AA?5?$AA4?$AA0?$AA9?$AA6?$AA?0?$AA?5?$AA?$CC?$AA?2@ 000000014007c8f0     LIBCMTD:dbgrptt.obj
 0002:00007938       ??_C@_0M@IPILFDFN@?$CFs?$CI?$CFd?$CJ?5?3?5?$CFs?$AA@ 000000014007c938     LIBCMTD:dbgrptt.obj
 0002:00007950       ??_C@_1JG@CPKCIOEE@?$AAs?$AAt?$AAr?$AAc?$AAp?$AAy?$AA_?$AAs?$AA?$CI?$AAs?$AAz?$AAO?$AAu?$AAt?$AAM?$AAe?$AAs?$AAs?$AAa?$AAg?$AAe?$AA?0?$AA?5?$AA4?$AA0?$AA9?$AA6?$AA?0?$AA?5?$AA?$CC?$AA_?$AAC@ 000000014007c950     LIBCMTD:dbgrptt.obj
 0002:000079f0       ??_C@_1FI@IBIOIHEG@?$AAs?$AAt?$AAr?$AAc?$AAp?$AAy?$AA_?$AAs?$AA?$CI?$AAs?$AAz?$AAO?$AAu?$AAt?$AAM?$AAe?$AAs?$AAs?$AAa?$AAg?$AAe?$AA?0?$AA?5?$AA4?$AA0?$AA9?$AA6?$AA?0?$AA?5?$AAs?$AAz?$AAL@ 000000014007c9f0     LIBCMTD:dbgrptt.obj
 0002:00007a50       ??_C@_1IM@OOKIFKOH@?$AAe?$AA?5?$AA?$DN?$AA?5?$AAm?$AAb?$AAs?$AAt?$AAo?$AAw?$AAc?$AAs?$AA_?$AAs?$AA?$CI?$AA?$CG?$AAr?$AAe?$AAt?$AA?0?$AA?5?$AAs?$AAz?$AAO?$AAu?$AAt?$AAM?$AAe?$AAs?$AAs?$AAa?$AAg@ 000000014007ca50     LIBCMTD:dbgrptt.obj
 0002:00007ae0       ??_C@_1MC@IGEECMDB@?$AAw?$AAc?$AAs?$AAc?$AAp?$AAy?$AA_?$AAs?$AA?$CI?$AAs?$AAz?$AAO?$AAu?$AAt?$AAM?$AAe?$AAs?$AAs?$AAa?$AAg?$AAe?$AA2?$AA?0?$AA?5?$AA4?$AA0?$AA9?$AA6?$AA?0?$AA?5?$AAL?$AA?$CC@ 000000014007cae0     LIBCMTD:dbgrptt.obj
 0002:00007bb0       ??_C@_1HO@PJOFIKFE@?$AA_?$AAC?$AAr?$AAt?$AAD?$AAb?$AAg?$AAR?$AAe?$AAp?$AAo?$AAr?$AAt?$AA?3?$AA?5?$AAS?$AAt?$AAr?$AAi?$AAn?$AAg?$AA?5?$AAt?$AAo?$AAo?$AA?5?$AAl?$AAo?$AAn?$AAg?$AA?5?$AAo@ 000000014007cbb0     LIBCMTD:dbgrptt.obj
 0002:00007c30       ??_C@_1CA@HPALHDOD@?$AA_?$AAV?$AAC?$AAr?$AAt?$AAD?$AAb?$AAg?$AAR?$AAe?$AAp?$AAo?$AAr?$AAt?$AAW?$AA?$AA@ 000000014007cc30     LIBCMTD:dbgrptt.obj
 0002:00007c50       ??_C@_1FA@CNLLOMHI@?$AA_?$AAi?$AAt?$AAo?$AAw?$AA_?$AAs?$AA?$CI?$AAn?$AAL?$AAi?$AAn?$AAe?$AA?0?$AA?5?$AAs?$AAz?$AAL?$AAi?$AAn?$AAe?$AAM?$AAe?$AAs?$AAs?$AAa?$AAg?$AAe?$AA?0?$AA?5?$AA4?$AA0@ 000000014007cc50     LIBCMTD:dbgrptt.obj
 0002:00007ca0       ??_C@_1EM@MJFLEDMB@?$AAS?$AAe?$AAc?$AAo?$AAn?$AAd?$AA?5?$AAC?$AAh?$AAa?$AAn?$AAc?$AAe?$AA?5?$AAA?$AAs?$AAs?$AAe?$AAr?$AAt?$AAi?$AAo?$AAn?$AA?5?$AAF?$AAa?$AAi?$AAl?$AAe?$AAd?$AA?3?$AA?5@ 000000014007cca0     LIBCMTD:dbgrptt.obj
 0002:00007cf0       ??_C@_1BO@OCHMLCAG@?$AA?$DM?$AAf?$AAi?$AAl?$AAe?$AA?5?$AAu?$AAn?$AAk?$AAn?$AAo?$AAw?$AAn?$AA?$DO?$AA?$AA@ 000000014007ccf0     LIBCMTD:dbgrptt.obj
 0002:00007d10       ??_C@_1BA@ELMMDCFC@?$AA?0?$AA?5?$AAL?$AAi?$AAn?$AAe?$AA?5?$AA?$AA@ 000000014007cd10     LIBCMTD:dbgrptt.obj
 0002:00007d20       ??_C@_13LBAGMAIH@?$AA?6?$AA?$AA@ 000000014007cd20     LIBCMTD:dbgrptt.obj
 0002:00007d30       ??_C@_1JK@KHFABAEO@?$AAw?$AAc?$AAs?$AAc?$AAp?$AAy?$AA_?$AAs?$AA?$CI?$AAs?$AAz?$AAU?$AAs?$AAe?$AAr?$AAM?$AAe?$AAs?$AAs?$AAa?$AAg?$AAe?$AA?0?$AA?5?$AA4?$AA0?$AA9?$AA6?$AA?0?$AA?5?$AAL?$AA?$CC@ 000000014007cd30     LIBCMTD:dbgrptt.obj
 0002:00007dd0       ??_C@_1KO@DGAHENCH@?$AAw?$AAc?$AAs?$AAc?$AAp?$AAy?$AA_?$AAs?$AA?$CI?$AAs?$AAz?$AAL?$AAi?$AAn?$AAe?$AAM?$AAe?$AAs?$AAs?$AAa?$AAg?$AAe?$AA?0?$AA?5?$AA4?$AA0?$AA9?$AA6?$AA?0?$AA?5?$AAs?$AAz@ 000000014007cdd0     LIBCMTD:dbgrptt.obj
 0002:00007e80       ??_C@_1CG@FFFGGODN@?$AAA?$AAs?$AAs?$AAe?$AAr?$AAt?$AAi?$AAo?$AAn?$AA?5?$AAf?$AAa?$AAi?$AAl?$AAe?$AAd?$AA?3?$AA?5?$AA?$AA@ 000000014007ce80     LIBCMTD:dbgrptt.obj
 0002:00007ea8       ??_C@_1CE@OJBNHDMO@?$AAA?$AAs?$AAs?$AAe?$AAr?$AAt?$AAi?$AAo?$AAn?$AA?5?$AAf?$AAa?$AAi?$AAl?$AAe?$AAd?$AA?$CB?$AA?$AA@ 000000014007cea8     LIBCMTD:dbgrptt.obj
 0002:00007ed0       ??_C@_1FK@HPADHBBD@?$AAw?$AAc?$AAs?$AAc?$AAa?$AAt?$AA_?$AAs?$AA?$CI?$AAs?$AAz?$AAL?$AAi?$AAn?$AAe?$AAM?$AAe?$AAs?$AAs?$AAa?$AAg?$AAe?$AA?0?$AA?5?$AA4?$AA0?$AA9?$AA6?$AA?0?$AA?5?$AAs?$AAz@ 000000014007ced0     LIBCMTD:dbgrptt.obj
 0002:00007f30       ??_C@_1EK@NMDFGHMF@?$AAw?$AAc?$AAs?$AAc?$AAa?$AAt?$AA_?$AAs?$AA?$CI?$AAs?$AAz?$AAL?$AAi?$AAn?$AAe?$AAM?$AAe?$AAs?$AAs?$AAa?$AAg?$AAe?$AA?0?$AA?5?$AA4?$AA0?$AA9?$AA6?$AA?0?$AA?5?$AAL?$AA?$CC@ 000000014007cf30     LIBCMTD:dbgrptt.obj
 0002:00007f7c       ??_C@_13CMNBPIDO@?$AA?$AN?$AA?$AA@ 000000014007cf7c     LIBCMTD:dbgrptt.obj
 0002:00007f80       ??_C@_1EK@PHCBEDKB@?$AAw?$AAc?$AAs?$AAc?$AAa?$AAt?$AA_?$AAs?$AA?$CI?$AAs?$AAz?$AAL?$AAi?$AAn?$AAe?$AAM?$AAe?$AAs?$AAs?$AAa?$AAg?$AAe?$AA?0?$AA?5?$AA4?$AA0?$AA9?$AA6?$AA?0?$AA?5?$AAL?$AA?$CC@ 000000014007cf80     LIBCMTD:dbgrptt.obj
 0002:00007fd0       ??_C@_1BI@JIDBEPIG@?$AA?$CF?$AAs?$AA?$CI?$AA?$CF?$AAd?$AA?$CJ?$AA?5?$AA?3?$AA?5?$AA?$CF?$AAs?$AA?$AA@ 000000014007cfd0     LIBCMTD:dbgrptt.obj
 0002:00007ff0       ??_C@_1FI@DBAIJPJE@?$AAw?$AAc?$AAs?$AAc?$AAp?$AAy?$AA_?$AAs?$AA?$CI?$AAs?$AAz?$AAO?$AAu?$AAt?$AAM?$AAe?$AAs?$AAs?$AAa?$AAg?$AAe?$AA?0?$AA?5?$AA4?$AA0?$AA9?$AA6?$AA?0?$AA?5?$AAs?$AAz?$AAL@ 000000014007cff0     LIBCMTD:dbgrptt.obj
 0002:00008050       ??_C@_1JC@EOAPFDLN@?$AAw?$AAc?$AAs?$AAt?$AAo?$AAm?$AAb?$AAs?$AA_?$AAs?$AA?$CI?$AA?$CI?$AA?$CI?$AAv?$AAo?$AAi?$AAd?$AA?5?$AA?$CK?$AA?$CJ?$AA0?$AA?$CJ?$AA?0?$AA?5?$AAs?$AAz?$AAO?$AAu?$AAt?$AAM?$AAe?$AAs@ 000000014007d050     LIBCMTD:dbgrptt.obj
 0002:000080f0       ??_C@_1MA@LBAMNNOB@?$AAs?$AAt?$AAr?$AAc?$AAp?$AAy?$AA_?$AAs?$AA?$CI?$AAs?$AAz?$AAO?$AAu?$AAt?$AAM?$AAe?$AAs?$AAs?$AAa?$AAg?$AAe?$AA2?$AA?0?$AA?5?$AA4?$AA0?$AA9?$AA6?$AA?0?$AA?5?$AA?$CC?$AA_@ 000000014007d0f0     LIBCMTD:dbgrptt.obj
 0002:000081b0       ??_C@_0DP@GNPEPHJD@_CrtDbgReport?3?5String?5too?5long?5o@ 000000014007d1b0     LIBCMTD:dbgrptt.obj
 0002:000081f0       ??_C@_1IE@CPGKIAGP@?$AAw?$AAc?$AAs?$AAt?$AAo?$AAm?$AAb?$AAs?$AA_?$AAs?$AA?$CI?$AA?$CG?$AAr?$AAe?$AAt?$AA?0?$AA?5?$AAs?$AAz?$AAa?$AAO?$AAu?$AAt?$AAM?$AAe?$AAs?$AAs?$AAa?$AAg?$AAe?$AA?0?$AA?5@ 000000014007d1f0     LIBCMTD:dbgrptt.obj
 0002:00008280       ??_C@_1BJK@FEBNHLFF@?$AA?$CI?$AA?$CI?$AAp?$AAt?$AAl?$AAo?$AAc?$AAi?$AA?9?$AA?$DO?$AAl?$AAc?$AA_?$AAc?$AAa?$AAt?$AAe?$AAg?$AAo?$AAr?$AAy?$AA?$FL?$AAc?$AAa?$AAt?$AAe?$AAg?$AAo?$AAr?$AAy?$AA?$FN?$AA?4@ 000000014007d280     LIBCMTD:localref.obj
 0002:00008420       ??_C@_1GO@OLCKHDCC@?$AAf?$AA?3?$AA?2?$AAd?$AAd?$AA?2?$AAv?$AAc?$AAt?$AAo?$AAo?$AAl?$AAs?$AA?2?$AAc?$AAr?$AAt?$AA_?$AAb?$AAl?$AAd?$AA?2?$AAs?$AAe?$AAl?$AAf?$AA_?$AA6?$AA4?$AA_?$AAa?$AAm@ 000000014007d420     LIBCMTD:localref.obj
 0002:000084b0       ??_C@_1M@HPNHIDJI@?$AAj?$AAa?$AA?9?$AAJ?$AAP?$AA?$AA@ 000000014007d4b0     LIBCMTD:mbctype.obj
 0002:000084c0       ??_C@_1M@BIBDDEMK@?$AAz?$AAh?$AA?9?$AAC?$AAN?$AA?$AA@ 000000014007d4c0     LIBCMTD:mbctype.obj
 0002:000084d0       ??_C@_1M@JLOOOEGK@?$AAk?$AAo?$AA?9?$AAK?$AAR?$AA?$AA@ 000000014007d4d0     LIBCMTD:mbctype.obj
 0002:000084e0       ??_C@_1M@CLNBBOPM@?$AAz?$AAh?$AA?9?$AAT?$AAW?$AA?$AA@ 000000014007d4e0     LIBCMTD:mbctype.obj
 0002:00008518       ??_C@_0DG@CBLPBEGB@f?3?2dd?2vctools?2crt_bld?2self_64_am@ 000000014007d518     LIBCMTD:mbctype.obj
 0002:00008550       ??_C@_1GK@NJMLMCDB@?$AAf?$AA?3?$AA?2?$AAd?$AAd?$AA?2?$AAv?$AAc?$AAt?$AAo?$AAo?$AAl?$AAs?$AA?2?$AAc?$AAr?$AAt?$AA_?$AAb?$AAl?$AAd?$AA?2?$AAs?$AAe?$AAl?$AAf?$AA_?$AA6?$AA4?$AA_?$AAa?$AAm@ 000000014007d550     LIBCMTD:printf.obj
 0002:000085c0       ??_C@_1O@GKDHFACN@?$AAp?$AAr?$AAi?$AAn?$AAt?$AAf?$AA?$AA@ 000000014007d5c0     LIBCMTD:printf.obj
 0002:000085d0       ??_C@_1CO@HFMIILNF@?$AAs?$AAi?$AAz?$AAe?$AAI?$AAn?$AAB?$AAy?$AAt?$AAe?$AAs?$AA?5?$AA?$DM?$AA?$DN?$AA?5?$AAI?$AAN?$AAT?$AA_?$AAM?$AAA?$AAX?$AA?$AA@ 000000014007d5d0     LIBCMTD:wctomb.obj
 0002:00008600       ??_C@_1GK@GFLGMDNK@?$AAf?$AA?3?$AA?2?$AAd?$AAd?$AA?2?$AAv?$AAc?$AAt?$AAo?$AAo?$AAl?$AAs?$AA?2?$AAc?$AAr?$AAt?$AA_?$AAb?$AAl?$AAd?$AA?2?$AAs?$AAe?$AAl?$AAf?$AA_?$AA6?$AA4?$AA_?$AAa?$AAm@ 000000014007d600     LIBCMTD:wctomb.obj
 0002:00008670       ??_C@_1BI@IEADNOHF@?$AA_?$AAw?$AAc?$AAt?$AAo?$AAm?$AAb?$AA_?$AAs?$AA_?$AAl?$AA?$AA@ 000000014007d670     LIBCMTD:wctomb.obj
 0002:00008688       ??_C@_1CA@CBMNPEO@?$AAs?$AAi?$AAz?$AAe?$AAI?$AAn?$AAB?$AAy?$AAt?$AAe?$AAs?$AA?5?$AA?$DO?$AA?5?$AA0?$AA?$AA@ 000000014007d688     LIBCMTD:wctomb.obj
 0002:000086a8       ??_C@_03KOEHGMDN@Sun?$AA@  000000014007d6a8     LIBCMTD:nlsdata.obj
 0002:000086ac       ??_C@_03PDAGKDH@Mon?$AA@   000000014007d6ac     LIBCMTD:nlsdata.obj
 0002:000086b0       ??_C@_03NAGEINEP@Tue?$AA@  000000014007d6b0     LIBCMTD:nlsdata.obj
 0002:000086b4       ??_C@_03MHOMLAJA@Wed?$AA@  000000014007d6b4     LIBCMTD:nlsdata.obj
 0002:000086b8       ??_C@_03IOFIKPDN@Thu?$AA@  000000014007d6b8     LIBCMTD:nlsdata.obj
 0002:000086bc       ??_C@_03IDIOELNC@Fri?$AA@  000000014007d6bc     LIBCMTD:nlsdata.obj
 0002:000086c0       ??_C@_03FEFJNEK@Sat?$AA@   000000014007d6c0     LIBCMTD:nlsdata.obj
 0002:000086c4       ??_C@_06OOPIFAJ@Sunday?$AA@ 000000014007d6c4     LIBCMTD:nlsdata.obj
 0002:000086cc       ??_C@_06JLEDEDGH@Monday?$AA@ 000000014007d6cc     LIBCMTD:nlsdata.obj
 0002:000086d8       ??_C@_07BAAGCFCM@Tuesday?$AA@ 000000014007d6d8     LIBCMTD:nlsdata.obj
 0002:000086e0       ??_C@_09DLIGFAKA@Wednesday?$AA@ 000000014007d6e0     LIBCMTD:nlsdata.obj
 0002:000086f0       ??_C@_08HACCIKIA@Thursday?$AA@ 000000014007d6f0     LIBCMTD:nlsdata.obj
 0002:000086fc       ??_C@_06JECMNKMI@Friday?$AA@ 000000014007d6fc     LIBCMTD:nlsdata.obj
 0002:00008708       ??_C@_08INBOOONO@Saturday?$AA@ 000000014007d708     LIBCMTD:nlsdata.obj
 0002:00008714       ??_C@_03JIHJHPIE@Jan?$AA@  000000014007d714     LIBCMTD:nlsdata.obj
 0002:00008718       ??_C@_03HJBDCHOM@Feb?$AA@  000000014007d718     LIBCMTD:nlsdata.obj
 0002:0000871c       ??_C@_03ODNJBKGA@Mar?$AA@  000000014007d71c     LIBCMTD:nlsdata.obj
 0002:00008720       ??_C@_03LEOLGMJP@Apr?$AA@  000000014007d720     LIBCMTD:nlsdata.obj
 0002:00008724       ??_C@_03CNMDKL@May?$AA@    000000014007d724     LIBCMTD:nlsdata.obj
 0002:00008728       ??_C@_03IDFGHECI@Jun?$AA@  000000014007d728     LIBCMTD:nlsdata.obj
 0002:0000872c       ??_C@_03LBGABGKK@Jul?$AA@  000000014007d72c     LIBCMTD:nlsdata.obj
 0002:00008730       ??_C@_03IFJFEIGA@Aug?$AA@  000000014007d730     LIBCMTD:nlsdata.obj
 0002:00008734       ??_C@_03GGCAPAJC@Sep?$AA@  000000014007d734     LIBCMTD:nlsdata.obj
 0002:00008738       ??_C@_03BMAOKBAD@Oct?$AA@  000000014007d738     LIBCMTD:nlsdata.obj
 0002:0000873c       ??_C@_03JPJOFNIA@Nov?$AA@  000000014007d73c     LIBCMTD:nlsdata.obj
 0002:00008740       ??_C@_03MKABNOCG@Dec?$AA@  000000014007d740     LIBCMTD:nlsdata.obj
 0002:00008748       ??_C@_07CGJPFGJA@January?$AA@ 000000014007d748     LIBCMTD:nlsdata.obj
 0002:00008750       ??_C@_08GNJGEPFN@February?$AA@ 000000014007d750     LIBCMTD:nlsdata.obj
 0002:0000875c       ??_C@_05HPCKOFNC@March?$AA@ 000000014007d75c     LIBCMTD:nlsdata.obj
 0002:00008764       ??_C@_05DMJDNLEJ@April?$AA@ 000000014007d764     LIBCMTD:nlsdata.obj
 0002:0000876c       ??_C@_04CNLMGBGM@June?$AA@ 000000014007d76c     LIBCMTD:nlsdata.obj
 0002:00008774       ??_C@_04MIEPOIFP@July?$AA@ 000000014007d774     LIBCMTD:nlsdata.obj
 0002:0000877c       ??_C@_06LBBHFDDG@August?$AA@ 000000014007d77c     LIBCMTD:nlsdata.obj
 0002:00008788       ??_C@_09BHHEALKD@September?$AA@ 000000014007d788     LIBCMTD:nlsdata.obj
 0002:00008798       ??_C@_07JJNFCEND@October?$AA@ 000000014007d798     LIBCMTD:nlsdata.obj
 0002:000087a0       ??_C@_08HCHEGEOA@November?$AA@ 000000014007d7a0     LIBCMTD:nlsdata.obj
 0002:000087b0       ??_C@_08EDHMEBNP@December?$AA@ 000000014007d7b0     LIBCMTD:nlsdata.obj
 0002:000087bc       ??_C@_02DEDBPAFC@AM?$AA@   000000014007d7bc     LIBCMTD:nlsdata.obj
 0002:000087c0       ??_C@_02CJNFDJBF@PM?$AA@   000000014007d7c0     LIBCMTD:nlsdata.obj
 0002:000087c8       ??_C@_08BPBNCDIB@MM?1dd?1yy?$AA@ 000000014007d7c8     LIBCMTD:nlsdata.obj
 0002:000087d8       ??_C@_0BE@CKGJFCPC@dddd?0?5MMMM?5dd?0?5yyyy?$AA@ 000000014007d7d8     LIBCMTD:nlsdata.obj
 0002:000087f0       ??_C@_08JCCMCCIL@HH?3mm?3ss?$AA@ 000000014007d7f0     LIBCMTD:nlsdata.obj
 0002:00008800       ??_C@_17MBGCMIPB@?$AAS?$AAu?$AAn?$AA?$AA@ 000000014007d800     LIBCMTD:nlsdata.obj
 0002:00008808       ??_C@_17KBOMKBF@?$AAM?$AAo?$AAn?$AA?$AA@ 000000014007d808     LIBCMTD:nlsdata.obj
 0002:00008810       ??_C@_17BMKGEGOJ@?$AAT?$AAu?$AAe?$AA?$AA@ 000000014007d810     LIBCMTD:nlsdata.obj
 0002:00008818       ??_C@_17CJEDCEPE@?$AAW?$AAe?$AAd?$AA?$AA@ 000000014007d818     LIBCMTD:nlsdata.obj
 0002:00008820       ??_C@_17PDPHAADD@?$AAT?$AAh?$AAu?$AA?$AA@ 000000014007d820     LIBCMTD:nlsdata.obj
 0002:00008828       ??_C@_17HFOLPPLP@?$AAF?$AAr?$AAi?$AA?$AA@ 000000014007d828     LIBCMTD:nlsdata.obj
 0002:00008830       ??_C@_17GGIBDPIH@?$AAS?$AAa?$AAt?$AA?$AA@ 000000014007d830     LIBCMTD:nlsdata.obj
 0002:00008838       ??_C@_1O@IHNHDHPB@?$AAS?$AAu?$AAn?$AAd?$AAa?$AAy?$AA?$AA@ 000000014007d838     LIBCMTD:nlsdata.obj
 0002:00008848       ??_C@_1O@MMNBFLIA@?$AAM?$AAo?$AAn?$AAd?$AAa?$AAy?$AA?$AA@ 000000014007d848     LIBCMTD:nlsdata.obj
 0002:00008858       ??_C@_1BA@ENFBFFEK@?$AAT?$AAu?$AAe?$AAs?$AAd?$AAa?$AAy?$AA?$AA@ 000000014007d858     LIBCMTD:nlsdata.obj
 0002:00008868       ??_C@_1BE@EBOGMDOH@?$AAW?$AAe?$AAd?$AAn?$AAe?$AAs?$AAd?$AAa?$AAy?$AA?$AA@ 000000014007d868     LIBCMTD:nlsdata.obj
 0002:00008880       ??_C@_1BC@HHMNLIHE@?$AAT?$AAh?$AAu?$AAr?$AAs?$AAd?$AAa?$AAy?$AA?$AA@ 000000014007d880     LIBCMTD:nlsdata.obj
 0002:00008898       ??_C@_1O@PDICJHAG@?$AAF?$AAr?$AAi?$AAd?$AAa?$AAy?$AA?$AA@ 000000014007d898     LIBCMTD:nlsdata.obj
 0002:000088a8       ??_C@_1BC@ENMNNPAJ@?$AAS?$AAa?$AAt?$AAu?$AAr?$AAd?$AAa?$AAy?$AA?$AA@ 000000014007d8a8     LIBCMTD:nlsdata.obj
 0002:000088c0       ??_C@_17DKNBKCHM@?$AAJ?$AAa?$AAn?$AA?$AA@ 000000014007d8c0     LIBCMTD:nlsdata.obj
 0002:000088c8       ??_C@_17LMDJEKJN@?$AAF?$AAe?$AAb?$AA?$AA@ 000000014007d8c8     LIBCMTD:nlsdata.obj
 0002:000088d0       ??_C@_17CKNLEDEC@?$AAM?$AAa?$AAr?$AA?$AA@ 000000014007d8d0     LIBCMTD:nlsdata.obj
 0002:000088d8       ??_C@_17LFPOIHDD@?$AAA?$AAp?$AAr?$AA?$AA@ 000000014007d8d8     LIBCMTD:nlsdata.obj
 0002:000088e0       ??_C@_17PNNKMEED@?$AAM?$AAa?$AAy?$AA?$AA@ 000000014007d8e0     LIBCMTD:nlsdata.obj
 0002:000088e8       ??_C@_17KCJGOCPB@?$AAJ?$AAu?$AAn?$AA?$AA@ 000000014007d8e8     LIBCMTD:nlsdata.obj
 0002:000088f0       ??_C@_17IJPCKHK@?$AAJ?$AAu?$AAl?$AA?$AA@ 000000014007d8f0     LIBCMTD:nlsdata.obj
 0002:000088f8       ??_C@_17ICPELBCN@?$AAA?$AAu?$AAg?$AA?$AA@ 000000014007d8f8     LIBCMTD:nlsdata.obj
 0002:00008900       ??_C@_17HCHCOKMG@?$AAS?$AAe?$AAp?$AA?$AA@ 000000014007d900     LIBCMTD:nlsdata.obj
 0002:00008908       ??_C@_17FNLKOI@?$AAO?$AAc?$AAt?$AA?$AA@ 000000014007d908     LIBCMTD:nlsdata.obj
 0002:00008910       ??_C@_17BBDMLCIG@?$AAN?$AAo?$AAv?$AA?$AA@ 000000014007d910     LIBCMTD:nlsdata.obj
 0002:00008918       ??_C@_17EGKACKIF@?$AAD?$AAe?$AAc?$AA?$AA@ 000000014007d918     LIBCMTD:nlsdata.obj
 0002:00008920       ??_C@_1BA@EFMEIEBA@?$AAJ?$AAa?$AAn?$AAu?$AAa?$AAr?$AAy?$AA?$AA@ 000000014007d920     LIBCMTD:nlsdata.obj
 0002:00008930       ??_C@_1BC@JGDDFFAM@?$AAF?$AAe?$AAb?$AAr?$AAu?$AAa?$AAr?$AAy?$AA?$AA@ 000000014007d930     LIBCMTD:nlsdata.obj
 0002:00008948       ??_C@_1M@IKEENEDF@?$AAM?$AAa?$AAr?$AAc?$AAh?$AA?$AA@ 000000014007d948     LIBCMTD:nlsdata.obj
 0002:00008958       ??_C@_1M@GJNLMHFD@?$AAA?$AAp?$AAr?$AAi?$AAl?$AA?$AA@ 000000014007d958     LIBCMTD:nlsdata.obj
 0002:00008968       ??_C@_19EPFLPGAP@?$AAJ?$AAu?$AAn?$AAe?$AA?$AA@ 000000014007d968     LIBCMTD:nlsdata.obj
 0002:00008978       ??_C@_19BIFMLPCD@?$AAJ?$AAu?$AAl?$AAy?$AA?$AA@ 000000014007d978     LIBCMTD:nlsdata.obj
 0002:00008988       ??_C@_1O@PAHLKOAC@?$AAA?$AAu?$AAg?$AAu?$AAs?$AAt?$AA?$AA@ 000000014007d988     LIBCMTD:nlsdata.obj
 0002:00008998       ??_C@_1BE@DKAAMBJL@?$AAS?$AAe?$AAp?$AAt?$AAe?$AAm?$AAb?$AAe?$AAr?$AA?$AA@ 000000014007d998     LIBCMTD:nlsdata.obj
 0002:000089b0       ??_C@_1BA@EPANDLNG@?$AAO?$AAc?$AAt?$AAo?$AAb?$AAe?$AAr?$AA?$AA@ 000000014007d9b0     LIBCMTD:nlsdata.obj
 0002:000089c0       ??_C@_1BC@BGLIFPF@?$AAN?$AAo?$AAv?$AAe?$AAm?$AAb?$AAe?$AAr?$AA?$AA@ 000000014007d9c0     LIBCMTD:nlsdata.obj
 0002:000089d8       ??_C@_1BC@FEMKIFH@?$AAD?$AAe?$AAc?$AAe?$AAm?$AAb?$AAe?$AAr?$AA?$AA@ 000000014007d9d8     LIBCMTD:nlsdata.obj
 0002:000089ec       ??_C@_15ODEHAHHF@?$AAA?$AAM?$AA?$AA@ 000000014007d9ec     LIBCMTD:nlsdata.obj
 0002:000089f4       ??_C@_15CLMNNGEL@?$AAP?$AAM?$AA?$AA@ 000000014007d9f4     LIBCMTD:nlsdata.obj
 0002:00008a00       ??_C@_1BC@IEBCMHCM@?$AAM?$AAM?$AA?1?$AAd?$AAd?$AA?1?$AAy?$AAy?$AA?$AA@ 000000014007da00     LIBCMTD:nlsdata.obj
 0002:00008a18       ??_C@_1CI@KNAKOEBC@?$AAd?$AAd?$AAd?$AAd?$AA?0?$AA?5?$AAM?$AAM?$AAM?$AAM?$AA?5?$AAd?$AAd?$AA?0?$AA?5?$AAy?$AAy?$AAy?$AAy?$AA?$AA@ 000000014007da18     LIBCMTD:nlsdata.obj
 0002:00008a40       ??_C@_1BC@GDGBMEMK@?$AAH?$AAH?$AA?3?$AAm?$AAm?$AA?3?$AAs?$AAs?$AA?$AA@ 000000014007da40     LIBCMTD:nlsdata.obj
 0002:00008a58       ??_C@_1M@BMHNFIME@?$AAe?$AAn?$AA?9?$AAU?$AAS?$AA?$AA@ 000000014007da58     LIBCMTD:nlsdata.obj
 0002:00008a90       ??_C@_1BK@LAOAACLJ@?$AAn?$AAp?$AAt?$AAr?$AA?5?$AA?$CB?$AA?$DN?$AA?5?$AAN?$AAU?$AAL?$AAL?$AA?$AA@ 000000014007da90     LIBCMTD:strtol.obj
 0002:00008ab0       ??_C@_1GK@OBPHBCHM@?$AAf?$AA?3?$AA?2?$AAd?$AAd?$AA?2?$AAv?$AAc?$AAt?$AAo?$AAo?$AAl?$AAs?$AA?2?$AAc?$AAr?$AAt?$AA_?$AAb?$AAl?$AAd?$AA?2?$AAs?$AAe?$AAl?$AAf?$AA_?$AA6?$AA4?$AA_?$AAa?$AAm@ 000000014007dab0     LIBCMTD:strtol.obj
 0002:00008b20       ??_C@_1BA@LOLAMAJG@?$AAs?$AAt?$AAr?$AAt?$AAo?$AAx?$AAl?$AA?$AA@ 000000014007db20     LIBCMTD:strtol.obj
 0002:00008b30       ??_C@_1FE@CEHLKAHD@?$AAi?$AAb?$AAa?$AAs?$AAe?$AA?5?$AA?$DN?$AA?$DN?$AA?5?$AA0?$AA?5?$AA?$HM?$AA?$HM?$AA?5?$AA?$CI?$AA2?$AA?5?$AA?$DM?$AA?$DN?$AA?5?$AAi?$AAb?$AAa?$AAs?$AAe?$AA?5?$AA?$CG?$AA?$CG?$AA?5?$AAi?$AAb?$AAa@ 000000014007db30     LIBCMTD:strtol.obj
 0002:00008b88       ??_C@_1CI@JELMFMDH@?$AAc?$AA?5?$AA?$DO?$AA?$DN?$AA?5?$AA?9?$AA1?$AA?5?$AA?$CG?$AA?$CG?$AA?5?$AAc?$AA?5?$AA?$DM?$AA?$DN?$AA?5?$AA2?$AA5?$AA5?$AA?$AA@ 000000014007db88     LIBCMTD:isctype.obj
 0002:00008bb0       ??_C@_1GM@FOJELOKL@?$AAf?$AA?3?$AA?2?$AAd?$AAd?$AA?2?$AAv?$AAc?$AAt?$AAo?$AAo?$AAl?$AAs?$AA?2?$AAc?$AAr?$AAt?$AA_?$AAb?$AAl?$AAd?$AA?2?$AAs?$AAe?$AAl?$AAf?$AA_?$AA6?$AA4?$AA_?$AAa?$AAm@ 000000014007dbb0     LIBCMTD:isctype.obj
 0002:00008c20       ??_C@_1BO@KFIJIAEA@?$AAp?$AAB?$AAl?$AAo?$AAc?$AAk?$AA?5?$AA?$CB?$AA?$DN?$AA?5?$AAN?$AAU?$AAL?$AAL?$AA?$AA@ 000000014007dc20     LIBCMTD:expand.obj
 0002:00008c40       ??_C@_1GK@CPPIAPOD@?$AAf?$AA?3?$AA?2?$AAd?$AAd?$AA?2?$AAv?$AAc?$AAt?$AAo?$AAo?$AAl?$AAs?$AA?2?$AAc?$AAr?$AAt?$AA_?$AAb?$AAl?$AAd?$AA?2?$AAs?$AAe?$AAl?$AAf?$AA_?$AA6?$AA4?$AA_?$AAa?$AAm@ 000000014007dc40     LIBCMTD:expand.obj
 0002:00008cb0       ??_C@_1BK@JMCGJOCC@?$AA_?$AAe?$AAx?$AAp?$AAa?$AAn?$AAd?$AA_?$AAb?$AAa?$AAs?$AAe?$AA?$AA@ 000000014007dcb0     LIBCMTD:expand.obj
 0002:00008ce8       ??_C@_03KHICJKCI@?4?4?4?$AA@ 000000014007dce8     LIBCMTD:dbgrpt.obj
 0002:00008cf0       ??_C@_1CG@GNMJDMIO@?$AA_?$AAC?$AAr?$AAt?$AAS?$AAe?$AAt?$AAR?$AAe?$AAp?$AAo?$AAr?$AAt?$AAH?$AAo?$AAo?$AAk?$AA2?$AA?$AA@ 000000014007dcf0     LIBCMTD:dbgrpt.obj
 0002:00008d18       ??_C@_1CI@IDOKFLAJ@?$AA_?$AA_?$AAc?$AAr?$AAt?$AAM?$AAe?$AAs?$AAs?$AAa?$AAg?$AAe?$AAW?$AAi?$AAn?$AAd?$AAo?$AAw?$AAA?$AA?$AA@ 000000014007dd18     LIBCMTD:dbgrpt.obj
 0002:00008d40       ??_C@_1GG@DLDHOIGE@?$AAs?$AAt?$AAr?$AAc?$AAp?$AAy?$AA_?$AAs?$AA?$CI?$AAs?$AAz?$AAE?$AAx?$AAe?$AAN?$AAa?$AAm?$AAe?$AA?0?$AA?5?$AA2?$AA6?$AA0?$AA?0?$AA?5?$AA?$CC?$AA?$DM?$AAp?$AAr?$AAo?$AAg?$AAr@ 000000014007dd40     LIBCMTD:dbgrpt.obj
 0002:00008da8       ??_C@_0BH@DNAGHKFM@?$DMprogram?5name?5unknown?$DO?$AA@ 000000014007dda8     LIBCMTD:dbgrpt.obj
 0002:00008dc0       ??_C@_1LG@BEHAHJLI@?$AAD?$AAe?$AAb?$AAu?$AAg?$AA?5?$AA?$CF?$AAs?$AA?$CB?$AA?6?$AA?6?$AAP?$AAr?$AAo?$AAg?$AAr?$AAa?$AAm?$AA?3?$AA?5?$AA?$CF?$AAh?$AAs?$AA?$CF?$AAs?$AA?$CF?$AAs?$AA?$CF?$AAh?$AAs?$AA?$CF?$AAs@ 000000014007ddc0     LIBCMTD:dbgrpt.obj
 0002:00008e78       ??_C@_1BC@JLLICHIC@?$AAp?$AAn?$AAh?$AA?5?$AA?$DN?$AA?$DN?$AA?5?$AA0?$AA?$AA@ 000000014007de78     LIBCMTD:handler.obj
 0002:00008e90       ??_C@_1HA@DENGNKAH@?$AAf?$AA?3?$AA?2?$AAd?$AAd?$AA?2?$AAv?$AAc?$AAt?$AAo?$AAo?$AAl?$AAs?$AA?2?$AAc?$AAr?$AAt?$AA_?$AAb?$AAl?$AAd?$AA?2?$AAs?$AAe?$AAl?$AAf?$AA_?$AA6?$AA4?$AA_?$AAa?$AAm@ 000000014007de90     LIBCMTD:handler.obj
 0002:00008f00       ??_C@_1GM@GFCCCIAA@?$AAf?$AA?3?$AA?2?$AAd?$AAd?$AA?2?$AAv?$AAc?$AAt?$AAo?$AAo?$AAl?$AAs?$AA?2?$AAc?$AAr?$AAt?$AA_?$AAb?$AAl?$AAd?$AA?2?$AAs?$AAe?$AAl?$AAf?$AA_?$AA6?$AA4?$AA_?$AAa?$AAm@ 000000014007df00     LIBCMTD:sprintf.obj
 0002:00008f70       ??_C@_1BA@KBJJGFFE@?$AAs?$AAp?$AAr?$AAi?$AAn?$AAt?$AAf?$AA?$AA@ 000000014007df70     LIBCMTD:sprintf.obj
 0002:00008f80       ??_C@_1BO@DPAOGEII@?$AA?$CI?$AAp?$AAa?$AAt?$AAh?$AA?5?$AA?$CB?$AA?$DN?$AA?5?$AAN?$AAU?$AAL?$AAL?$AA?$CJ?$AA?$AA@ 000000014007df80     LIBCMTD:open.obj
 0002:00008fa0       ??_C@_1GG@HEPEIDKL@?$AAf?$AA?3?$AA?2?$AAd?$AAd?$AA?2?$AAv?$AAc?$AAt?$AAo?$AAo?$AAl?$AAs?$AA?2?$AAc?$AAr?$AAt?$AA_?$AAb?$AAl?$AAd?$AA?2?$AAs?$AAe?$AAl?$AAf?$AA_?$AA6?$AA4?$AA_?$AAa?$AAm@ 000000014007dfa0     LIBCMTD:open.obj
 0002:00009008       ??_C@_1M@MFLJCMFJ@?$AA_?$AAo?$AAp?$AAe?$AAn?$AA?$AA@ 000000014007e008     LIBCMTD:open.obj
 0002:00009018       ??_C@_1BM@PGEEHLHE@?$AA?$CI?$AAp?$AAf?$AAh?$AA?5?$AA?$CB?$AA?$DN?$AA?5?$AAN?$AAU?$AAL?$AAL?$AA?$CJ?$AA?$AA@ 000000014007e018     LIBCMTD:open.obj
 0002:00009038       ??_C@_1BM@IOBAMMHO@?$AA_?$AAs?$AAo?$AAp?$AAe?$AAn?$AA_?$AAh?$AAe?$AAl?$AAp?$AAe?$AAr?$AA?$AA@ 000000014007e038     LIBCMTD:open.obj
 0002:00009060       ??_C@_1FG@NFINBJCM@?$AA?$CI?$AA?$CI?$AAp?$AAm?$AAo?$AAd?$AAe?$AA?5?$AA?$CG?$AA?5?$AA?$CI?$AA?$HO?$AA?$CI?$AA_?$AAS?$AA_?$AAI?$AAR?$AAE?$AAA?$AAD?$AA?5?$AA?$HM?$AA?5?$AA_?$AAS?$AA_?$AAI?$AAW?$AAR?$AAI?$AAT@ 000000014007e060     LIBCMTD:open.obj
 0002:000090b8       ??_C@_1BG@MODEICJK@?$AAs?$AA1?$AA?5?$AA?$CB?$AA?$DN?$AA?5?$AAN?$AAU?$AAL?$AAL?$AA?$AA@ 000000014007e0b8     LIBCMTD:mbsnbcmp.obj
 0002:000090d0       ??_C@_1GO@BPDPKGCG@?$AAf?$AA?3?$AA?2?$AAd?$AAd?$AA?2?$AAv?$AAc?$AAt?$AAo?$AAo?$AAl?$AAs?$AA?2?$AAc?$AAr?$AAt?$AA_?$AAb?$AAl?$AAd?$AA?2?$AAs?$AAe?$AAl?$AAf?$AA_?$AA6?$AA4?$AA_?$AAa?$AAm@ 000000014007e0d0     LIBCMTD:mbsnbcmp.obj
 0002:00009140       ??_C@_1BI@LPHOHGHI@?$AA_?$AAm?$AAb?$AAs?$AAn?$AAb?$AAc?$AAm?$AAp?$AA_?$AAl?$AA?$AA@ 000000014007e140     LIBCMTD:mbsnbcmp.obj
 0002:00009158       ??_C@_1BG@GBJNMPFA@?$AAs?$AA2?$AA?5?$AA?$CB?$AA?$DN?$AA?5?$AAN?$AAU?$AAL?$AAL?$AA?$AA@ 000000014007e158     LIBCMTD:mbsnbcmp.obj
 0002:00009170       ??_C@_1GO@MHPFKAO@?$AAf?$AA?3?$AA?2?$AAd?$AAd?$AA?2?$AAv?$AAc?$AAt?$AAo?$AAo?$AAl?$AAs?$AA?2?$AAc?$AAr?$AAt?$AA_?$AAb?$AAl?$AAd?$AA?2?$AAs?$AAe?$AAl?$AAf?$AA_?$AA6?$AA4?$AA_?$AAa?$AAm@ 000000014007e170     LIBCMTD:mbsnbicm.obj
 0002:000091e0       ??_C@_1BK@GEJONGBG@?$AA_?$AAm?$AAb?$AAs?$AAn?$AAb?$AAi?$AAc?$AAm?$AAp?$AA_?$AAl?$AA?$AA@ 000000014007e1e0     LIBCMTD:mbsnbicm.obj
 0002:00009200       ??_C@_0DG@EONGNBGB@f?3?2dd?2vctools?2crt_bld?2self_64_am@ 000000014007e200     LIBCMTD:osfinfo.obj
 0002:00009240       ??_C@_1GM@LCFGFLEL@?$AAf?$AA?3?$AA?2?$AAd?$AAd?$AA?2?$AAv?$AAc?$AAt?$AAo?$AAo?$AAl?$AAs?$AA?2?$AAc?$AAr?$AAt?$AA_?$AAb?$AAl?$AAd?$AA?2?$AAs?$AAe?$AAl?$AAf?$AA_?$AA6?$AA4?$AA_?$AAa?$AAm@ 000000014007e240     LIBCMTD:osfinfo.obj
 0002:000092b0       ??_C@_1BO@EMBOBGKE@?$AA_?$AAg?$AAe?$AAt?$AA_?$AAo?$AAs?$AAf?$AAh?$AAa?$AAn?$AAd?$AAl?$AAe?$AA?$AA@ 000000014007e2b0     LIBCMTD:osfinfo.obj
 0002:000092d0       ??_C@_1HC@KFLBHHBC@?$AA?$CI?$AAf?$AAi?$AAl?$AAe?$AAd?$AAe?$AAs?$AA?5?$AA?$DO?$AA?$DN?$AA?5?$AA0?$AA?5?$AA?$CG?$AA?$CG?$AA?5?$AA?$CI?$AAu?$AAn?$AAs?$AAi?$AAg?$AAn?$AAe?$AAd?$AA?$CJ?$AAf?$AAi?$AAl?$AAe?$AAd@ 000000014007e2d0     LIBCMTD:commit.obj
 0002:00009350       ??_C@_1GK@HAHPFOGJ@?$AAf?$AA?3?$AA?2?$AAd?$AAd?$AA?2?$AAv?$AAc?$AAt?$AAo?$AAo?$AAl?$AAs?$AA?2?$AAc?$AAr?$AAt?$AA_?$AAb?$AAl?$AAd?$AA?2?$AAs?$AAe?$AAl?$AAf?$AA_?$AA6?$AA4?$AA_?$AAa?$AAm@ 000000014007e350     LIBCMTD:commit.obj
 0002:000093c0       ??_C@_1BA@FLNMBBIM@?$AA_?$AAc?$AAo?$AAm?$AAm?$AAi?$AAt?$AA?$AA@ 000000014007e3c0     LIBCMTD:commit.obj
 0002:000093d0       ??_C@_1DG@LNNHNFHJ@?$AA?$CI?$AA_?$AAo?$AAs?$AAf?$AAi?$AAl?$AAe?$AA?$CI?$AAf?$AAi?$AAl?$AAe?$AAd?$AAe?$AAs?$AA?$CJ?$AA?5?$AA?$CG?$AA?5?$AAF?$AAO?$AAP?$AAE?$AAN?$AA?$CJ?$AA?$AA@ 000000014007e3d0     LIBCMTD:commit.obj
 0002:00009410       ??_C@_1NC@EINCOKCO@?$AA_?$AAl?$AAo?$AAc?$AA_?$AAu?$AAp?$AAd?$AAa?$AAt?$AAe?$AA?4?$AAG?$AAe?$AAt?$AAL?$AAo?$AAc?$AAa?$AAl?$AAe?$AAT?$AA?$CI?$AA?$CJ?$AA?9?$AA?$DO?$AAl?$AAo?$AAc?$AAi?$AAn?$AAf@ 000000014007e410     LIBCMTD:mbtowc.obj
 0002:000094f0       ??_C@_1GK@LNONKGD@?$AAf?$AA?3?$AA?2?$AAd?$AAd?$AA?2?$AAv?$AAc?$AAt?$AAo?$AAo?$AAl?$AAs?$AA?2?$AAc?$AAr?$AAt?$AA_?$AAb?$AAl?$AAd?$AA?2?$AAs?$AAe?$AAl?$AAf?$AA_?$AA6?$AA4?$AA_?$AAa?$AAm@ 000000014007e4f0     LIBCMTD:mbtowc.obj
 0002:00009560       ??_C@_1HC@LMNIDGBJ@?$AAf?$AA?3?$AA?2?$AAd?$AAd?$AA?2?$AAv?$AAc?$AAt?$AAo?$AAo?$AAl?$AAs?$AA?2?$AAc?$AAr?$AAt?$AA_?$AAb?$AAl?$AAd?$AA?2?$AAs?$AAe?$AAl?$AAf?$AA_?$AA6?$AA4?$AA_?$AAa?$AAm@ 000000014007e560     LIBCMTD:wcscat_s.obj
 0002:000095d8       ??_C@_1BC@PLIEPKPJ@?$AAw?$AAc?$AAs?$AAc?$AAa?$AAt?$AA_?$AAs?$AA?$AA@ 000000014007e5d8     LIBCMTD:wcscat_s.obj
 0002:000095f0       ??_C@_1DM@FHLMIEG@?$AAS?$AAt?$AAr?$AAi?$AAn?$AAg?$AA?5?$AAi?$AAs?$AA?5?$AAn?$AAo?$AAt?$AA?5?$AAn?$AAu?$AAl?$AAl?$AA?5?$AAt?$AAe?$AAr?$AAm?$AAi?$AAn?$AAa?$AAt?$AAe?$AAd?$AA?$AA@ 000000014007e5f0     LIBCMTD:wcscat_s.obj
 0002:00009630       ??_C@_1FA@MJKDNFFB@?$AA?$CI?$AAL?$AA?$CC?$AAS?$AAt?$AAr?$AAi?$AAn?$AAg?$AA?5?$AAi?$AAs?$AA?5?$AAn?$AAo?$AAt?$AA?5?$AAn?$AAu?$AAl?$AAl?$AA?5?$AAt?$AAe?$AAr?$AAm?$AAi?$AAn?$AAa?$AAt?$AAe?$AAd@ 000000014007e630     LIBCMTD:wcscat_s.obj
 0002:00009680       ??_C@_1HE@CMGGKMON@?$AAf?$AA?3?$AA?2?$AAd?$AAd?$AA?2?$AAv?$AAc?$AAt?$AAo?$AAo?$AAl?$AAs?$AA?2?$AAc?$AAr?$AAt?$AA_?$AAb?$AAl?$AAd?$AA?2?$AAs?$AAe?$AAl?$AAf?$AA_?$AA6?$AA4?$AA_?$AAa?$AAm@ 000000014007e680     LIBCMTD:wcsncpy_s.obj
 0002:000096f8       ??_C@_1BE@PMMBFFCC@?$AAw?$AAc?$AAs?$AAn?$AAc?$AAp?$AAy?$AA_?$AAs?$AA?$AA@ 000000014007e6f8     LIBCMTD:wcsncpy_s.obj
 0002:00009710       ??_C@_1FC@NCPEPIBI@?$AA?$CI?$AA?$CI?$AA_?$AAD?$AAs?$AAt?$AA?$CJ?$AA?$CJ?$AA?5?$AA?$CB?$AA?$DN?$AA?5?$AAN?$AAU?$AAL?$AAL?$AA?5?$AA?$CG?$AA?$CG?$AA?5?$AA?$CI?$AA?$CI?$AA_?$AAS?$AAi?$AAz?$AAe?$AAI?$AAn?$AAB?$AAy?$AAt@ 000000014007e710     LIBCMTD:strncpy_s.obj
 0002:00009768       ??_C@_1BE@NDMJHJJG@?$AAs?$AAt?$AAr?$AAn?$AAc?$AAp?$AAy?$AA_?$AAs?$AA?$AA@ 000000014007e768     LIBCMTD:strncpy_s.obj
 0002:00009780       ??_C@_1FE@KNPCCODH@?$AA?$CI?$AA?$CC?$AAC?$AAo?$AAr?$AAr?$AAu?$AAp?$AAt?$AAe?$AAd?$AA?5?$AAp?$AAo?$AAi?$AAn?$AAt?$AAe?$AAr?$AA?5?$AAp?$AAa?$AAs?$AAs?$AAe?$AAd?$AA?5?$AAt?$AAo?$AA?5?$AA_?$AAf@ 000000014007e780     LIBCMTD:a_loc.obj
 0002:000097e0       ??_C@_1GK@ODBLNICG@?$AAf?$AA?3?$AA?2?$AAd?$AAd?$AA?2?$AAv?$AAc?$AAt?$AAo?$AAo?$AAl?$AAs?$AA?2?$AAc?$AAr?$AAt?$AA_?$AAb?$AAl?$AAd?$AA?2?$AAs?$AAe?$AAl?$AAf?$AA_?$AA6?$AA4?$AA_?$AAa?$AAm@ 000000014007e7e0     LIBCMTD:a_loc.obj
 0002:00009850       ??_C@_1BC@CFJEPFGF@?$AAs?$AAt?$AAr?$AAc?$AAp?$AAy?$AA_?$AAs?$AA?$AA@ 000000014007e850     LIBCMTD:strcpy_s.obj
 0002:00009b80       ??_C@_08EHJDFFNH@__based?$CI?$AA@ 000000014007eb80     LIBCMTD:undname.obj
 0002:00009b90       ??_C@_07KOLFKCDI@__cdecl?$AA@ 000000014007eb90     LIBCMTD:undname.obj
 0002:00009b98       ??_C@_08GHMPAG@__pascal?$AA@ 000000014007eb98     LIBCMTD:undname.obj
 0002:00009ba8       ??_C@_09IFJBGAPI@__stdcall?$AA@ 000000014007eba8     LIBCMTD:undname.obj
 0002:00009bb8       ??_C@_0L@NPHFGOKO@__thiscall?$AA@ 000000014007ebb8     LIBCMTD:undname.obj
 0002:00009bc8       ??_C@_0L@JMKHOMEK@__fastcall?$AA@ 000000014007ebc8     LIBCMTD:undname.obj
 0002:00009bd8       ??_C@_09HIJEGCPM@__clrcall?$AA@ 000000014007ebd8     LIBCMTD:undname.obj
 0002:00009be4       ??_C@_06GHPCKEAG@__eabi?$AA@ 000000014007ebe4     LIBCMTD:undname.obj
 0002:00009bf0       ??_C@_07JOMMBBKO@__ptr64?$AA@ 000000014007ebf0     LIBCMTD:undname.obj
 0002:00009bf8       ??_C@_0L@PILCLIHE@__restrict?$AA@ 000000014007ebf8     LIBCMTD:undname.obj
 0002:00009c08       ??_C@_0M@GFIIJFMG@__unaligned?$AA@ 000000014007ec08     LIBCMTD:undname.obj
 0002:00009c18       ??_C@_09DHDLOLLB@restrict?$CI?$AA@ 000000014007ec18     LIBCMTD:undname.obj
 0002:00009c24       ??_C@_04NIHEBCM@?5new?$AA@ 000000014007ec24     LIBCMTD:undname.obj
 0002:00009c30       ??_C@_07FPCDHGMM@?5delete?$AA@ 000000014007ec30     LIBCMTD:undname.obj
 0002:00009c38       ??_C@_01NEMOKFLO@?$DN?$AA@ 000000014007ec38     LIBCMTD:undname.obj
 0002:00009c3c       ??_C@_02GPIOPFAK@?$DO?$DO?$AA@ 000000014007ec3c     LIBCMTD:undname.obj
 0002:00009c40       ??_C@_02FODMEDOG@?$DM?$DM?$AA@ 000000014007ec40     LIBCMTD:undname.obj
 0002:00009c44       ??_C@_01DCLJPIOD@?$CB?$AA@ 000000014007ec44     LIBCMTD:undname.obj
 0002:00009c48       ??_C@_02EGOFBIJA@?$DN?$DN?$AA@ 000000014007ec48     LIBCMTD:undname.obj
 0002:00009c4c       ??_C@_02FDNJECIE@?$CB?$DN?$AA@ 000000014007ec4c     LIBCMTD:undname.obj
 0002:00009c50       ??_C@_02GPECMEKF@?$FL?$FN?$AA@ 000000014007ec50     LIBCMTD:undname.obj
 0002:00009c58       ??_C@_08LHJFAFGD@operator?$AA@ 000000014007ec58     LIBCMTD:undname.obj
 0002:00009c64       ??_C@_02HBOOOICD@?9?$DO?$AA@ 000000014007ec64     LIBCMTD:undname.obj
 0002:00009c68       ??_C@_01NBENCBCI@?$CK?$AA@ 000000014007ec68     LIBCMTD:undname.obj
 0002:00009c6c       ??_C@_02ECNGHCIF@?$CL?$CL?$AA@ 000000014007ec6c     LIBCMTD:undname.obj
 0002:00009c70       ??_C@_02BAABKJLB@?9?9?$AA@ 000000014007ec70     LIBCMTD:undname.obj
 0002:00009c74       ??_C@_01JOAMLHOP@?9?$AA@   000000014007ec74     LIBCMTD:undname.obj
 0002:00009c78       ??_C@_01MIFGBAGJ@?$CL?$AA@ 000000014007ec78     LIBCMTD:undname.obj
 0002:00009c7c       ??_C@_01HNPIGOCE@?$CG?$AA@ 000000014007ec7c     LIBCMTD:undname.obj
 0002:00009c80       ??_C@_03MNHNFDLC@?9?$DO?$CK?$AA@ 000000014007ec80     LIBCMTD:undname.obj
 0002:00009c84       ??_C@_01KMDKNFGN@?1?$AA@   000000014007ec84     LIBCMTD:undname.obj
 0002:00009c88       ??_C@_01FGNFDNOH@?$CF?$AA@ 000000014007ec88     LIBCMTD:undname.obj
 0002:00009c8c       ??_C@_01MNNFJEPP@?$DM?$AA@ 000000014007ec8c     LIBCMTD:undname.obj
 0002:00009c90       ??_C@_02EHCHHCKH@?$DM?$DN?$AA@ 000000014007ec90     LIBCMTD:undname.obj
 0002:00009c94       ??_C@_01PPODPGHN@?$DO?$AA@ 000000014007ec94     LIBCMTD:undname.obj
 0002:00009c98       ??_C@_02EEKDKGMJ@?$DO?$DN?$AA@ 000000014007ec98     LIBCMTD:undname.obj
 0002:00009c9c       ??_C@_01IHBHIGKO@?0?$AA@   000000014007ec9c     LIBCMTD:undname.obj
 0002:00009ca0       ??_C@_02HCKGKOFO@?$CI?$CJ?$AA@ 000000014007eca0     LIBCMTD:undname.obj
 0002:00009ca4       ??_C@_01PJKLJHI@?$HO?$AA@  000000014007eca4     LIBCMTD:undname.obj
 0002:00009ca8       ??_C@_01JKBOJNNK@?$FO?$AA@ 000000014007eca8     LIBCMTD:undname.obj
 0002:00009cac       ??_C@_01DNKMNLPK@?$HM?$AA@ 000000014007ecac     LIBCMTD:undname.obj
 0002:00009cb0       ??_C@_02PPKAJPJL@?$CG?$CG?$AA@ 000000014007ecb0     LIBCMTD:undname.obj
 0002:00009cb4       ??_C@_02NONPIBCD@?$HM?$HM?$AA@ 000000014007ecb4     LIBCMTD:undname.obj
 0002:00009cb8       ??_C@_02FPIMKNGF@?$CK?$DN?$AA@ 000000014007ecb8     LIBCMTD:undname.obj
 0002:00009cbc       ??_C@_02FOEOMHFC@?$CL?$DN?$AA@ 000000014007ecbc     LIBCMTD:undname.obj
 0002:00009cc0       ??_C@_02FKMDLLOA@?9?$DN?$AA@ 000000014007ecc0     LIBCMTD:undname.obj
 0002:00009cc4       ??_C@_02FJEHGPIO@?1?$DN?$AA@ 000000014007ecc4     LIBCMTD:undname.obj
 0002:00009cc8       ??_C@_02FENAOKFI@?$CF?$DN?$AA@ 000000014007ecc8     LIBCMTD:undname.obj
 0002:00009ccc       ??_C@_03IKFCCPFF@?$DO?$DO?$DN?$AA@ 000000014007eccc     LIBCMTD:undname.obj
 0002:00009cd0       ??_C@_03CDNPDDLA@?$DM?$DM?$DN?$AA@ 000000014007ecd0     LIBCMTD:undname.obj
 0002:00009cd4       ??_C@_02FGJGFEAB@?$CG?$DN?$AA@ 000000014007ecd4     LIBCMTD:undname.obj
 0002:00009cd8       ??_C@_02DHLNPPGH@?$HM?$DN?$AA@ 000000014007ecd8     LIBCMTD:undname.obj
 0002:00009cdc       ??_C@_02MHEGNOJ@?$FO?$DN?$AA@ 000000014007ecdc     LIBCMTD:undname.obj
 0002:00009ce0       ??_C@_09IFPLHPGF@?$GAvftable?8?$AA@ 000000014007ece0     LIBCMTD:undname.obj
 0002:00009cf0       ??_C@_09BLBHBJP@?$GAvbtable?8?$AA@ 000000014007ecf0     LIBCMTD:undname.obj
 0002:00009d00       ??_C@_07FEEIOKP@?$GAvcall?8?$AA@ 000000014007ed00     LIBCMTD:undname.obj
 0002:00009d08       ??_C@_08LLFFHHDJ@?$GAtypeof?8?$AA@ 000000014007ed08     LIBCMTD:undname.obj
 0002:00009d18       ??_C@_0BF@KDPPACIK@?$GAlocal?5static?5guard?8?$AA@ 000000014007ed18     LIBCMTD:undname.obj
 0002:00009d30       ??_C@_08OBABFOLI@?$GAstring?8?$AA@ 000000014007ed30     LIBCMTD:undname.obj
 0002:00009d40       ??_C@_0BD@JDLKDPAB@?$GAvbase?5destructor?8?$AA@ 000000014007ed40     LIBCMTD:undname.obj
 0002:00009d58       ??_C@_0BN@DEGPLNFK@?$GAvector?5deleting?5destructor?8?$AA@ 000000014007ed58     LIBCMTD:undname.obj
 0002:00009d78       ??_C@_0BO@OBMKPJIG@?$GAdefault?5constructor?5closure?8?$AA@ 000000014007ed78     LIBCMTD:undname.obj
 0002:00009d98       ??_C@_0BN@IMDCHIKM@?$GAscalar?5deleting?5destructor?8?$AA@ 000000014007ed98     LIBCMTD:undname.obj
 0002:00009db8       ??_C@_0BO@PFGOCPJJ@?$GAvector?5constructor?5iterator?8?$AA@ 000000014007edb8     LIBCMTD:undname.obj
 0002:00009dd8       ??_C@_0BN@LFPFMEDL@?$GAvector?5destructor?5iterator?8?$AA@ 000000014007edd8     LIBCMTD:undname.obj
 0002:00009df8       ??_C@_0CE@IKBNEHA@?$GAvector?5vbase?5constructor?5iterat@ 000000014007edf8     LIBCMTD:undname.obj
 0002:00009e20       ??_C@_0BL@NILFHHPC@?$GAvirtual?5displacement?5map?8?$AA@ 000000014007ee20     LIBCMTD:undname.obj
 0002:00009e40       ??_C@_0CB@JONCMFFK@?$GAeh?5vector?5constructor?5iterator?8@ 000000014007ee40     LIBCMTD:undname.obj
 0002:00009e68       ??_C@_0CA@GCEOPDGL@?$GAeh?5vector?5destructor?5iterator?8?$AA@ 000000014007ee68     LIBCMTD:undname.obj
 0002:00009e88       ??_C@_0CH@OOJPLCPH@?$GAeh?5vector?5vbase?5constructor?5ite@ 000000014007ee88     LIBCMTD:undname.obj
 0002:00009eb0       ??_C@_0BL@LLKPOHJI@?$GAcopy?5constructor?5closure?8?$AA@ 000000014007eeb0     LIBCMTD:undname.obj
 0002:00009ed0       ??_C@_0BA@KBCDOMBN@?$GAudt?5returning?8?$AA@ 000000014007eed0     LIBCMTD:undname.obj
 0002:00009ee0       ??_C@_03KLGMFNMG@?$GAEH?$AA@ 000000014007eee0     LIBCMTD:undname.obj
 0002:00009ee4       ??_C@_05KHLCHHI@?$GARTTI?$AA@ 000000014007eee4     LIBCMTD:undname.obj
 0002:00009ef0       ??_C@_0BA@KKLDJDLB@?$GAlocal?5vftable?8?$AA@ 000000014007eef0     LIBCMTD:undname.obj
 0002:00009f00       ??_C@_0CE@IIHCMGGL@?$GAlocal?5vftable?5constructor?5closu@ 000000014007ef00     LIBCMTD:undname.obj
 0002:00009f24       ??_C@_06FHBGPFGH@?5new?$FL?$FN?$AA@ 000000014007ef24     LIBCMTD:undname.obj
 0002:00009f30       ??_C@_09LBNFPBCA@?5delete?$FL?$FN?$AA@ 000000014007ef30     LIBCMTD:undname.obj
 0002:00009f40       ??_C@_0P@HJKNJFNN@?$GAomni?5callsig?8?$AA@ 000000014007ef40     LIBCMTD:undname.obj
 0002:00009f50       ??_C@_0BL@CNOONJFP@?$GAplacement?5delete?5closure?8?$AA@ 000000014007ef50     LIBCMTD:undname.obj
 0002:00009f70       ??_C@_0BN@CKNJLHMB@?$GAplacement?5delete?$FL?$FN?5closure?8?$AA@ 000000014007ef70     LIBCMTD:undname.obj
 0002:00009f90       ??_C@_0CG@CFDHKGGD@?$GAmanaged?5vector?5constructor?5iter@ 000000014007ef90     LIBCMTD:undname.obj
 0002:00009fb8       ??_C@_0CF@IMGKMJNO@?$GAmanaged?5vector?5destructor?5itera@ 000000014007efb8     LIBCMTD:undname.obj
 0002:00009fe0       ??_C@_0CG@HLDDJMAG@?$GAeh?5vector?5copy?5constructor?5iter@ 000000014007efe0     LIBCMTD:undname.obj
 0002:0000a008       ??_C@_0CM@FCBBDIGB@?$GAeh?5vector?5vbase?5copy?5constructo@ 000000014007f008     LIBCMTD:undname.obj
 0002:0000a038       ??_C@_0BL@CLIPGLGB@?$GAdynamic?5initializer?5for?5?8?$AA@ 000000014007f038     LIBCMTD:undname.obj
 0002:0000a058       ??_C@_0CB@PDBIFEP@?$GAdynamic?5atexit?5destructor?5for?5?8@ 000000014007f058     LIBCMTD:undname.obj
 0002:0000a080       ??_C@_0CD@CGAJBKEJ@?$GAvector?5copy?5constructor?5iterato@ 000000014007f080     LIBCMTD:undname.obj
 0002:0000a0a8       ??_C@_0CJ@GJELGAMM@?$GAvector?5vbase?5copy?5constructor?5i@ 000000014007f0a8     LIBCMTD:undname.obj
 0002:0000a0d8       ??_C@_0CL@FGIJHLCE@?$GAmanaged?5vector?5copy?5constructor@ 000000014007f0d8     LIBCMTD:undname.obj
 0002:0000a108       ??_C@_0BM@PMGGMLDN@?$GAlocal?5static?5thread?5guard?8?$AA@ 000000014007f108     LIBCMTD:undname.obj
 0002:0000a128       ??_C@_0BC@DAFEJGAK@?5Type?5Descriptor?8?$AA@ 000000014007f128     LIBCMTD:undname.obj
 0002:0000a140       ??_C@_0BM@LDKODKLH@?5Base?5Class?5Descriptor?5at?5?$CI?$AA@ 000000014007f140     LIBCMTD:undname.obj
 0002:0000a160       ??_C@_0BD@LGICGFMM@?5Base?5Class?5Array?8?$AA@ 000000014007f160     LIBCMTD:undname.obj
 0002:0000a178       ??_C@_0BN@MECKDCOJ@?5Class?5Hierarchy?5Descriptor?8?$AA@ 000000014007f178     LIBCMTD:undname.obj
 0002:0000a198       ??_C@_0BK@CFCOFLF@?5Complete?5Object?5Locator?8?$AA@ 000000014007f198     LIBCMTD:undname.obj
 0002:0000a1e8       ??_C@_04HEJADOOB@CV?3?5?$AA@ 000000014007f1e8     LIBCMTD:undname.obj
 0002:0000a1f0       ??_C@_02MOLJINC@?3?3?$AA@  000000014007f1f0     LIBCMTD:undname.obj
 0002:0000a1f8       ??_C@_0BE@JAEOCHPE@template?9parameter?9?$AA@ 000000014007f1f8     LIBCMTD:undname.obj
 0002:0000a210       ??_C@_0O@KHGCOMHP@generic?9type?9?$AA@ 000000014007f210     LIBCMTD:undname.obj
 0002:0000a220       ??_C@_01NLNLIGKH@?$GA?$AA@ 000000014007f220     LIBCMTD:undname.obj
 0002:0000a224       ??_C@_01GEODFPGF@?8?$AA@   000000014007f224     LIBCMTD:undname.obj
 0002:0000a228       ??_C@_0BG@JNJLAMPM@?$GAanonymous?5namespace?8?$AA@ 000000014007f228     LIBCMTD:undname.obj
 0002:0000a240       ??_C@_02OHHJMEON@?8?8?$AA@ 000000014007f240     LIBCMTD:undname.obj
 0002:0000a248       ??_C@_0BN@IBLMMFAP@?$GAnon?9type?9template?9parameter?$AA@ 000000014007f248     LIBCMTD:undname.obj
 0002:0000a268       ??_C@_04GKJNKENE@void?$AA@ 000000014007f268     LIBCMTD:undname.obj
 0002:0000a270       ??_C@_0BE@EODMJLIF@?$GAtemplate?9parameter?$AA@ 000000014007f270     LIBCMTD:undname.obj
 0002:0000a284       ??_C@_04HIBGFPH@NULL?$AA@  000000014007f284     LIBCMTD:undname.obj
 0002:0000a28c       ??_C@_03OPGICMGF@?$HN?8?5?$AA@ 000000014007f28c     LIBCMTD:undname.obj
 0002:0000a290       ??_C@_02IGFCGPIL@?$HN?8?$AA@ 000000014007f290     LIBCMTD:undname.obj
 0002:0000a294       ??_C@_01CLKCMJKC@?5?$AA@   000000014007f294     LIBCMTD:undname.obj
 0002:0000a298       ??_C@_0N@CBHHHENL@?$GAvtordispex?$HL?$AA@ 000000014007f298     LIBCMTD:undname.obj
 0002:0000a2a8       ??_C@_0L@GHPFDFH@?$GAvtordisp?$HL?$AA@ 000000014007f2a8     LIBCMTD:undname.obj
 0002:0000a2b8       ??_C@_0L@HNGCOGAE@?$GAadjustor?$HL?$AA@ 000000014007f2b8     LIBCMTD:undname.obj
 0002:0000a2c8       ??_C@_0CB@KJDOOODE@?$GAlocal?5static?5destructor?5helper?8@ 000000014007f2c8     LIBCMTD:undname.obj
 0002:0000a2f0       ??_C@_0DB@ILEFOCIJ@?$GAtemplate?5static?5data?5member?5con@ 000000014007f2f0     LIBCMTD:undname.obj
 0002:0000a328       ??_C@_0DA@HGFJFBBE@?$GAtemplate?5static?5data?5member?5des@ 000000014007f328     LIBCMTD:undname.obj
 0002:0000a358       ??_C@_07PGOEDBHP@static?5?$AA@ 000000014007f358     LIBCMTD:undname.obj
 0002:0000a360       ??_C@_08NIEOINHE@virtual?5?$AA@ 000000014007f360     LIBCMTD:undname.obj
 0002:0000a370       ??_C@_09LAPHOOG@private?3?5?$AA@ 000000014007f370     LIBCMTD:undname.obj
 0002:0000a380       ??_C@_0M@GAIFPFIP@protected?3?5?$AA@ 000000014007f380     LIBCMTD:undname.obj
 0002:0000a390       ??_C@_08GPDDCMKI@public?3?5?$AA@ 000000014007f390     LIBCMTD:undname.obj
 0002:0000a3a0       ??_C@_08KJLFOPNE@?$FLthunk?$FN?3?$AA@ 000000014007f3a0     LIBCMTD:undname.obj
 0002:0000a3b0       ??_C@_0M@DHNBOJMP@extern?5?$CCC?$CC?5?$AA@ 000000014007f3b0     LIBCMTD:undname.obj
 0002:0000a3bc       ??_C@_02KCKGHPCA@?$CJ?5?$AA@ 000000014007f3bc     LIBCMTD:undname.obj
 0002:0000a3c0       ??_C@_05CIHEBHNO@char?5?$AA@ 000000014007f3c0     LIBCMTD:undname.obj
 0002:0000a3c8       ??_C@_06EHJMALKF@short?5?$AA@ 000000014007f3c8     LIBCMTD:undname.obj
 0002:0000a3d0       ??_C@_04LAHKHJMA@int?5?$AA@ 000000014007f3d0     LIBCMTD:undname.obj
 0002:0000a3d8       ??_C@_05CJIMAING@long?5?$AA@ 000000014007f3d8     LIBCMTD:undname.obj
 0002:0000a3e0       ??_C@_09EBBEKKIH@unsigned?5?$AA@ 000000014007f3e0     LIBCMTD:undname.obj
 0002:0000a3ec       ??_C@_05BEFAKPML@void?5?$AA@ 000000014007f3ec     LIBCMTD:undname.obj
 0002:0000a3f8       ??_C@_08PABEKFH@volatile?$AA@ 000000014007f3f8     LIBCMTD:undname.obj
 0002:0000a408       ??_C@_0P@GCOCNKDM@std?3?3nullptr_t?$AA@ 000000014007f408     LIBCMTD:undname.obj
 0002:0000a418       ??_C@_0L@EGPHHEKN@?$DMellipsis?$DO?$AA@ 000000014007f418     LIBCMTD:undname.obj
 0002:0000a424       ??_C@_04EENFHACM@?0?4?4?4?$AA@ 000000014007f424     LIBCMTD:undname.obj
 0002:0000a430       ??_C@_0M@ELJOJFFH@?0?$DMellipsis?$DO?$AA@ 000000014007f430     LIBCMTD:undname.obj
 0002:0000a440       ??_C@_07HDJPLPEK@?5throw?$CI?$AA@ 000000014007f440     LIBCMTD:undname.obj
 0002:0000a448       ??_C@_03PBJBJNON@cpu?$AA@  000000014007f448     LIBCMTD:undname.obj
 0002:0000a44c       ??_C@_03DCBBJBAA@amp?$AA@  000000014007f44c     LIBCMTD:undname.obj
 0002:0000a450       ??_C@_02KEGNLNML@?0?5?$AA@ 000000014007f450     LIBCMTD:undname.obj
 0002:0000a454       ??_C@_04ENMBGAPA@char?$AA@ 000000014007f454     LIBCMTD:undname.obj
 0002:0000a45c       ??_C@_05BFKKPKCG@short?$AA@ 000000014007f45c     LIBCMTD:undname.obj
 0002:0000a464       ??_C@_03JBIPMCLC@int?$AA@  000000014007f464     LIBCMTD:undname.obj
 0002:0000a468       ??_C@_04GOKPGOLB@long?$AA@ 000000014007f468     LIBCMTD:undname.obj
 0002:0000a470       ??_C@_05KNFBNCOH@float?$AA@ 000000014007f470     LIBCMTD:undname.obj
 0002:0000a478       ??_C@_06BNJCAIGJ@double?$AA@ 000000014007f478     LIBCMTD:undname.obj
 0002:0000a480       ??_C@_04DDKJGDCM@bool?$AA@ 000000014007f480     LIBCMTD:undname.obj
 0002:0000a488       ??_C@_06EBGKOKIG@__int8?$AA@ 000000014007f488     LIBCMTD:undname.obj
 0002:0000a490       ??_C@_07ICFHOGAF@__int16?$AA@ 000000014007f490     LIBCMTD:undname.obj
 0002:0000a498       ??_C@_07OFLPPHGP@__int32?$AA@ 000000014007f498     LIBCMTD:undname.obj
 0002:0000a4a0       ??_C@_07LFCOJCAC@__int64?$AA@ 000000014007f4a0     LIBCMTD:undname.obj
 0002:0000a4a8       ??_C@_08GAHOLHEO@__int128?$AA@ 000000014007f4a8     LIBCMTD:undname.obj
 0002:0000a4b8       ??_C@_09EEKGDCPH@?$DMunknown?$DO?$AA@ 000000014007f4b8     LIBCMTD:undname.obj
 0002:0000a4c8       ??_C@_07CLGGIAMF@wchar_t?$AA@ 000000014007f4c8     LIBCMTD:undname.obj
 0002:0000a4d0       ??_C@_06GCICPBLB@__w64?5?$AA@ 000000014007f4d0     LIBCMTD:undname.obj
 0002:0000a4d8       ??_C@_07NFANNNEC@UNKNOWN?$AA@ 000000014007f4d8     LIBCMTD:undname.obj
 0002:0000a4e0       ??_C@_07EDHNAJHC@signed?5?$AA@ 000000014007f4e0     LIBCMTD:undname.obj
 0002:0000a4e8       ??_C@_05BNCCCJPP@const?$AA@ 000000014007f4e8     LIBCMTD:undname.obj
 0002:0000a4f0       ??_C@_09EFNPDFFP@?5volatile?$AA@ 000000014007f4f0     LIBCMTD:undname.obj
 0002:0000a500       ??_C@_0P@GCIFDJCJ@?$GAunknown?5ecsu?8?$AA@ 000000014007f500     LIBCMTD:undname.obj
 0002:0000a510       ??_C@_06MOJHIBMG@union?5?$AA@ 000000014007f510     LIBCMTD:undname.obj
 0002:0000a518       ??_C@_07DIBCDNGL@struct?5?$AA@ 000000014007f518     LIBCMTD:undname.obj
 0002:0000a520       ??_C@_06LJBABKPM@class?5?$AA@ 000000014007f520     LIBCMTD:undname.obj
 0002:0000a528       ??_C@_08KOFANOFK@coclass?5?$AA@ 000000014007f528     LIBCMTD:undname.obj
 0002:0000a538       ??_C@_0N@DLIEFKNA@cointerface?5?$AA@ 000000014007f538     LIBCMTD:undname.obj
 0002:0000a548       ??_C@_05LJGMCFOG@enum?5?$AA@ 000000014007f548     LIBCMTD:undname.obj
 0002:0000a550       ??_C@_09GAIEOBLP@volatile?5?$AA@ 000000014007f550     LIBCMTD:undname.obj
 0002:0000a55c       ??_C@_06LIJLOJAG@const?5?$AA@ 000000014007f55c     LIBCMTD:undname.obj
 0002:0000a568       ??_C@_0M@EALIELKG@cli?3?3array?$DM?$AA@ 000000014007f568     LIBCMTD:undname.obj
 0002:0000a578       ??_C@_0O@GKABPPIF@cli?3?3pin_ptr?$DM?$AA@ 000000014007f578     LIBCMTD:undname.obj
 0002:0000a588       ??_C@_02GOGNNPBN@?$CJ?$FL?$AA@ 000000014007f588     LIBCMTD:undname.obj
 0002:0000a58c       ??_C@_06EEGAIFAK@?$HLflat?$HN?$AA@ 000000014007f58c     LIBCMTD:undname.obj
 0002:0000a594       ??_C@_05JIBOFOHK@?$HLfor?5?$AA@ 000000014007f594     LIBCMTD:undname.obj
 0002:0000a59c       ??_C@_02MDINNEEG@s?5?$AA@  000000014007f59c     LIBCMTD:undname.obj
 0002:0000a5a8       ??_7DNameNode@@6B@         000000014007f5a8     LIBCMTD:undname.obj
 0002:0000a5c8       ??_7charNode@@6B@          000000014007f5c8     LIBCMTD:undname.obj
 0002:0000a5e8       ??_7pcharNode@@6B@         000000014007f5e8     LIBCMTD:undname.obj
 0002:0000a608       ??_7pDNameNode@@6B@        000000014007f608     LIBCMTD:undname.obj
 0002:0000a628       ??_7DNameStatusNode@@6B@   000000014007f628     LIBCMTD:undname.obj
 0002:0000a648       ??_7pairNode@@6B@          000000014007f648     LIBCMTD:undname.obj
 0002:0000a660       ??_C@_04OKOHEJBO@?5?$DP?$DP?5?$AA@ 000000014007f660     LIBCMTD:undname.obj
 0002:0000a668       ??_C@_0DF@GEIKHPOC@f?3?2dd?2vctools?2crt_bld?2self_64_am@ 000000014007f668     LIBCMTD:onexit.obj
 0002:0000a6a0       ??_C@_1CK@GFDNDKK@?$AA_?$AAR?$AAa?$AAn?$AAd?$AAo?$AAm?$AAV?$AAa?$AAl?$AAu?$AAe?$AA?5?$AA?$CB?$AA?$DN?$AA?5?$AAN?$AAU?$AAL?$AAL?$AA?$AA@ 000000014007f6a0     LIBCMTD:rand_s.obj
 0002:0000a6d0       ??_C@_1GK@BPOMKGBH@?$AAf?$AA?3?$AA?2?$AAd?$AAd?$AA?2?$AAv?$AAc?$AAt?$AAo?$AAo?$AAl?$AAs?$AA?2?$AAc?$AAr?$AAt?$AA_?$AAb?$AAl?$AAd?$AA?2?$AAs?$AAe?$AAl?$AAf?$AA_?$AA6?$AA4?$AA_?$AAa?$AAm@ 000000014007f6d0     LIBCMTD:rand_s.obj
 0002:0000a740       ??_C@_1O@IJGPPOGF@?$AAr?$AAa?$AAn?$AAd?$AA_?$AAs?$AA?$AA@ 000000014007f740     LIBCMTD:rand_s.obj
 0002:0000a750       ??_C@_1BK@GAEMIDIL@?$AAA?$AAD?$AAV?$AAA?$AAP?$AAI?$AA3?$AA2?$AA?4?$AAD?$AAL?$AAL?$AA?$AA@ 000000014007f750     LIBCMTD:rand_s.obj
 0002:0000a770       ??_C@_1GA@EBEDGGGB@?$AA?$CI?$AA?$CC?$AAr?$AAa?$AAn?$AAd?$AA_?$AAs?$AA?5?$AAi?$AAs?$AA?5?$AAn?$AAo?$AAt?$AA?5?$AAa?$AAv?$AAa?$AAi?$AAl?$AAa?$AAb?$AAl?$AAe?$AA?5?$AAo?$AAn?$AA?5?$AAt?$AAh?$AAi@ 000000014007f770     LIBCMTD:rand_s.obj
 0002:0000a7d0       ??_C@_0BC@JEAENNKH@SystemFunction036?$AA@ 000000014007f7d0     LIBCMTD:rand_s.obj
 0002:0000a7f0       ??_C@_1GM@EPPIIABD@?$AAf?$AA?3?$AA?2?$AAd?$AAd?$AA?2?$AAv?$AAc?$AAt?$AAo?$AAo?$AAl?$AAs?$AA?2?$AAc?$AAr?$AAt?$AA_?$AAb?$AAl?$AAd?$AA?2?$AAs?$AAe?$AAl?$AAf?$AA_?$AA6?$AA4?$AA_?$AAa?$AAm@ 000000014007f7f0     LIBCMTD:_sftbuf.obj
 0002:0000a860       ??_C@_0DG@NKGMMPE@f?3?2dd?2vctools?2crt_bld?2self_64_am@ 000000014007f860     LIBCMTD:_sftbuf.obj
 0002:0000a898       ??_C@_1CO@KCKAACMI@?$AAf?$AAl?$AAa?$AAg?$AA?5?$AA?$DN?$AA?$DN?$AA?5?$AA0?$AA?5?$AA?$HM?$AA?$HM?$AA?5?$AAf?$AAl?$AAa?$AAg?$AA?5?$AA?$DN?$AA?$DN?$AA?5?$AA1?$AA?$AA@ 000000014007f898     LIBCMTD:_sftbuf.obj
 0002:0000a8f0       ??_C@_1GO@JNKHIJID@?$AAf?$AA?3?$AA?2?$AAd?$AAd?$AA?2?$AAv?$AAc?$AAt?$AAo?$AAo?$AAl?$AAs?$AA?2?$AAc?$AAr?$AAt?$AA_?$AAb?$AAl?$AAd?$AA?2?$AAs?$AAe?$AAl?$AAf?$AA_?$AA6?$AA4?$AA_?$AAa?$AAm@ 000000014007f8f0     LIBCMTD:vswprint.obj
 0002:0000a960       ??_C@_1BK@EPLNBKAK@?$AA_?$AAv?$AAs?$AAw?$AAp?$AAr?$AAi?$AAn?$AAt?$AAf?$AA_?$AAl?$AA?$AA@ 000000014007f960     LIBCMTD:vswprint.obj
 0002:0000a980       ??_C@_1CG@IMMIEPNA@?$AA_?$AAv?$AAs?$AAc?$AAw?$AAp?$AAr?$AAi?$AAn?$AAt?$AAf?$AA_?$AAh?$AAe?$AAl?$AAp?$AAe?$AAr?$AA?$AA@ 000000014007f980     LIBCMTD:vswprint.obj
 0002:0000a9a8       ??_C@_1CE@IGKFIJFD@?$AA_?$AAv?$AAs?$AAw?$AAp?$AAr?$AAi?$AAn?$AAt?$AAf?$AA_?$AAh?$AAe?$AAl?$AAp?$AAe?$AAr?$AA?$AA@ 000000014007f9a8     LIBCMTD:vswprnc.obj
 0002:0000a9d0       ??_C@_1BO@OALHJLCI@?$AA_?$AAv?$AAs?$AAw?$AAp?$AAr?$AAi?$AAn?$AAt?$AAf?$AA_?$AAs?$AA_?$AAl?$AA?$AA@ 000000014007f9d0     LIBCMTD:vswprnc.obj
 0002:0000a9f0       ??_C@_1EE@MPCHJFGP@?$AAs?$AAt?$AAr?$AAi?$AAn?$AAg?$AA?5?$AA?$CB?$AA?$DN?$AA?5?$AAN?$AAU?$AAL?$AAL?$AA?5?$AA?$CG?$AA?$CG?$AA?5?$AAs?$AAi?$AAz?$AAe?$AAI?$AAn?$AAW?$AAo?$AAr?$AAd?$AAs?$AA?5?$AA?$DO?$AA?5@ 000000014007f9f0     LIBCMTD:vswprnc.obj
 0002:0000aa38       ??_C@_1CA@BKFKMJFF@?$AA_?$AAv?$AAs?$AAn?$AAw?$AAp?$AAr?$AAi?$AAn?$AAt?$AAf?$AA_?$AAs?$AA_?$AAl?$AA?$AA@ 000000014007fa38     LIBCMTD:vswprnc.obj
 0002:0000aa58       ??_C@_1BG@BBCDFOMA@?$AA_?$AAw?$AAo?$AAu?$AAt?$AAp?$AAu?$AAt?$AA_?$AAl?$AA?$AA@ 000000014007fa58     LIBCMTD:woutput.obj
 0002:0000aa70       ??_C@_1BC@HGPNAKGC@?$AAs?$AAt?$AAr?$AAc?$AAa?$AAt?$AA_?$AAs?$AA?$AA@ 000000014007fa70     LIBCMTD:strcat_s.obj
 0002:0000aa88       ??_C@_1BI@ICGGMGLK@?$AAb?$AAu?$AAf?$AA?5?$AA?$CB?$AA?$DN?$AA?5?$AAN?$AAU?$AAL?$AAL?$AA?$AA@ 000000014007fa88     LIBCMTD:xtoas.obj
 0002:0000aaa0       ??_C@_1GG@LKIPKMBN@?$AAf?$AA?3?$AA?2?$AAd?$AAd?$AA?2?$AAv?$AAc?$AAt?$AAo?$AAo?$AAl?$AAs?$AA?2?$AAc?$AAr?$AAt?$AA_?$AAb?$AAl?$AAd?$AA?2?$AAs?$AAe?$AAl?$AAf?$AA_?$AA6?$AA4?$AA_?$AAa?$AAm@ 000000014007faa0     LIBCMTD:xtoas.obj
 0002:0000ab08       ??_C@_1O@GIMBNLEI@?$AAx?$AAt?$AAo?$AAa?$AA_?$AAs?$AA?$AA@ 000000014007fb08     LIBCMTD:xtoas.obj
 0002:0000ab18       ??_C@_1CC@JNJFIMGE@?$AAs?$AAi?$AAz?$AAe?$AAI?$AAn?$AAT?$AAC?$AAh?$AAa?$AAr?$AAs?$AA?5?$AA?$DO?$AA?5?$AA0?$AA?$AA@ 000000014007fb18     LIBCMTD:xtoas.obj
 0002:0000ab40       ??_C@_1FA@MKGGAGEI@?$AAs?$AAi?$AAz?$AAe?$AAI?$AAn?$AAT?$AAC?$AAh?$AAa?$AAr?$AAs?$AA?5?$AA?$DO?$AA?5?$AA?$CI?$AAs?$AAi?$AAz?$AAe?$AA_?$AAt?$AA?$CJ?$AA?$CI?$AAi?$AAs?$AA_?$AAn?$AAe?$AAg?$AA?5?$AA?$DP@ 000000014007fb40     LIBCMTD:xtoas.obj
 0002:0000ab90       ??_C@_1DE@PCJGDBBD@?$AA2?$AA?5?$AA?$DM?$AA?$DN?$AA?5?$AAr?$AAa?$AAd?$AAi?$AAx?$AA?5?$AA?$CG?$AA?$CG?$AA?5?$AAr?$AAa?$AAd?$AAi?$AAx?$AA?5?$AA?$DM?$AA?$DN?$AA?5?$AA3?$AA6?$AA?$AA@ 000000014007fb90     LIBCMTD:xtoas.obj
 0002:0000abc8       ??_C@_1CM@HABGDNLJ@?$AAl?$AAe?$AAn?$AAg?$AAt?$AAh?$AA?5?$AA?$DM?$AA?5?$AAs?$AAi?$AAz?$AAe?$AAI?$AAn?$AAT?$AAC?$AAh?$AAa?$AAr?$AAs?$AA?$AA@ 000000014007fbc8     LIBCMTD:xtoas.obj
 0002:0000abf8       ??_C@_1BC@MJJNBNFN@?$AAx?$AA6?$AA4?$AAt?$AAo?$AAa?$AA_?$AAs?$AA?$AA@ 000000014007fbf8     LIBCMTD:xtoas.obj
 0002:0000ac10       ??_C@_1BE@EEKACIGI@?$AAs?$AA?5?$AA?$CB?$AA?$DN?$AA?5?$AAN?$AAU?$AAL?$AAL?$AA?$AA@ 000000014007fc10     LIBCMTD:mbstowcs.obj
 0002:0000ac30       ??_C@_1GO@CFAJLDBM@?$AAf?$AA?3?$AA?2?$AAd?$AAd?$AA?2?$AAv?$AAc?$AAt?$AAo?$AAo?$AAl?$AAs?$AA?2?$AAc?$AAr?$AAt?$AA_?$AAb?$AAl?$AAd?$AA?2?$AAs?$AAe?$AAl?$AAf?$AA_?$AA6?$AA4?$AA_?$AAa?$AAm@ 000000014007fc30     LIBCMTD:mbstowcs.obj
 0002:0000aca0       ??_C@_1CG@JEHFHLNG@?$AA_?$AAm?$AAb?$AAs?$AAt?$AAo?$AAw?$AAc?$AAs?$AA_?$AAl?$AA_?$AAh?$AAe?$AAl?$AAp?$AAe?$AAr?$AA?$AA@ 000000014007fca0     LIBCMTD:mbstowcs.obj
 0002:0000acd0       ??_C@_1JA@JKDFMOPO@?$AA?$CI?$AAp?$AAw?$AAc?$AAs?$AA?5?$AA?$DN?$AA?$DN?$AA?5?$AAN?$AAU?$AAL?$AAL?$AA?5?$AA?$CG?$AA?$CG?$AA?5?$AAs?$AAi?$AAz?$AAe?$AAI?$AAn?$AAW?$AAo?$AAr?$AAd?$AAs?$AA?5?$AA?$DN?$AA?$DN?$AA?5@ 000000014007fcd0     LIBCMTD:mbstowcs.obj
 0002:0000ad60       ??_C@_1BM@PHENIGHD@?$AA_?$AAm?$AAb?$AAs?$AAt?$AAo?$AAw?$AAc?$AAs?$AA_?$AAs?$AA_?$AAl?$AA?$AA@ 000000014007fd60     LIBCMTD:mbstowcs.obj
 0002:0000ad80       ??_C@_1CM@LLECFMFH@?$AAb?$AAu?$AAf?$AAf?$AAe?$AAr?$AAS?$AAi?$AAz?$AAe?$AA?5?$AA?$DM?$AA?$DN?$AA?5?$AAI?$AAN?$AAT?$AA_?$AAM?$AAA?$AAX?$AA?$AA@ 000000014007fd80     LIBCMTD:mbstowcs.obj
 0002:0000adb0       ??_C@_1CO@JNPEPJAL@?$AAr?$AAe?$AAt?$AAs?$AAi?$AAz?$AAe?$AA?5?$AA?$DM?$AA?$DN?$AA?5?$AAs?$AAi?$AAz?$AAe?$AAI?$AAn?$AAW?$AAo?$AAr?$AAd?$AAs?$AA?$AA@ 000000014007fdb0     LIBCMTD:mbstowcs.obj
 0002:0000ade0       ??_C@_1BK@OIBENBPM@?$AAp?$AAw?$AAc?$AAs?$AA?5?$AA?$CB?$AA?$DN?$AA?5?$AAN?$AAU?$AAL?$AAL?$AA?$AA@ 000000014007fde0     LIBCMTD:wcstombs.obj
 0002:0000ae00       ??_C@_1GO@HHGHEDDI@?$AAf?$AA?3?$AA?2?$AAd?$AAd?$AA?2?$AAv?$AAc?$AAt?$AAo?$AAo?$AAl?$AAs?$AA?2?$AAc?$AAr?$AAt?$AA_?$AAb?$AAl?$AAd?$AA?2?$AAs?$AAe?$AAl?$AAf?$AA_?$AA6?$AA4?$AA_?$AAa?$AAm@ 000000014007fe00     LIBCMTD:wcstombs.obj
 0002:0000ae70       ??_C@_1CG@LLJCAOHF@?$AA_?$AAw?$AAc?$AAs?$AAt?$AAo?$AAm?$AAb?$AAs?$AA_?$AAl?$AA_?$AAh?$AAe?$AAl?$AAp?$AAe?$AAr?$AA?$AA@ 000000014007fe70     LIBCMTD:wcstombs.obj
 0002:0000aea0       ??_C@_1IM@MFGKHGBP@?$AA?$CI?$AAd?$AAs?$AAt?$AA?5?$AA?$CB?$AA?$DN?$AA?5?$AAN?$AAU?$AAL?$AAL?$AA?5?$AA?$CG?$AA?$CG?$AA?5?$AAs?$AAi?$AAz?$AAe?$AAI?$AAn?$AAB?$AAy?$AAt?$AAe?$AAs?$AA?5?$AA?$DO?$AA?5?$AA0?$AA?$CJ@ 000000014007fea0     LIBCMTD:wcstombs.obj
 0002:0000af30       ??_C@_1BM@BDMCLLDL@?$AA_?$AAw?$AAc?$AAs?$AAt?$AAo?$AAm?$AAb?$AAs?$AA_?$AAs?$AA_?$AAl?$AA?$AA@ 000000014007ff30     LIBCMTD:wcstombs.obj
 0002:0000af50       ??_C@_1CM@KEOGBFLI@?$AAs?$AAi?$AAz?$AAe?$AAI?$AAn?$AAB?$AAy?$AAt?$AAe?$AAs?$AA?5?$AA?$DO?$AA?5?$AAr?$AAe?$AAt?$AAs?$AAi?$AAz?$AAe?$AA?$AA@ 000000014007ff50     LIBCMTD:wcstombs.obj
 0002:0000af80       ??_C@_1O@NCBFODOE@?$AAx?$AAt?$AAo?$AAw?$AA_?$AAs?$AA?$AA@ 000000014007ff80     LIBCMTD:xtows.obj
 0002:0000af90       ??_C@_1BC@HDEJCFPB@?$AAx?$AA6?$AA4?$AAt?$AAo?$AAw?$AA_?$AAs?$AA?$AA@ 000000014007ff90     LIBCMTD:xtows.obj
 0002:0000afa8       ??_C@_0DG@PCFGJMBI@f?3?2dd?2vctools?2crt_bld?2self_64_am@ 000000014007ffa8     LIBCMTD:initmon.obj
 0002:0000afe0       ??_C@_1DM@GKAPAMDO@?$AAp?$AAl?$AAo?$AAc?$AAi?$AA?9?$AA?$DO?$AAl?$AAc?$AAo?$AAn?$AAv?$AA_?$AAm?$AAo?$AAn?$AA_?$AAr?$AAe?$AAf?$AAc?$AAo?$AAu?$AAn?$AAt?$AA?5?$AA?$DO?$AA?5?$AA0?$AA?$AA@ 000000014007ffe0     LIBCMTD:initmon.obj
 0002:0000b020       ??_C@_1GM@PDPOIHME@?$AAf?$AA?3?$AA?2?$AAd?$AAd?$AA?2?$AAv?$AAc?$AAt?$AAo?$AAo?$AAl?$AAs?$AA?2?$AAc?$AAr?$AAt?$AA_?$AAb?$AAl?$AAd?$AA?2?$AAs?$AAe?$AAl?$AAf?$AA_?$AA6?$AA4?$AA_?$AAa?$AAm@ 0000000140080020     LIBCMTD:initmon.obj
 0002:0000b090       ??_C@_0DG@EMCHMOHL@f?3?2dd?2vctools?2crt_bld?2self_64_am@ 0000000140080090     LIBCMTD:initnum.obj
 0002:0000b0c8       ??_C@_1DM@IFKAINNE@?$AAp?$AAl?$AAo?$AAc?$AAi?$AA?9?$AA?$DO?$AAl?$AAc?$AAo?$AAn?$AAv?$AA_?$AAn?$AAu?$AAm?$AA_?$AAr?$AAe?$AAf?$AAc?$AAo?$AAu?$AAn?$AAt?$AA?5?$AA?$DO?$AA?5?$AA0?$AA?$AA@ 00000001400800c8     LIBCMTD:initnum.obj
 0002:0000b110       ??_C@_1GM@DKGDEDPG@?$AAf?$AA?3?$AA?2?$AAd?$AAd?$AA?2?$AAv?$AAc?$AAt?$AAo?$AAo?$AAl?$AAs?$AA?2?$AAc?$AAr?$AAt?$AA_?$AAb?$AAl?$AAd?$AA?2?$AAs?$AAe?$AAl?$AAf?$AA_?$AA6?$AA4?$AA_?$AAa?$AAm@ 0000000140080110     LIBCMTD:initnum.obj
 0002:0000b180       ??_C@_0DH@KKGHHNB@f?3?2dd?2vctools?2crt_bld?2self_64_am@ 0000000140080180     LIBCMTD:inittime.obj
 0002:0000b1c0       ??_C@_1EE@FDHCFDHN@?$AAp?$AAl?$AAo?$AAc?$AAi?$AA?9?$AA?$DO?$AAl?$AAc?$AA_?$AAt?$AAi?$AAm?$AAe?$AA_?$AAc?$AAu?$AAr?$AAr?$AA?9?$AA?$DO?$AAr?$AAe?$AAf?$AAc?$AAo?$AAu?$AAn?$AAt?$AA?5?$AA?$DO?$AA?5@ 00000001400801c0     LIBCMTD:inittime.obj
 0002:0000b210       ??_C@_1GO@POAGLFBM@?$AAf?$AA?3?$AA?2?$AAd?$AAd?$AA?2?$AAv?$AAc?$AAt?$AAo?$AAo?$AAl?$AAs?$AA?2?$AAc?$AAr?$AAt?$AA_?$AAb?$AAl?$AAd?$AA?2?$AAs?$AAe?$AAl?$AAf?$AA_?$AA6?$AA4?$AA_?$AAa?$AAm@ 0000000140080210     LIBCMTD:inittime.obj
 0002:0000b320       ??_C@_1GM@EOKIPIBP@?$AAf?$AA?3?$AA?2?$AAd?$AAd?$AA?2?$AAv?$AAc?$AAt?$AAo?$AAo?$AAl?$AAs?$AA?2?$AAc?$AAr?$AAt?$AA_?$AAb?$AAl?$AAd?$AA?2?$AAs?$AAe?$AAl?$AAf?$AA_?$AA6?$AA4?$AA_?$AAa?$AAm@ 0000000140080320     LIBCMTD:vprintf.obj
 0002:0000b390       ??_C@_1BO@JGFPDJCP@?$AAv?$AAp?$AAr?$AAi?$AAn?$AAt?$AAf?$AA_?$AAh?$AAe?$AAl?$AAp?$AAe?$AAr?$AA?$AA@ 0000000140080390     LIBCMTD:vprintf.obj
 0002:0000b3b0       ??_C@_0DH@OFDAFCDL@f?3?2dd?2vctools?2crt_bld?2self_64_am@ 00000001400803b0     LIBCMTD:initctyp.obj
 0002:0000b3f0       ??_C@_1GO@HFNANBHP@?$AAf?$AA?3?$AA?2?$AAd?$AAd?$AA?2?$AAv?$AAc?$AAt?$AAo?$AAo?$AAl?$AAs?$AA?2?$AAc?$AAr?$AAt?$AA_?$AAb?$AAl?$AAd?$AA?2?$AAs?$AAe?$AAl?$AAf?$AA_?$AA6?$AA4?$AA_?$AAa?$AAm@ 00000001400803f0     LIBCMTD:initctyp.obj
 0002:0000b460       ??_C@_1DG@NMBGBDM@?$AAp?$AAl?$AAo?$AAc?$AAi?$AA?9?$AA?$DO?$AAc?$AAt?$AAy?$AAp?$AAe?$AA1?$AA_?$AAr?$AAe?$AAf?$AAc?$AAo?$AAu?$AAn?$AAt?$AA?5?$AA?$DO?$AA?5?$AA0?$AA?$AA@ 0000000140080460     LIBCMTD:initctyp.obj
 0002:0000b4a0       __newctype                 00000001400804a0     LIBCMTD:ctype.obj
 0002:0000b7a0       _wctype                    00000001400807a0     LIBCMTD:ctype.obj
 0002:0000b9b0       __newclmap                 00000001400809b0     LIBCMTD:ctype.obj
 0002:0000bb30       __newcumap                 0000000140080b30     LIBCMTD:ctype.obj
 0002:0000bcb0       __lc_category              0000000140080cb0     LIBCMTD:wsetloca.obj
 0002:0000bd40       ??_C@_1O@GIFLHMA@?$AAL?$AAC?$AA_?$AAA?$AAL?$AAL?$AA?$AA@ 0000000140080d40     LIBCMTD:wsetloca.obj
 0002:0000bd50       ??_C@_1BG@PPOMIBNJ@?$AAL?$AAC?$AA_?$AAC?$AAO?$AAL?$AAL?$AAA?$AAT?$AAE?$AA?$AA@ 0000000140080d50     LIBCMTD:wsetloca.obj
 0002:0000bd68       ??_C@_1BC@FFJGAPJM@?$AAL?$AAC?$AA_?$AAC?$AAT?$AAY?$AAP?$AAE?$AA?$AA@ 0000000140080d68     LIBCMTD:wsetloca.obj
 0002:0000bd80       ??_C@_1BI@PCKFNJFB@?$AAL?$AAC?$AA_?$AAM?$AAO?$AAN?$AAE?$AAT?$AAA?$AAR?$AAY?$AA?$AA@ 0000000140080d80     LIBCMTD:wsetloca.obj
 0002:0000bd98       ??_C@_1BG@ENIEDKID@?$AAL?$AAC?$AA_?$AAN?$AAU?$AAM?$AAE?$AAR?$AAI?$AAC?$AA?$AA@ 0000000140080d98     LIBCMTD:wsetloca.obj
 0002:0000bdb0       ??_C@_1BA@HAAOMIIG@?$AAL?$AAC?$AA_?$AAT?$AAI?$AAM?$AAE?$AA?$AA@ 0000000140080db0     LIBCMTD:wsetloca.obj
 0002:0000be40       ??_C@_1GA@LDEGDKD@?$AA?$CI?$AA?$CC?$AAI?$AAn?$AAv?$AAa?$AAl?$AAi?$AAd?$AA?5?$AAp?$AAa?$AAr?$AAa?$AAm?$AAe?$AAt?$AAe?$AAr?$AA?5?$AAf?$AAo?$AAr?$AA?5?$AA_?$AAc?$AAo?$AAn?$AAf?$AAi?$AAg?$AAt@ 0000000140080e40     LIBCMTD:wsetloca.obj
 0002:0000bea0       ??_C@_1GO@PGHIOOKM@?$AAf?$AA?3?$AA?2?$AAd?$AAd?$AA?2?$AAv?$AAc?$AAt?$AAo?$AAo?$AAl?$AAs?$AA?2?$AAc?$AAr?$AAt?$AA_?$AAb?$AAl?$AAd?$AA?2?$AAs?$AAe?$AAl?$AAf?$AA_?$AA6?$AA4?$AA_?$AAa?$AAm@ 0000000140080ea0     LIBCMTD:wsetloca.obj
 0002:0000bf10       ??_C@_1CI@FGIONOJM@?$AA_?$AAc?$AAo?$AAn?$AAf?$AAi?$AAg?$AAt?$AAh?$AAr?$AAe?$AAa?$AAd?$AAl?$AAo?$AAc?$AAa?$AAl?$AAe?$AA?$AA@ 0000000140080f10     LIBCMTD:wsetloca.obj
 0002:0000bf38       ??_C@_0DH@HAHIHJNC@f?3?2dd?2vctools?2crt_bld?2self_64_am@ 0000000140080f38     LIBCMTD:wsetloca.obj
 0002:0000bf70       ??_C@_1FG@OHLFEKMC@?$AAL?$AAC?$AA_?$AAM?$AAI?$AAN?$AA?5?$AA?$DM?$AA?$DN?$AA?5?$AA_?$AAc?$AAa?$AAt?$AAe?$AAg?$AAo?$AAr?$AAy?$AA?5?$AA?$CG?$AA?$CG?$AA?5?$AA_?$AAc?$AAa?$AAt?$AAe?$AAg?$AAo?$AAr?$AAy@ 0000000140080f70     LIBCMTD:wsetloca.obj
 0002:0000bfc8       ??_C@_1BI@KJNPAEHL@?$AA_?$AAw?$AAs?$AAe?$AAt?$AAl?$AAo?$AAc?$AAa?$AAl?$AAe?$AA?$AA@ 0000000140080fc8     LIBCMTD:wsetloca.obj
 0002:0000bfe0       ??_C@_15NBPDDFIP@?$AA?$DN?$AA?$DL?$AA?$AA@ 0000000140080fe0     LIBCMTD:wsetloca.obj
 0002:0000bfe8       ??_C@_13PJJBFPED@?$AA?$DL?$AA?$AA@ 0000000140080fe8     LIBCMTD:wsetloca.obj
 0002:0000bff0       ??_C@_1CG@DKJCBBPP@?$AA_?$AAw?$AAs?$AAe?$AAt?$AAl?$AAo?$AAc?$AAa?$AAl?$AAe?$AA_?$AAn?$AAo?$AAl?$AAo?$AAc?$AAk?$AA?$AA@ 0000000140080ff0     LIBCMTD:wsetloca.obj
 0002:0000c020       ??_C@_1IA@DGCOPCLP@?$AAw?$AAc?$AAs?$AAn?$AAc?$AAp?$AAy?$AA_?$AAs?$AA?$CI?$AAl?$AAc?$AAt?$AAe?$AAm?$AAp?$AA?0?$AA?5?$AA?$CI?$AAs?$AAi?$AAz?$AAe?$AAo?$AAf?$AA?$CI?$AAl?$AAc?$AAt?$AAe?$AAm?$AAp@ 0000000140081020     LIBCMTD:wsetloca.obj
 0002:0000c0a0       ??_C@_1CI@ODOPEMNJ@?$AA_?$AAw?$AAs?$AAe?$AAt?$AAl?$AAo?$AAc?$AAa?$AAl?$AAe?$AA_?$AAs?$AAe?$AAt?$AA_?$AAc?$AAa?$AAt?$AA?$AA@ 00000001400810a0     LIBCMTD:wsetloca.obj
 0002:0000c0d0       ??_C@_1EM@MHOCNIAA@?$AAw?$AAc?$AAs?$AAc?$AAp?$AAy?$AA_?$AAs?$AA?$CI?$AAp?$AAc?$AAh?$AA_?$AAc?$AAa?$AAt?$AA_?$AAl?$AAo?$AAc?$AAa?$AAl?$AAe?$AA?0?$AA?5?$AAc?$AAc?$AAh?$AA?0?$AA?5?$AAl?$AAc@ 00000001400810d0     LIBCMTD:wsetloca.obj
 0002:0000c11c       ??_C@_13NMPKAAJP@?$AA?$DN?$AA?$AA@ 000000014008111c     LIBCMTD:wsetloca.obj
 0002:0000c120       ??_C@_1CI@LKOPFFBD@?$AA_?$AAw?$AAs?$AAe?$AAt?$AAl?$AAo?$AAc?$AAa?$AAl?$AAe?$AA_?$AAg?$AAe?$AAt?$AA_?$AAa?$AAl?$AAl?$AA?$AA@ 0000000140081120     LIBCMTD:wsetloca.obj
 0002:0000c148       ??_C@_1DC@HMLJMODP@?$AAw?$AAc?$AAs?$AAc?$AAa?$AAt?$AA_?$AAs?$AA?$CI?$AAp?$AAc?$AAh?$AA?0?$AA?5?$AAc?$AAc?$AAh?$AA?0?$AA?5?$AAL?$AA?$CC?$AA?$DL?$AA?$CC?$AA?$CJ?$AA?$AA@ 0000000140081148     LIBCMTD:wsetloca.obj
 0002:0000c180       ??_C@_1BM@OIIBLEFG@?$AA_?$AAe?$AAx?$AAp?$AAa?$AAn?$AAd?$AAl?$AAo?$AAc?$AAa?$AAl?$AAe?$AA?$AA@ 0000000140081180     LIBCMTD:wsetloca.obj
 0002:0000c1a0       ??_C@_1BFG@FHLOBJGM@?$AAw?$AAc?$AAs?$AAn?$AAc?$AAp?$AAy?$AA_?$AAs?$AA?$CI?$AAl?$AAo?$AAc?$AAa?$AAl?$AAe?$AAN?$AAa?$AAm?$AAe?$AAO?$AAu?$AAt?$AAp?$AAu?$AAt?$AA?0?$AA?5?$AAl?$AAo?$AAc?$AAa@ 00000001400811a0     LIBCMTD:wsetloca.obj
 0002:0000c300       ??_C@_1EI@OCINLCHN@?$AAw?$AAc?$AAs?$AAc?$AAp?$AAy?$AA_?$AAs?$AA?$CI?$AAo?$AAu?$AAt?$AAp?$AAu?$AAt?$AA?0?$AA?5?$AAs?$AAi?$AAz?$AAe?$AAI?$AAn?$AAC?$AAh?$AAa?$AAr?$AAs?$AA?0?$AA?5?$AAL?$AA?$CC@ 0000000140081300     LIBCMTD:wsetloca.obj
 0002:0000c348       ??_C@_13FHBKNHDA@?$AAC?$AA?$AA@ 0000000140081348     LIBCMTD:wsetloca.obj
 0002:0000c350       ??_C@_1MO@NNCNEOAP@?$AAw?$AAc?$AAs?$AAn?$AAc?$AAp?$AAy?$AA_?$AAs?$AA?$CI?$AAl?$AAo?$AAc?$AAa?$AAl?$AAe?$AAN?$AAa?$AAm?$AAe?$AAO?$AAu?$AAt?$AAp?$AAu?$AAt?$AA?0?$AA?5?$AAl?$AAo?$AAc?$AAa@ 0000000140081350     LIBCMTD:wsetloca.obj
 0002:0000c420       ??_C@_1IG@MKDIEKFD@?$AAw?$AAc?$AAs?$AAn?$AAc?$AAp?$AAy?$AA_?$AAs?$AA?$CI?$AAc?$AAa?$AAc?$AAh?$AAe?$AAo?$AAu?$AAt?$AA?0?$AA?5?$AAc?$AAa?$AAc?$AAh?$AAe?$AAo?$AAu?$AAt?$AAL?$AAe?$AAn?$AA?0@ 0000000140081420     LIBCMTD:wsetloca.obj
 0002:0000c4b0       ??_C@_1KK@KMIFPBBC@?$AAw?$AAc?$AAs?$AAn?$AAc?$AAp?$AAy?$AA_?$AAs?$AA?$CI?$AAl?$AAo?$AAc?$AAa?$AAl?$AAe?$AAN?$AAa?$AAm?$AAe?$AAO?$AAu?$AAt?$AAp?$AAu?$AAt?$AA?0?$AA?5?$AAl?$AAo?$AAc?$AAa@ 00000001400814b0     LIBCMTD:wsetloca.obj
 0002:0000c560       ??_C@_1BEK@OJDMMIMP@?$AAw?$AAc?$AAs?$AAn?$AAc?$AAp?$AAy?$AA_?$AAs?$AA?$CI?$AA_?$AAp?$AAs?$AAe?$AAt?$AAl?$AAo?$AAc?$AA_?$AAd?$AAa?$AAt?$AAa?$AA?9?$AA?$DO?$AA_?$AAc?$AAa?$AAc?$AAh?$AAe?$AAL@ 0000000140081560     LIBCMTD:wsetloca.obj
 0002:0000c6b0       ??_C@_1BGG@FCLLNAOE@?$AAw?$AAc?$AAs?$AAn?$AAc?$AAp?$AAy?$AA_?$AAs?$AA?$CI?$AA_?$AAp?$AAs?$AAe?$AAt?$AAl?$AAo?$AAc?$AA_?$AAd?$AAa?$AAt?$AAa?$AA?9?$AA?$DO?$AA_?$AAc?$AAa?$AAc?$AAh?$AAe?$AAL@ 00000001400816b0     LIBCMTD:wsetloca.obj
 0002:0000c820       ??_C@_1IC@FCCDBGLL@?$AAw?$AAc?$AAs?$AAn?$AAc?$AAp?$AAy?$AA_?$AAs?$AA?$CI?$AAc?$AAa?$AAc?$AAh?$AAe?$AAi?$AAn?$AA?0?$AA?5?$AAc?$AAa?$AAc?$AAh?$AAe?$AAi?$AAn?$AAL?$AAe?$AAn?$AA?0?$AA?5?$AAe@ 0000000140081820     LIBCMTD:wsetloca.obj
 0002:0000c8b0       ??_C@_1FA@HOOAAHFF@?$AAw?$AAc?$AAs?$AAc?$AAp?$AAy?$AA_?$AAs?$AA?$CI?$AAo?$AAu?$AAt?$AAp?$AAu?$AAt?$AA?0?$AA?5?$AAs?$AAi?$AAz?$AAe?$AAI?$AAn?$AAC?$AAh?$AAa?$AAr?$AAs?$AA?0?$AA?5?$AAc?$AAa@ 00000001400818b0     LIBCMTD:wsetloca.obj
 0002:0000c900       ??_C@_1BC@LEOKFFML@?$AA_?$AAw?$AAc?$AAs?$AAc?$AAa?$AAt?$AAs?$AA?$AA@ 0000000140081900     LIBCMTD:wsetloca.obj
 0002:0000c920       ??_C@_1CCE@OOPDKDD@?$AAw?$AAc?$AAs?$AAc?$AAa?$AAt?$AA_?$AAs?$AA?$CI?$AAo?$AAu?$AAt?$AAs?$AAt?$AAr?$AA?0?$AA?5?$AAn?$AAu?$AAm?$AAb?$AAe?$AAr?$AAO?$AAf?$AAE?$AAl?$AAe?$AAm?$AAe?$AAn?$AAt@ 0000000140081920     LIBCMTD:wsetloca.obj
 0002:0000cb48       ??_C@_1BK@GNCHCGCN@?$AA_?$AA_?$AAl?$AAc?$AA_?$AAw?$AAc?$AAs?$AAt?$AAo?$AAl?$AAc?$AA?$AA@ 0000000140081b48     LIBCMTD:wsetloca.obj
 0002:0000cb70       ??_C@_1NI@NELJHJBO@?$AAw?$AAc?$AAs?$AAn?$AAc?$AAp?$AAy?$AA_?$AAs?$AA?$CI?$AAn?$AAa?$AAm?$AAe?$AAs?$AA?9?$AA?$DO?$AAs?$AAz?$AAC?$AAo?$AAd?$AAe?$AAP?$AAa?$AAg?$AAe?$AA?0?$AA?5?$AA?$CI?$AAs?$AAi@ 0000000140081b70     LIBCMTD:wsetloca.obj
 0002:0000cc48       ??_C@_17MBJJLFDM@?$AA_?$AA?4?$AA?0?$AA?$AA@ 0000000140081c48     LIBCMTD:wsetloca.obj
 0002:0000cc50       ??_C@_1MO@PBGOIBFL@?$AAw?$AAc?$AAs?$AAn?$AAc?$AAp?$AAy?$AA_?$AAs?$AA?$CI?$AAn?$AAa?$AAm?$AAe?$AAs?$AA?9?$AA?$DO?$AAs?$AAz?$AAL?$AAa?$AAn?$AAg?$AAu?$AAa?$AAg?$AAe?$AA?0?$AA?5?$AA?$CI?$AAs?$AAi@ 0000000140081c50     LIBCMTD:wsetloca.obj
 0002:0000cd20       ??_C@_1MI@CLMFNAAJ@?$AAw?$AAc?$AAs?$AAn?$AAc?$AAp?$AAy?$AA_?$AAs?$AA?$CI?$AAn?$AAa?$AAm?$AAe?$AAs?$AA?9?$AA?$DO?$AAs?$AAz?$AAC?$AAo?$AAu?$AAn?$AAt?$AAr?$AAy?$AA?0?$AA?5?$AA?$CI?$AAs?$AAi?$AAz@ 0000000140081d20     LIBCMTD:wsetloca.obj
 0002:0000cdf0       ??_C@_1MO@NBFBMKCB@?$AAw?$AAc?$AAs?$AAn?$AAc?$AAp?$AAy?$AA_?$AAs?$AA?$CI?$AAn?$AAa?$AAm?$AAe?$AAs?$AA?9?$AA?$DO?$AAs?$AAz?$AAC?$AAo?$AAd?$AAe?$AAP?$AAa?$AAg?$AAe?$AA?0?$AA?5?$AA?$CI?$AAs?$AAi@ 0000000140081df0     LIBCMTD:wsetloca.obj
 0002:0000cec0       ??_C@_1BK@HEBMGPEK@?$AA_?$AA_?$AAl?$AAc?$AA_?$AAl?$AAc?$AAt?$AAo?$AAw?$AAc?$AAs?$AA?$AA@ 0000000140081ec0     LIBCMTD:wsetloca.obj
 0002:0000cee0       ??_C@_1GM@FOFMGOEK@?$AAw?$AAc?$AAs?$AAc?$AAp?$AAy?$AA_?$AAs?$AA?$CI?$AAl?$AAo?$AAc?$AAa?$AAl?$AAe?$AA?0?$AA?5?$AAn?$AAu?$AAm?$AAb?$AAe?$AAr?$AAO?$AAf?$AAE?$AAl?$AAe?$AAm?$AAe?$AAn?$AAt@ 0000000140081ee0     LIBCMTD:wsetloca.obj
 0002:0000cf4c       ??_C@_13ENNFDPBH@?$AA_?$AA?$AA@ 0000000140081f4c     LIBCMTD:wsetloca.obj
 0002:0000cf50       ??_C@_13JOFGPIOO@?$AA?4?$AA?$AA@ 0000000140081f50     LIBCMTD:wsetloca.obj
 0002:0000cf58       ??_C@_1CG@HCGEAFEA@?$AA_?$AA_?$AAc?$AAo?$AAp?$AAy?$AA_?$AAl?$AAo?$AAc?$AAa?$AAl?$AAe?$AA_?$AAn?$AAa?$AAm?$AAe?$AA?$AA@ 0000000140081f58     LIBCMTD:wsetloca.obj
 0002:0000cf80       ??_C@_1GI@HBNMCKGD@?$AAw?$AAc?$AAs?$AAn?$AAc?$AAp?$AAy?$AA_?$AAs?$AA?$CI?$AAl?$AAo?$AAc?$AAa?$AAl?$AAe?$AAN?$AAa?$AAm?$AAe?$AAC?$AAo?$AAp?$AAy?$AA?0?$AA?5?$AAc?$AAc?$AAh?$AA?$CL?$AA1?$AA?0@ 0000000140081f80     LIBCMTD:wsetloca.obj
 0002:0000cff0       ??_C@_1GK@MCAOLDDL@?$AAf?$AA?3?$AA?2?$AAd?$AAd?$AA?2?$AAv?$AAc?$AAt?$AAo?$AAo?$AAl?$AAs?$AA?2?$AAc?$AAr?$AAt?$AA_?$AAb?$AAl?$AAd?$AA?2?$AAs?$AAe?$AAl?$AAf?$AA_?$AA6?$AA4?$AA_?$AAa?$AAm@ 0000000140081ff0     LIBCMTD:fclose.obj
 0002:0000d060       ??_C@_1O@EGMJNCOI@?$AAf?$AAc?$AAl?$AAo?$AAs?$AAe?$AA?$AA@ 0000000140082060     LIBCMTD:fclose.obj
 0002:0000d070       ??_C@_1BO@JINCABEC@?$AA_?$AAf?$AAc?$AAl?$AAo?$AAs?$AAe?$AA_?$AAn?$AAo?$AAl?$AAo?$AAc?$AAk?$AA?$AA@ 0000000140082070     LIBCMTD:fclose.obj
 0002:0000d090       ??_C@_1O@HFEBJM@?$AA_?$AAw?$AAo?$AAp?$AAe?$AAn?$AA?$AA@ 0000000140082090     LIBCMTD:wopen.obj
 0002:0000d0a0       ??_C@_1BO@NAANLDBI@?$AA_?$AAw?$AAs?$AAo?$AAp?$AAe?$AAn?$AA_?$AAh?$AAe?$AAl?$AAp?$AAe?$AAr?$AA?$AA@ 00000001400820a0     LIBCMTD:wopen.obj
 0002:0000d0c0       ??_C@_0M@HHGEPIBF@CreateFile2?$AA@ 00000001400820c0     LIBCMTD:wopen.obj
 0002:0000d0d0       ??_C@_1BO@JMCLMIEA@?$AA_?$AAw?$AAs?$AAo?$AAp?$AAe?$AAn?$AA_?$AAn?$AAo?$AAl?$AAo?$AAc?$AAk?$AA?$AA@ 00000001400820d0     LIBCMTD:wopen.obj
 0002:0000d0f0       ??_C@_1CG@ICBEBDJJ@?$AA_?$AAg?$AAe?$AAt?$AA_?$AAf?$AAm?$AAo?$AAd?$AAe?$AA?$CI?$AA?$CG?$AAf?$AAm?$AAo?$AAd?$AAe?$AA?$CJ?$AA?$AA@ 00000001400820f0     LIBCMTD:wopen.obj
 0002:0000d118       ??_C@_1DI@DGKIFCCE@?$AA?$CI?$AA?5?$AA?$CC?$AAI?$AAn?$AAv?$AAa?$AAl?$AAi?$AAd?$AA?5?$AAo?$AAp?$AAe?$AAn?$AA?5?$AAf?$AAl?$AAa?$AAg?$AA?$CC?$AA?5?$AA?0?$AA?5?$AA0?$AA?5?$AA?$CJ?$AA?$AA@ 0000000140082118     LIBCMTD:wopen.obj
 0002:0000d150       ??_C@_1DO@PJLMOANO@?$AA?$CI?$AA?5?$AA?$CC?$AAI?$AAn?$AAv?$AAa?$AAl?$AAi?$AAd?$AA?5?$AAs?$AAh?$AAa?$AAr?$AAi?$AAn?$AAg?$AA?5?$AAf?$AAl?$AAa?$AAg?$AA?$CC?$AA?5?$AA?0?$AA?5?$AA0?$AA?5?$AA?$CJ?$AA?$AA@ 0000000140082150     LIBCMTD:wopen.obj
 0002:0000d190       ??_C@_1HM@GJANBLHJ@?$AA?$CI?$AAo?$AAf?$AAl?$AAa?$AAg?$AA?5?$AA?$CG?$AA?5?$AA?$CI?$AA_?$AAO?$AA_?$AAT?$AAE?$AAX?$AAT?$AA?5?$AA?$HM?$AA?5?$AA_?$AAO?$AA_?$AAW?$AAT?$AAE?$AAX?$AAT?$AA?5?$AA?$HM?$AA?5?$AA_@ 0000000140082190     LIBCMTD:wopen.obj
 0002:0000d210       ??_C@_1CM@IDLMKMPG@?$AA0?$AA?5?$AA?$CG?$AA?$CG?$AA?5?$AA?$CC?$AAI?$AAn?$AAt?$AAe?$AAr?$AAn?$AAa?$AAl?$AA?5?$AAE?$AAr?$AAr?$AAo?$AAr?$AA?$CC?$AA?$AA@ 0000000140082210     LIBCMTD:wopen.obj
 0002:0000d240       ??_C@_1IA@IENOJNJF@?$AA0?$AA?5?$AA?$CG?$AA?$CG?$AA?5?$AA?$CC?$AAO?$AAn?$AAl?$AAy?$AA?5?$AAU?$AAT?$AAF?$AA?9?$AA1?$AA6?$AA?5?$AAl?$AAi?$AAt?$AAt?$AAl?$AAe?$AA?5?$AAe?$AAn?$AAd?$AAi?$AAa?$AAn?$AA?5@ 0000000140082240     LIBCMTD:wopen.obj
 0002:0000d2c0       ??_C@_1GO@LJPFCLBL@?$AAf?$AA?3?$AA?2?$AAd?$AAd?$AA?2?$AAv?$AAc?$AAt?$AAo?$AAo?$AAl?$AAs?$AA?2?$AAc?$AAr?$AAt?$AA_?$AAb?$AAl?$AAd?$AA?2?$AAs?$AAe?$AAl?$AAf?$AA_?$AA6?$AA4?$AA_?$AAa?$AAm@ 00000001400822c0     LIBCMTD:strnicmp.obj
 0002:0000d330       ??_C@_1BI@BJLEPLEF@?$AA_?$AAs?$AAt?$AAr?$AAn?$AAi?$AAc?$AAm?$AAp?$AA_?$AAl?$AA?$AA@ 0000000140082330     LIBCMTD:strnicmp.obj
 0002:0000d348       ??_C@_1CC@JLPHKJPH@?$AAc?$AAo?$AAu?$AAn?$AAt?$AA?5?$AA?$DM?$AA?$DN?$AA?5?$AAI?$AAN?$AAT?$AA_?$AAM?$AAA?$AAX?$AA?$AA@ 0000000140082348     LIBCMTD:strnicmp.obj
 0002:0000d370       ??_C@_1BE@BHJDFFNA@?$AA_?$AAs?$AAt?$AAr?$AAn?$AAi?$AAc?$AAm?$AAp?$AA?$AA@ 0000000140082370     LIBCMTD:strnicmp.obj
 0002:0000d388       ??_C@_1BA@BALFACEM@?$AAC?$AAO?$AAN?$AAO?$AAU?$AAT?$AA$?$AA?$AA@ 0000000140082388     LIBCMTD:initcon.obj
 0002:0000d398       ??_C@_1BK@GDEKGMNC@?$AA_?$AAw?$AAo?$AAu?$AAt?$AAp?$AAu?$AAt?$AA_?$AAp?$AA_?$AAl?$AA?$AA@ 0000000140082398     LIBCMTD:woutputp.obj
 0002:0000d3b8       ??_C@_1BK@ONMFGLDB@?$AA_?$AAw?$AAo?$AAu?$AAt?$AAp?$AAu?$AAt?$AA_?$AAs?$AA_?$AAl?$AA?$AA@ 00000001400823b8     LIBCMTD:woutputs.obj
 0002:0000d3e0       ??_C@_1GK@HHALBKHE@?$AAf?$AA?3?$AA?2?$AAd?$AAd?$AA?2?$AAv?$AAc?$AAt?$AAo?$AAo?$AAl?$AAs?$AA?2?$AAc?$AAr?$AAt?$AA_?$AAb?$AAl?$AAd?$AA?2?$AAs?$AAe?$AAl?$AAf?$AA_?$AA6?$AA4?$AA_?$AAa?$AAm@ 00000001400823e0     LIBCMTD:fputwc.obj
 0002:0000d450       ??_C@_1O@HJNPHHHB@?$AAf?$AAp?$AAu?$AAt?$AAw?$AAc?$AA?$AA@ 0000000140082450     LIBCMTD:fputwc.obj
 0002:0000d460       _pDestructExceptionObject  0000000140082460     LIBCMTD:frame.obj
 0002:0000d470       ??_7bad_exception@std@@6B@ 0000000140082470     LIBCMTD:frame.obj
 0002:0000d480       ??_C@_0O@DPKOEFFH@bad?5exception?$AA@ 0000000140082480     LIBCMTD:frame.obj
 0002:0000d490       __rg_language              0000000140082490     LIBCMTD:getqloc.obj
 0002:0000d8a0       ??_C@_1BC@LLOKLNP@?$AAa?$AAm?$AAe?$AAr?$AAi?$AAc?$AAa?$AAn?$AA?$AA@ 00000001400828a0     LIBCMTD:getqloc.obj
 0002:0000d8b8       ??_C@_1CC@HEIGCDGG@?$AAa?$AAm?$AAe?$AAr?$AAi?$AAc?$AAa?$AAn?$AA?5?$AAe?$AAn?$AAg?$AAl?$AAi?$AAs?$AAh?$AA?$AA@ 00000001400828b8     LIBCMTD:getqloc.obj
 0002:0000d8e0       ??_C@_1CC@IHCNOMIN@?$AAa?$AAm?$AAe?$AAr?$AAi?$AAc?$AAa?$AAn?$AA?9?$AAe?$AAn?$AAg?$AAl?$AAi?$AAs?$AAh?$AA?$AA@ 00000001400828e0     LIBCMTD:getqloc.obj
 0002:0000d908       ??_C@_1BG@GKAGPCGG@?$AAa?$AAu?$AAs?$AAt?$AAr?$AAa?$AAl?$AAi?$AAa?$AAn?$AA?$AA@ 0000000140082908     LIBCMTD:getqloc.obj
 0002:0000d920       ??_C@_1BA@GMENCENF@?$AAb?$AAe?$AAl?$AAg?$AAi?$AAa?$AAn?$AA?$AA@ 0000000140082920     LIBCMTD:getqloc.obj
 0002:0000d930       ??_C@_1BC@PJMIIAAN@?$AAc?$AAa?$AAn?$AAa?$AAd?$AAi?$AAa?$AAn?$AA?$AA@ 0000000140082930     LIBCMTD:getqloc.obj
 0002:0000d948       ??_C@_17NOIMNFBF@?$AAc?$AAh?$AAh?$AA?$AA@ 0000000140082948     LIBCMTD:getqloc.obj
 0002:0000d950       ??_C@_17GGDALCHA@?$AAc?$AAh?$AAi?$AA?$AA@ 0000000140082950     LIBCMTD:getqloc.obj
 0002:0000d958       ??_C@_1BA@NPNJKIBL@?$AAc?$AAh?$AAi?$AAn?$AAe?$AAs?$AAe?$AA?$AA@ 0000000140082958     LIBCMTD:getqloc.obj
 0002:0000d968       ??_C@_1CC@DINBAMMJ@?$AAc?$AAh?$AAi?$AAn?$AAe?$AAs?$AAe?$AA?9?$AAh?$AAo?$AAn?$AAg?$AAk?$AAo?$AAn?$AAg?$AA?$AA@ 0000000140082968     LIBCMTD:getqloc.obj
 0002:0000d990       ??_C@_1CG@IOBJPACO@?$AAc?$AAh?$AAi?$AAn?$AAe?$AAs?$AAe?$AA?9?$AAs?$AAi?$AAm?$AAp?$AAl?$AAi?$AAf?$AAi?$AAe?$AAd?$AA?$AA@ 0000000140082990     LIBCMTD:getqloc.obj
 0002:0000d9b8       ??_C@_1CE@GAJNDCKG@?$AAc?$AAh?$AAi?$AAn?$AAe?$AAs?$AAe?$AA?9?$AAs?$AAi?$AAn?$AAg?$AAa?$AAp?$AAo?$AAr?$AAe?$AA?$AA@ 00000001400829b8     LIBCMTD:getqloc.obj
 0002:0000d9e0       ??_C@_1CI@PAJPIOOD@?$AAc?$AAh?$AAi?$AAn?$AAe?$AAs?$AAe?$AA?9?$AAt?$AAr?$AAa?$AAd?$AAi?$AAt?$AAi?$AAo?$AAn?$AAa?$AAl?$AA?$AA@ 00000001400829e0     LIBCMTD:getqloc.obj
 0002:0000da08       ??_C@_1BM@NILJBMMD@?$AAd?$AAu?$AAt?$AAc?$AAh?$AA?9?$AAb?$AAe?$AAl?$AAg?$AAi?$AAa?$AAn?$AA?$AA@ 0000000140082a08     LIBCMTD:getqloc.obj
 0002:0000da28       ??_C@_1CC@OOJPJNEJ@?$AAe?$AAn?$AAg?$AAl?$AAi?$AAs?$AAh?$AA?9?$AAa?$AAm?$AAe?$AAr?$AAi?$AAc?$AAa?$AAn?$AA?$AA@ 0000000140082a28     LIBCMTD:getqloc.obj
 0002:0000da50       ??_C@_1BI@IOLFEEM@?$AAe?$AAn?$AAg?$AAl?$AAi?$AAs?$AAh?$AA?9?$AAa?$AAu?$AAs?$AA?$AA@ 0000000140082a50     LIBCMTD:getqloc.obj
 0002:0000da68       ??_C@_1BO@HFFNLENJ@?$AAe?$AAn?$AAg?$AAl?$AAi?$AAs?$AAh?$AA?9?$AAb?$AAe?$AAl?$AAi?$AAz?$AAe?$AA?$AA@ 0000000140082a68     LIBCMTD:getqloc.obj
 0002:0000da88       ??_C@_1BI@HAPKJMPO@?$AAe?$AAn?$AAg?$AAl?$AAi?$AAs?$AAh?$AA?9?$AAc?$AAa?$AAn?$AA?$AA@ 0000000140082a88     LIBCMTD:getqloc.obj
 0002:0000daa0       ??_C@_1CE@HLNDMIOJ@?$AAe?$AAn?$AAg?$AAl?$AAi?$AAs?$AAh?$AA?9?$AAc?$AAa?$AAr?$AAi?$AAb?$AAb?$AAe?$AAa?$AAn?$AA?$AA@ 0000000140082aa0     LIBCMTD:getqloc.obj
 0002:0000dac8       ??_C@_1BI@LDHJHHAC@?$AAe?$AAn?$AAg?$AAl?$AAi?$AAs?$AAh?$AA?9?$AAi?$AAr?$AAe?$AA?$AA@ 0000000140082ac8     LIBCMTD:getqloc.obj
 0002:0000dae0       ??_C@_1CA@NJMMCFOC@?$AAe?$AAn?$AAg?$AAl?$AAi?$AAs?$AAh?$AA?9?$AAj?$AAa?$AAm?$AAa?$AAi?$AAc?$AAa?$AA?$AA@ 0000000140082ae0     LIBCMTD:getqloc.obj
 0002:0000db00       ??_C@_1BG@BHJEBBGG@?$AAe?$AAn?$AAg?$AAl?$AAi?$AAs?$AAh?$AA?9?$AAn?$AAz?$AA?$AA@ 0000000140082b00     LIBCMTD:getqloc.obj
 0002:0000db18       ??_C@_1CK@FGOEJJCO@?$AAe?$AAn?$AAg?$AAl?$AAi?$AAs?$AAh?$AA?9?$AAs?$AAo?$AAu?$AAt?$AAh?$AA?5?$AAa?$AAf?$AAr?$AAi?$AAc?$AAa?$AA?$AA@ 0000000140082b18     LIBCMTD:getqloc.obj
 0002:0000db48       ??_C@_1DE@PDBJPCJ@?$AAe?$AAn?$AAg?$AAl?$AAi?$AAs?$AAh?$AA?9?$AAt?$AAr?$AAi?$AAn?$AAi?$AAd?$AAa?$AAd?$AA?5?$AAy?$AA?5?$AAt?$AAo?$AAb?$AAa?$AAg?$AAo?$AA?$AA@ 0000000140082b48     LIBCMTD:getqloc.obj
 0002:0000db80       ??_C@_1BG@JGCANDME@?$AAe?$AAn?$AAg?$AAl?$AAi?$AAs?$AAh?$AA?9?$AAu?$AAk?$AA?$AA@ 0000000140082b80     LIBCMTD:getqloc.obj
 0002:0000db98       ??_C@_1BG@DINKMLE@?$AAe?$AAn?$AAg?$AAl?$AAi?$AAs?$AAh?$AA?9?$AAu?$AAs?$AA?$AA@ 0000000140082b98     LIBCMTD:getqloc.obj
 0002:0000dbb0       ??_C@_1BI@NMFDBHJE@?$AAe?$AAn?$AAg?$AAl?$AAi?$AAs?$AAh?$AA?9?$AAu?$AAs?$AAa?$AA?$AA@ 0000000140082bb0     LIBCMTD:getqloc.obj
 0002:0000dbc8       ??_C@_1BO@OIHKJKII@?$AAf?$AAr?$AAe?$AAn?$AAc?$AAh?$AA?9?$AAb?$AAe?$AAl?$AAg?$AAi?$AAa?$AAn?$AA?$AA@ 0000000140082bc8     LIBCMTD:getqloc.obj
 0002:0000dbe8       ??_C@_1CA@NKAELJKI@?$AAf?$AAr?$AAe?$AAn?$AAc?$AAh?$AA?9?$AAc?$AAa?$AAn?$AAa?$AAd?$AAi?$AAa?$AAn?$AA?$AA@ 0000000140082be8     LIBCMTD:getqloc.obj
 0002:0000dc08       ??_C@_1CE@MGKCNLGN@?$AAf?$AAr?$AAe?$AAn?$AAc?$AAh?$AA?9?$AAl?$AAu?$AAx?$AAe?$AAm?$AAb?$AAo?$AAu?$AAr?$AAg?$AA?$AA@ 0000000140082c08     LIBCMTD:getqloc.obj
 0002:0000dc30       ??_C@_1BK@CEGEAILM@?$AAf?$AAr?$AAe?$AAn?$AAc?$AAh?$AA?9?$AAs?$AAw?$AAi?$AAs?$AAs?$AA?$AA@ 0000000140082c30     LIBCMTD:getqloc.obj
 0002:0000dc50       ??_C@_1CA@PAFKEOCC@?$AAg?$AAe?$AAr?$AAm?$AAa?$AAn?$AA?9?$AAa?$AAu?$AAs?$AAt?$AAr?$AAi?$AAa?$AAn?$AA?$AA@ 0000000140082c50     LIBCMTD:getqloc.obj
 0002:0000dc70       ??_C@_1CI@HCFHGOFD@?$AAg?$AAe?$AAr?$AAm?$AAa?$AAn?$AA?9?$AAl?$AAi?$AAc?$AAh?$AAt?$AAe?$AAn?$AAs?$AAt?$AAe?$AAi?$AAn?$AA?$AA@ 0000000140082c70     LIBCMTD:getqloc.obj
 0002:0000dc98       ??_C@_1CE@FEDDNPDG@?$AAg?$AAe?$AAr?$AAm?$AAa?$AAn?$AA?9?$AAl?$AAu?$AAx?$AAe?$AAm?$AAb?$AAo?$AAu?$AAr?$AAg?$AA?$AA@ 0000000140082c98     LIBCMTD:getqloc.obj
 0002:0000dcc0       ??_C@_1BK@LIMINNMN@?$AAg?$AAe?$AAr?$AAm?$AAa?$AAn?$AA?9?$AAs?$AAw?$AAi?$AAs?$AAs?$AA?$AA@ 0000000140082cc0     LIBCMTD:getqloc.obj
 0002:0000dce0       ??_C@_1BM@LGMDBEPD@?$AAi?$AAr?$AAi?$AAs?$AAh?$AA?9?$AAe?$AAn?$AAg?$AAl?$AAi?$AAs?$AAh?$AA?$AA@ 0000000140082ce0     LIBCMTD:getqloc.obj
 0002:0000dd00       ??_C@_1BM@NNCFBAEE@?$AAi?$AAt?$AAa?$AAl?$AAi?$AAa?$AAn?$AA?9?$AAs?$AAw?$AAi?$AAs?$AAs?$AA?$AA@ 0000000140082d00     LIBCMTD:getqloc.obj
 0002:0000dd20       ??_C@_1BE@FEDJNPIB@?$AAn?$AAo?$AAr?$AAw?$AAe?$AAg?$AAi?$AAa?$AAn?$AA?$AA@ 0000000140082d20     LIBCMTD:getqloc.obj
 0002:0000dd38       ??_C@_1CC@CILKDEIE@?$AAn?$AAo?$AAr?$AAw?$AAe?$AAg?$AAi?$AAa?$AAn?$AA?9?$AAb?$AAo?$AAk?$AAm?$AAa?$AAl?$AA?$AA@ 0000000140082d38     LIBCMTD:getqloc.obj
 0002:0000dd60       ??_C@_1CE@DHMMHEPL@?$AAn?$AAo?$AAr?$AAw?$AAe?$AAg?$AAi?$AAa?$AAn?$AA?9?$AAn?$AAy?$AAn?$AAo?$AAr?$AAs?$AAk?$AA?$AA@ 0000000140082d60     LIBCMTD:getqloc.obj
 0002:0000dd88       ??_C@_1CK@OPNMHECD@?$AAp?$AAo?$AAr?$AAt?$AAu?$AAg?$AAu?$AAe?$AAs?$AAe?$AA?9?$AAb?$AAr?$AAa?$AAz?$AAi?$AAl?$AAi?$AAa?$AAn?$AA?$AA@ 0000000140082d88     LIBCMTD:getqloc.obj
 0002:0000ddb8       ??_C@_1CE@KEEHCDB@?$AAs?$AAp?$AAa?$AAn?$AAi?$AAs?$AAh?$AA?9?$AAa?$AAr?$AAg?$AAe?$AAn?$AAt?$AAi?$AAn?$AAa?$AA?$AA@ 0000000140082db8     LIBCMTD:getqloc.obj
 0002:0000dde0       ??_C@_1CA@GIAOLHJD@?$AAs?$AAp?$AAa?$AAn?$AAi?$AAs?$AAh?$AA?9?$AAb?$AAo?$AAl?$AAi?$AAv?$AAi?$AAa?$AA?$AA@ 0000000140082de0     LIBCMTD:getqloc.obj
 0002:0000de00       ??_C@_1BM@OJNDFNPD@?$AAs?$AAp?$AAa?$AAn?$AAi?$AAs?$AAh?$AA?9?$AAc?$AAh?$AAi?$AAl?$AAe?$AA?$AA@ 0000000140082e00     LIBCMTD:getqloc.obj
 0002:0000de20       ??_C@_1CC@OCOLPALL@?$AAs?$AAp?$AAa?$AAn?$AAi?$AAs?$AAh?$AA?9?$AAc?$AAo?$AAl?$AAo?$AAm?$AAb?$AAi?$AAa?$AA?$AA@ 0000000140082e20     LIBCMTD:getqloc.obj
 0002:0000de48       ??_C@_1CG@BPOFMKBB@?$AAs?$AAp?$AAa?$AAn?$AAi?$AAs?$AAh?$AA?9?$AAc?$AAo?$AAs?$AAt?$AAa?$AA?5?$AAr?$AAi?$AAc?$AAa?$AA?$AA@ 0000000140082e48     LIBCMTD:getqloc.obj
 0002:0000de70       ??_C@_1DG@IGOBAPBB@?$AAs?$AAp?$AAa?$AAn?$AAi?$AAs?$AAh?$AA?9?$AAd?$AAo?$AAm?$AAi?$AAn?$AAi?$AAc?$AAa?$AAn?$AA?5?$AAr?$AAe?$AAp?$AAu?$AAb?$AAl?$AAi?$AAc?$AA?$AA@ 0000000140082e70     LIBCMTD:getqloc.obj
 0002:0000dea8       ??_C@_1CA@JHAPGEGI@?$AAs?$AAp?$AAa?$AAn?$AAi?$AAs?$AAh?$AA?9?$AAe?$AAc?$AAu?$AAa?$AAd?$AAo?$AAr?$AA?$AA@ 0000000140082ea8     LIBCMTD:getqloc.obj
 0002:0000dec8       ??_C@_1CI@LAPALJPP@?$AAs?$AAp?$AAa?$AAn?$AAi?$AAs?$AAh?$AA?9?$AAe?$AAl?$AA?5?$AAs?$AAa?$AAl?$AAv?$AAa?$AAd?$AAo?$AAr?$AA?$AA@ 0000000140082ec8     LIBCMTD:getqloc.obj
 0002:0000def0       ??_C@_1CE@PDGBOFOM@?$AAs?$AAp?$AAa?$AAn?$AAi?$AAs?$AAh?$AA?9?$AAg?$AAu?$AAa?$AAt?$AAe?$AAm?$AAa?$AAl?$AAa?$AA?$AA@ 0000000140082ef0     LIBCMTD:getqloc.obj
 0002:0000df18       ??_C@_1CC@NBEBAODI@?$AAs?$AAp?$AAa?$AAn?$AAi?$AAs?$AAh?$AA?9?$AAh?$AAo?$AAn?$AAd?$AAu?$AAr?$AAa?$AAs?$AA?$AA@ 0000000140082f18     LIBCMTD:getqloc.obj
 0002:0000df40       ??_C@_1CA@LLKGHBMF@?$AAs?$AAp?$AAa?$AAn?$AAi?$AAs?$AAh?$AA?9?$AAm?$AAe?$AAx?$AAi?$AAc?$AAa?$AAn?$AA?$AA@ 0000000140082f40     LIBCMTD:getqloc.obj
 0002:0000df60       ??_C@_1BO@LKNDOIGD@?$AAs?$AAp?$AAa?$AAn?$AAi?$AAs?$AAh?$AA?9?$AAm?$AAo?$AAd?$AAe?$AAr?$AAn?$AA?$AA@ 0000000140082f60     LIBCMTD:getqloc.obj
 0002:0000df80       ??_C@_1CE@NMDMOEEB@?$AAs?$AAp?$AAa?$AAn?$AAi?$AAs?$AAh?$AA?9?$AAn?$AAi?$AAc?$AAa?$AAr?$AAa?$AAg?$AAu?$AAa?$AA?$AA@ 0000000140082f80     LIBCMTD:getqloc.obj
 0002:0000dfa8       ??_C@_1BO@LLCBEJGB@?$AAs?$AAp?$AAa?$AAn?$AAi?$AAs?$AAh?$AA?9?$AAp?$AAa?$AAn?$AAa?$AAm?$AAa?$AA?$AA@ 0000000140082fa8     LIBCMTD:getqloc.obj
 0002:0000dfc8       ??_C@_1CC@FKPGGIHO@?$AAs?$AAp?$AAa?$AAn?$AAi?$AAs?$AAh?$AA?9?$AAp?$AAa?$AAr?$AAa?$AAg?$AAu?$AAa?$AAy?$AA?$AA@ 0000000140082fc8     LIBCMTD:getqloc.obj
 0002:0000dff0       ??_C@_1BK@CDEIHOOP@?$AAs?$AAp?$AAa?$AAn?$AAi?$AAs?$AAh?$AA?9?$AAp?$AAe?$AAr?$AAu?$AA?$AA@ 0000000140082ff0     LIBCMTD:getqloc.obj
 0002:0000e010       ??_C@_1CI@GAHAKKGP@?$AAs?$AAp?$AAa?$AAn?$AAi?$AAs?$AAh?$AA?9?$AAp?$AAu?$AAe?$AAr?$AAt?$AAo?$AA?5?$AAr?$AAi?$AAc?$AAo?$AA?$AA@ 0000000140083010     LIBCMTD:getqloc.obj
 0002:0000e038       ??_C@_1CA@NKJBCAGP@?$AAs?$AAp?$AAa?$AAn?$AAi?$AAs?$AAh?$AA?9?$AAu?$AAr?$AAu?$AAg?$AAu?$AAa?$AAy?$AA?$AA@ 0000000140083038     LIBCMTD:getqloc.obj
 0002:0000e058       ??_C@_1CE@ODILCONM@?$AAs?$AAp?$AAa?$AAn?$AAi?$AAs?$AAh?$AA?9?$AAv?$AAe?$AAn?$AAe?$AAz?$AAu?$AAe?$AAl?$AAa?$AA?$AA@ 0000000140083058     LIBCMTD:getqloc.obj
 0002:0000e080       ??_C@_1CA@OBNMCGFO@?$AAs?$AAw?$AAe?$AAd?$AAi?$AAs?$AAh?$AA?9?$AAf?$AAi?$AAn?$AAl?$AAa?$AAn?$AAd?$AA?$AA@ 0000000140083080     LIBCMTD:getqloc.obj
 0002:0000e0a0       ??_C@_1M@PIPDDPPI@?$AAs?$AAw?$AAi?$AAs?$AAs?$AA?$AA@ 00000001400830a0     LIBCMTD:getqloc.obj
 0002:0000e0ac       ??_C@_15PJPFLCCM@?$AAu?$AAk?$AA?$AA@ 00000001400830ac     LIBCMTD:getqloc.obj
 0002:0000e0b4       ??_C@_15GMFIMNFM@?$AAu?$AAs?$AA?$AA@ 00000001400830b4     LIBCMTD:getqloc.obj
 0002:0000e0c0       ??_C@_17HAEBFAGL@?$AAu?$AAs?$AAa?$AA?$AA@ 00000001400830c0     LIBCMTD:getqloc.obj
 0002:0000e0d0       __rg_country               00000001400830d0     LIBCMTD:getqloc.obj
 0002:0000e240       ??_C@_1BA@DPFJEPHB@?$AAa?$AAm?$AAe?$AAr?$AAi?$AAc?$AAa?$AA?$AA@ 0000000140083240     LIBCMTD:getqloc.obj
 0002:0000e250       ??_C@_1BA@ELOGGFK@?$AAb?$AAr?$AAi?$AAt?$AAa?$AAi?$AAn?$AA?$AA@ 0000000140083250     LIBCMTD:getqloc.obj
 0002:0000e260       ??_C@_1M@GHBGIGDA@?$AAc?$AAh?$AAi?$AAn?$AAa?$AA?$AA@ 0000000140083260     LIBCMTD:getqloc.obj
 0002:0000e270       ??_C@_1M@NCHEJOPO@?$AAc?$AAz?$AAe?$AAc?$AAh?$AA?$AA@ 0000000140083270     LIBCMTD:getqloc.obj
 0002:0000e280       ??_C@_1BA@BKPAPBLA@?$AAe?$AAn?$AAg?$AAl?$AAa?$AAn?$AAd?$AA?$AA@ 0000000140083280     LIBCMTD:getqloc.obj
 0002:0000e290       ??_C@_1BM@HKBCKIPC@?$AAg?$AAr?$AAe?$AAa?$AAt?$AA?5?$AAb?$AAr?$AAi?$AAt?$AAa?$AAi?$AAn?$AA?$AA@ 0000000140083290     LIBCMTD:getqloc.obj
 0002:0000e2b0       ??_C@_1BA@PPCHPGJB@?$AAh?$AAo?$AAl?$AAl?$AAa?$AAn?$AAd?$AA?$AA@ 00000001400832b0     LIBCMTD:getqloc.obj
 0002:0000e2c0       ??_C@_1BE@JBMPEGDG@?$AAh?$AAo?$AAn?$AAg?$AA?9?$AAk?$AAo?$AAn?$AAg?$AA?$AA@ 00000001400832c0     LIBCMTD:getqloc.obj
 0002:0000e2d8       ??_C@_1BI@KOELBBPJ@?$AAn?$AAe?$AAw?$AA?9?$AAz?$AAe?$AAa?$AAl?$AAa?$AAn?$AAd?$AA?$AA@ 00000001400832d8     LIBCMTD:getqloc.obj
 0002:0000e2f0       ??_C@_15HIEBHAIO@?$AAn?$AAz?$AA?$AA@ 00000001400832f0     LIBCMTD:getqloc.obj
 0002:0000e2f8       ??_C@_1BC@CHBCPFPI@?$AAp?$AAr?$AA?5?$AAc?$AAh?$AAi?$AAn?$AAa?$AA?$AA@ 00000001400832f8     LIBCMTD:getqloc.obj
 0002:0000e310       ??_C@_1BC@JAOIIFKD@?$AAp?$AAr?$AA?9?$AAc?$AAh?$AAi?$AAn?$AAa?$AA?$AA@ 0000000140083310     LIBCMTD:getqloc.obj
 0002:0000e328       ??_C@_1BI@BEHPPHKC@?$AAp?$AAu?$AAe?$AAr?$AAt?$AAo?$AA?9?$AAr?$AAi?$AAc?$AAo?$AA?$AA@ 0000000140083328     LIBCMTD:getqloc.obj
 0002:0000e340       ??_C@_1O@PAEOFKDI@?$AAs?$AAl?$AAo?$AAv?$AAa?$AAk?$AA?$AA@ 0000000140083340     LIBCMTD:getqloc.obj
 0002:0000e350       ??_C@_1BK@FIHMCKAM@?$AAs?$AAo?$AAu?$AAt?$AAh?$AA?5?$AAa?$AAf?$AAr?$AAi?$AAc?$AAa?$AA?$AA@ 0000000140083350     LIBCMTD:getqloc.obj
 0002:0000e370       ??_C@_1BI@NAEOODKB@?$AAs?$AAo?$AAu?$AAt?$AAh?$AA?5?$AAk?$AAo?$AAr?$AAe?$AAa?$AA?$AA@ 0000000140083370     LIBCMTD:getqloc.obj
 0002:0000e388       ??_C@_1BK@FBDGGIFF@?$AAs?$AAo?$AAu?$AAt?$AAh?$AA?9?$AAa?$AAf?$AAr?$AAi?$AAc?$AAa?$AA?$AA@ 0000000140083388     LIBCMTD:getqloc.obj
 0002:0000e3a8       ??_C@_1BI@GHLEJDPK@?$AAs?$AAo?$AAu?$AAt?$AAh?$AA?9?$AAk?$AAo?$AAr?$AAe?$AAa?$AA?$AA@ 00000001400833a8     LIBCMTD:getqloc.obj
 0002:0000e3c0       ??_C@_1CE@PLHLOMJF@?$AAt?$AAr?$AAi?$AAn?$AAi?$AAd?$AAa?$AAd?$AA?5?$AA?$CG?$AA?5?$AAt?$AAo?$AAb?$AAa?$AAg?$AAo?$AA?$AA@ 00000001400833c0     LIBCMTD:getqloc.obj
 0002:0000e3e8       ??_C@_1BO@MODIMHHI@?$AAu?$AAn?$AAi?$AAt?$AAe?$AAd?$AA?9?$AAk?$AAi?$AAn?$AAg?$AAd?$AAo?$AAm?$AA?$AA@ 00000001400833e8     LIBCMTD:getqloc.obj
 0002:0000e408       ??_C@_1BM@FFHJONBJ@?$AAu?$AAn?$AAi?$AAt?$AAe?$AAd?$AA?9?$AAs?$AAt?$AAa?$AAt?$AAe?$AAs?$AA?$AA@ 0000000140083408     LIBCMTD:getqloc.obj
 0002:0000e430       ??_C@_1GM@HMLPPENJ@?$AAf?$AA?3?$AA?2?$AAd?$AAd?$AA?2?$AAv?$AAc?$AAt?$AAo?$AAo?$AAl?$AAs?$AA?2?$AAc?$AAr?$AAt?$AA_?$AAb?$AAl?$AAd?$AA?2?$AAs?$AAe?$AAl?$AAf?$AA_?$AA6?$AA4?$AA_?$AAa?$AAm@ 0000000140083430     LIBCMTD:getqloc.obj
 0002:0000e4a0       ??_C@_1CO@NJACLALJ@?$AA_?$AA_?$AAg?$AAe?$AAt?$AA_?$AAq?$AAu?$AAa?$AAl?$AAi?$AAf?$AAi?$AAe?$AAd?$AA_?$AAl?$AAo?$AAc?$AAa?$AAl?$AAe?$AA?$AA@ 00000001400834a0     LIBCMTD:getqloc.obj
 0002:0000e4d0       ??_C@_1BGM@FCCPEFDE@?$AAw?$AAc?$AAs?$AAn?$AAc?$AAp?$AAy?$AA_?$AAs?$AA?$CI?$AAl?$AAp?$AAO?$AAu?$AAt?$AAS?$AAt?$AAr?$AA?9?$AA?$DO?$AAs?$AAz?$AAL?$AAo?$AAc?$AAa?$AAl?$AAe?$AAN?$AAa?$AAm?$AAe@ 00000001400834d0     LIBCMTD:getqloc.obj
 0002:0000e640       ??_C@_1CM@OGEMFJNJ@?$AAL?$AAa?$AAn?$AAg?$AAC?$AAo?$AAu?$AAn?$AAt?$AAr?$AAy?$AAE?$AAn?$AAu?$AAm?$AAP?$AAr?$AAo?$AAc?$AAE?$AAx?$AA?$AA@ 0000000140083640     LIBCMTD:getqloc.obj
 0002:0000e670       ??_C@_1BFO@LLJKJAIC@?$AAw?$AAc?$AAs?$AAn?$AAc?$AAp?$AAy?$AA_?$AAs?$AA?$CI?$AA_?$AAp?$AAs?$AAe?$AAt?$AAl?$AAo?$AAc?$AA_?$AAd?$AAa?$AAt?$AAa?$AA?9?$AA?$DO?$AA_?$AAc?$AAa?$AAc?$AAh?$AAe?$AAL@ 0000000140083670     LIBCMTD:getqloc.obj
 0002:0000e7d0       ??_C@_1CG@PGLLICHO@?$AAL?$AAa?$AAn?$AAg?$AAu?$AAa?$AAg?$AAe?$AAE?$AAn?$AAu?$AAm?$AAP?$AAr?$AAo?$AAc?$AAE?$AAx?$AA?$AA@ 00000001400837d0     LIBCMTD:getqloc.obj
 0002:0000e7f8       ??_C@_1DC@CPKFANGP@?$AAG?$AAe?$AAt?$AAL?$AAo?$AAc?$AAa?$AAl?$AAe?$AAN?$AAa?$AAm?$AAe?$AAF?$AAr?$AAo?$AAm?$AAD?$AAe?$AAf?$AAa?$AAu?$AAl?$AAt?$AA?$AA@ 00000001400837f8     LIBCMTD:getqloc.obj
 0002:0000e830       ??_C@_1BEO@EJBNGKHB@?$AAw?$AAc?$AAs?$AAn?$AAc?$AAp?$AAy?$AA_?$AAs?$AA?$CI?$AA_?$AAp?$AAs?$AAe?$AAt?$AAl?$AAo?$AAc?$AA_?$AAd?$AAa?$AAt?$AAa?$AA?9?$AA?$DO?$AA_?$AAc?$AAa?$AAc?$AAh?$AAe?$AAL@ 0000000140083830     LIBCMTD:getqloc.obj
 0002:0000e980       ??_C@_17DNCLJFIF@?$AAA?$AAC?$AAP?$AA?$AA@ 0000000140083980     LIBCMTD:getqloc.obj
 0002:0000e988       ??_C@_17CIKBIHLH@?$AAO?$AAC?$AAP?$AA?$AA@ 0000000140083988     LIBCMTD:getqloc.obj
 0002:0000e990       ??_C@_1GI@EOCMABI@?$AAf?$AA?3?$AA?2?$AAd?$AAd?$AA?2?$AAv?$AAc?$AAt?$AAo?$AAo?$AAl?$AAs?$AA?2?$AAc?$AAr?$AAt?$AA_?$AAb?$AAl?$AAd?$AA?2?$AAs?$AAe?$AAl?$AAf?$AA_?$AA6?$AA4?$AA_?$AAa?$AAm@ 0000000140083990     LIBCMTD:close.obj
 0002:0000e9f8       ??_C@_1O@EDEJGJBM@?$AA_?$AAc?$AAl?$AAo?$AAs?$AAe?$AA?$AA@ 00000001400839f8     LIBCMTD:close.obj
 0002:0000ea08       ??_C@_1BO@KIJENGPH@?$AAs?$AAt?$AAr?$AAe?$AAa?$AAm?$AA?5?$AA?$CB?$AA?$DN?$AA?5?$AAN?$AAU?$AAL?$AAL?$AA?$AA@ 0000000140083a08     LIBCMTD:_freebuf.obj
 0002:0000ea30       ??_C@_1GO@JLKGNODO@?$AAf?$AA?3?$AA?2?$AAd?$AAd?$AA?2?$AAv?$AAc?$AAt?$AAo?$AAo?$AAl?$AAs?$AA?2?$AAc?$AAr?$AAt?$AA_?$AAb?$AAl?$AAd?$AA?2?$AAs?$AAe?$AAl?$AAf?$AA_?$AA6?$AA4?$AA_?$AAa?$AAm@ 0000000140083a30     LIBCMTD:_freebuf.obj
 0002:0000eaa0       ??_C@_1GK@FPCBPPNB@?$AAf?$AA?3?$AA?2?$AAd?$AAd?$AA?2?$AAv?$AAc?$AAt?$AAo?$AAo?$AAl?$AAs?$AA?2?$AAc?$AAr?$AAt?$AA_?$AAb?$AAl?$AAd?$AA?2?$AAs?$AAe?$AAl?$AAf?$AA_?$AA6?$AA4?$AA_?$AAa?$AAm@ 0000000140083aa0     LIBCMTD:chsize.obj
 0002:0000eb10       ??_C@_1BE@MAFDNGED@?$AA_?$AAc?$AAh?$AAs?$AAi?$AAz?$AAe?$AA_?$AAs?$AA?$AA@ 0000000140083b10     LIBCMTD:chsize.obj
 0002:0000eb28       ??_C@_1BI@GALBKMKE@?$AA?$CI?$AAs?$AAi?$AAz?$AAe?$AA?5?$AA?$DO?$AA?$DN?$AA?5?$AA0?$AA?$CJ?$AA?$AA@ 0000000140083b28     LIBCMTD:chsize.obj
 0002:0000eb40       ??_C@_1OA@HGPJIFPM@?$AA?$CI?$AA?$CI?$AAm?$AAo?$AAd?$AAe?$AA?5?$AA?$DN?$AA?$DN?$AA?5?$AA_?$AAO?$AA_?$AAT?$AAE?$AAX?$AAT?$AA?$CJ?$AA?5?$AA?$HM?$AA?$HM?$AA?5?$AA?$CI?$AAm?$AAo?$AAd?$AAe?$AA?5?$AA?$DN?$AA?$DN?$AA?5?$AA_@ 0000000140083b40     LIBCMTD:setmode.obj
 0002:0000ec20       ??_C@_1GM@NHMCDJGE@?$AAf?$AA?3?$AA?2?$AAd?$AAd?$AA?2?$AAv?$AAc?$AAt?$AAo?$AAo?$AAl?$AAs?$AA?2?$AAc?$AAr?$AAt?$AA_?$AAb?$AAl?$AAd?$AA?2?$AAs?$AAe?$AAl?$AAf?$AA_?$AA6?$AA4?$AA_?$AAa?$AAm@ 0000000140083c20     LIBCMTD:setmode.obj
 0002:0000ec90       ??_C@_1BC@JBGGJDCM@?$AA_?$AAs?$AAe?$AAt?$AAm?$AAo?$AAd?$AAe?$AA?$AA@ 0000000140083c90     LIBCMTD:setmode.obj
 0002:0000ecb0       ??_C@_1IC@NDCJMLB@?$AA?$CI?$AA?$CI?$AAm?$AAo?$AAd?$AAe?$AA?5?$AA?$DN?$AA?$DN?$AA?5?$AA_?$AAO?$AA_?$AAT?$AAE?$AAX?$AAT?$AA?$CJ?$AA?5?$AA?$HM?$AA?$HM?$AA?5?$AA?$CI?$AAm?$AAo?$AAd?$AAe?$AA?5?$AA?$DN?$AA?$DN?$AA?5?$AA_@ 0000000140083cb0     LIBCMTD:setmode.obj
 0002:0000ed38       ??_C@_1BG@IEEHLOCL@?$AA_?$AAs?$AAe?$AAt?$AA_?$AAf?$AAm?$AAo?$AAd?$AAe?$AA?$AA@ 0000000140083d38     LIBCMTD:setmode.obj
 0002:0000ed50       ??_C@_1CA@GPIGPPFN@?$AA?$CI?$AAp?$AAM?$AAo?$AAd?$AAe?$AA?5?$AA?$CB?$AA?$DN?$AA?5?$AAN?$AAU?$AAL?$AAL?$AA?$CJ?$AA?$AA@ 0000000140083d50     LIBCMTD:setmode.obj
 0002:0000ed70       ??_C@_1BG@CKGMPOFH@?$AA_?$AAg?$AAe?$AAt?$AA_?$AAf?$AAm?$AAo?$AAd?$AAe?$AA?$AA@ 0000000140083d70     LIBCMTD:setmode.obj
 0002:0000edb0       ??_C@_1GK@GEJDGIG@?$AAf?$AA?3?$AA?2?$AAd?$AAd?$AA?2?$AAv?$AAc?$AAt?$AAo?$AAo?$AAl?$AAs?$AA?2?$AAc?$AAr?$AAt?$AA_?$AAb?$AAl?$AAd?$AA?2?$AAs?$AAe?$AAl?$AAf?$AA_?$AA6?$AA4?$AA_?$AAa?$AAm@ 0000000140083db0     LIBCMTD:strtoq.obj
 0002:0000ee20       ??_C@_1BA@BMMDEPNE@?$AAs?$AAt?$AAr?$AAt?$AAo?$AAx?$AAq?$AA?$AA@ 0000000140083e20     LIBCMTD:strtoq.obj
 0002:0000ee30       ??_C@_1GK@GMIOOCOH@?$AAf?$AA?3?$AA?2?$AAd?$AAd?$AA?2?$AAv?$AAc?$AAt?$AAo?$AAo?$AAl?$AAs?$AA?2?$AAc?$AAr?$AAt?$AA_?$AAb?$AAl?$AAd?$AA?2?$AAs?$AAe?$AAl?$AAf?$AA_?$AA6?$AA4?$AA_?$AAa?$AAm@ 0000000140083e30     LIBCMTD:wcstol.obj
 0002:0000eea0       ??_C@_1BA@PCFLFGNC@?$AAw?$AAc?$AAs?$AAt?$AAo?$AAx?$AAl?$AA?$AA@ 0000000140083ea0     LIBCMTD:wcstol.obj
 0002:0000eeb8       ??_7exception@std@@6B@     0000000140083eb8     LIBCMTD:stdexcpt.obj
 0002:0000eec8       ??_C@_0BC@EOODALEL@Unknown?5exception?$AA@ 0000000140083ec8     LIBCMTD:stdexcpt.obj
 0002:0000eee8       ??_7bad_cast@std@@6B@      0000000140083ee8     LIBCMTD:stdexcpt.obj
 0002:0000ef00       ??_7bad_typeid@std@@6B@    0000000140083f00     LIBCMTD:stdexcpt.obj
 0002:0000ef18       ??_7__non_rtti_object@std@@6B@ 0000000140083f18     LIBCMTD:stdexcpt.obj
 0002:0000ef70       ??_C@_1GM@LOECEANC@?$AAf?$AA?3?$AA?2?$AAd?$AAd?$AA?2?$AAv?$AAc?$AAt?$AAo?$AAo?$AAl?$AAs?$AA?2?$AAc?$AAr?$AAt?$AA_?$AAb?$AAl?$AAd?$AA?2?$AAs?$AAe?$AAl?$AAf?$AA_?$AA6?$AA4?$AA_?$AAa?$AAm@ 0000000140083f70     LIBCMTD:wcsicmp.obj
 0002:0000efe0       ??_C@_1BG@EELGPCPD@?$AA_?$AAw?$AAc?$AAs?$AAi?$AAc?$AAm?$AAp?$AA_?$AAl?$AA?$AA@ 0000000140083fe0     LIBCMTD:wcsicmp.obj
 0002:0000eff8       ??_C@_1BC@NHIBDOMC@?$AA_?$AAw?$AAc?$AAs?$AAi?$AAc?$AAm?$AAp?$AA?$AA@ 0000000140083ff8     LIBCMTD:wcsicmp.obj
 0002:0000f010       ??_C@_1BM@CBACDFHA@?$AAf?$AAi?$AAr?$AAs?$AAt?$AA?5?$AA?$CB?$AA?$DN?$AA?5?$AAN?$AAU?$AAL?$AAL?$AA?$AA@ 0000000140084010     LIBCMTD:wcsnicmp.obj
 0002:0000f030       ??_C@_1GO@LIEADEM@?$AAf?$AA?3?$AA?2?$AAd?$AAd?$AA?2?$AAv?$AAc?$AAt?$AAo?$AAo?$AAl?$AAs?$AA?2?$AAc?$AAr?$AAt?$AA_?$AAb?$AAl?$AAd?$AA?2?$AAs?$AAe?$AAl?$AAf?$AA_?$AA6?$AA4?$AA_?$AAa?$AAm@ 0000000140084030     LIBCMTD:wcsnicmp.obj
 0002:0000f0a0       ??_C@_1BI@KLMFNDBC@?$AA_?$AAw?$AAc?$AAs?$AAn?$AAi?$AAc?$AAm?$AAp?$AA_?$AAl?$AA?$AA@ 00000001400840a0     LIBCMTD:wcsnicmp.obj
 0002:0000f0b8       ??_C@_1BK@LKBOPAFJ@?$AAl?$AAa?$AAs?$AAt?$AA?5?$AA?$CB?$AA?$DN?$AA?5?$AAN?$AAU?$AAL?$AAL?$AA?$AA@ 00000001400840b8     LIBCMTD:wcsnicmp.obj
 0002:0000f0d8       ??_C@_1BE@JKOKKFEL@?$AA_?$AAw?$AAc?$AAs?$AAn?$AAi?$AAc?$AAm?$AAp?$AA?$AA@ 00000001400840d8     LIBCMTD:wcsnicmp.obj
 0002:0000f120       ??_C@_1GK@ILDAMGBN@?$AAf?$AA?3?$AA?2?$AAd?$AAd?$AA?2?$AAv?$AAc?$AAt?$AAo?$AAo?$AAl?$AAs?$AA?2?$AAc?$AAr?$AAt?$AA_?$AAb?$AAl?$AAd?$AA?2?$AAs?$AAe?$AAl?$AAf?$AA_?$AA6?$AA4?$AA_?$AAa?$AAm@ 0000000140084120     LIBCMTD:wcstoq.obj
 0002:0000f190       ??_C@_1BA@FACINJJA@?$AAw?$AAc?$AAs?$AAt?$AAo?$AAx?$AAq?$AA?$AA@ 0000000140084190     LIBCMTD:wcstoq.obj
 0002:0000f1a0       _load_config_used          00000001400841a0     LIBCMTD:loadcfg.obj
 0002:00012010       ??_R4IPlatform@@6B@        0000000140087010     Launcher.obj
 0002:00012040       ??_R3IPlatform@@8          0000000140087040     Launcher.obj
 0002:00012058       ??_R2IPlatform@@8          0000000140087058     Launcher.obj
 0002:00012068       ??_R1A@?0A@EA@IPlatform@@8 0000000140087068     Launcher.obj
 0002:00012098       ??_R4CPlatform@@6B@        0000000140087098     Launcher.obj
 0002:000120c8       ??_R3CPlatform@@8          00000001400870c8     Launcher.obj
 0002:000120e0       ??_R2CPlatform@@8          00000001400870e0     Launcher.obj
 0002:000120f8       ??_R1A@?0A@EA@CPlatform@@8 00000001400870f8     Launcher.obj
 0002:00012128       ??_R4type_info@@6B@        0000000140087128     LIBCMTD:typinfo.obj
 0002:00012150       ??_R3type_info@@8          0000000140087150     LIBCMTD:typinfo.obj
 0002:00012168       ??_R2type_info@@8          0000000140087168     LIBCMTD:typinfo.obj
 0002:00012178       ??_R1A@?0A@EA@type_info@@8 0000000140087178     LIBCMTD:typinfo.obj
 0002:000121a0       ??_R4DNameNode@@6B@        00000001400871a0     LIBCMTD:undname.obj
 0002:000121c8       ??_R3DNameNode@@8          00000001400871c8     LIBCMTD:undname.obj
 0002:000121e0       ??_R2DNameNode@@8          00000001400871e0     LIBCMTD:undname.obj
 0002:000121f0       ??_R1A@?0A@EA@DNameNode@@8 00000001400871f0     LIBCMTD:undname.obj
 0002:00012218       ??_R4charNode@@6B@         0000000140087218     LIBCMTD:undname.obj
 0002:00012240       ??_R3charNode@@8           0000000140087240     LIBCMTD:undname.obj
 0002:00012258       ??_R2charNode@@8           0000000140087258     LIBCMTD:undname.obj
 0002:00012270       ??_R1A@?0A@EA@charNode@@8  0000000140087270     LIBCMTD:undname.obj
 0002:00012298       ??_R4pcharNode@@6B@        0000000140087298     LIBCMTD:undname.obj
 0002:000122c0       ??_R3pcharNode@@8          00000001400872c0     LIBCMTD:undname.obj
 0002:000122d8       ??_R2pcharNode@@8          00000001400872d8     LIBCMTD:undname.obj
 0002:000122f0       ??_R1A@?0A@EA@pcharNode@@8 00000001400872f0     LIBCMTD:undname.obj
 0002:00012318       ??_R4pDNameNode@@6B@       0000000140087318     LIBCMTD:undname.obj
 0002:00012340       ??_R3pDNameNode@@8         0000000140087340     LIBCMTD:undname.obj
 0002:00012358       ??_R2pDNameNode@@8         0000000140087358     LIBCMTD:undname.obj
 0002:00012370       ??_R1A@?0A@EA@pDNameNode@@8 0000000140087370     LIBCMTD:undname.obj
 0002:00012398       ??_R4DNameStatusNode@@6B@  0000000140087398     LIBCMTD:undname.obj
 0002:000123c0       ??_R3DNameStatusNode@@8    00000001400873c0     LIBCMTD:undname.obj
 0002:000123d8       ??_R2DNameStatusNode@@8    00000001400873d8     LIBCMTD:undname.obj
 0002:000123f0       ??_R1A@?0A@EA@DNameStatusNode@@8 00000001400873f0     LIBCMTD:undname.obj
 0002:00012418       ??_R4pairNode@@6B@         0000000140087418     LIBCMTD:undname.obj
 0002:00012440       ??_R3pairNode@@8           0000000140087440     LIBCMTD:undname.obj
 0002:00012458       ??_R2pairNode@@8           0000000140087458     LIBCMTD:undname.obj
 0002:00012470       ??_R1A@?0A@EA@pairNode@@8  0000000140087470     LIBCMTD:undname.obj
 0002:00012498       ??_R4bad_exception@std@@6B@ 0000000140087498     LIBCMTD:frame.obj
 0002:000124c0       ??_R3bad_exception@std@@8  00000001400874c0     LIBCMTD:frame.obj
 0002:000124d8       ??_R2bad_exception@std@@8  00000001400874d8     LIBCMTD:frame.obj
 0002:000124f0       ??_R1A@?0A@EA@bad_exception@std@@8 00000001400874f0     LIBCMTD:frame.obj
 0002:00012518       ??_R1A@?0A@EA@exception@std@@8 0000000140087518     LIBCMTD:frame.obj
 0002:00012540       ??_R3exception@std@@8      0000000140087540     LIBCMTD:frame.obj
 0002:00012558       ??_R2exception@std@@8      0000000140087558     LIBCMTD:frame.obj
 0002:00012568       ??_R4exception@std@@6B@    0000000140087568     LIBCMTD:stdexcpt.obj
 0002:00012590       ??_R4bad_cast@std@@6B@     0000000140087590     LIBCMTD:stdexcpt.obj
 0002:000125b8       ??_R3bad_cast@std@@8       00000001400875b8     LIBCMTD:stdexcpt.obj
 0002:000125d0       ??_R2bad_cast@std@@8       00000001400875d0     LIBCMTD:stdexcpt.obj
 0002:000125e8       ??_R1A@?0A@EA@bad_cast@std@@8 00000001400875e8     LIBCMTD:stdexcpt.obj
 0002:00012610       ??_R4bad_typeid@std@@6B@   0000000140087610     LIBCMTD:stdexcpt.obj
 0002:00012638       ??_R3bad_typeid@std@@8     0000000140087638     LIBCMTD:stdexcpt.obj
 0002:00012650       ??_R2bad_typeid@std@@8     0000000140087650     LIBCMTD:stdexcpt.obj
 0002:00012668       ??_R1A@?0A@EA@bad_typeid@std@@8 0000000140087668     LIBCMTD:stdexcpt.obj
 0002:00012690       ??_R4__non_rtti_object@std@@6B@ 0000000140087690     LIBCMTD:stdexcpt.obj
 0002:000126b8       ??_R3__non_rtti_object@std@@8 00000001400876b8     LIBCMTD:stdexcpt.obj
 0002:000126d0       ??_R2__non_rtti_object@std@@8 00000001400876d0     LIBCMTD:stdexcpt.obj
 0002:000126f0       ??_R1A@?0A@EA@__non_rtti_object@std@@8 00000001400876f0     LIBCMTD:stdexcpt.obj
 0002:00012948       __rtc_iaa                  0000000140087948     LIBCMTD:initsect.obj
 0002:00012a58       __rtc_izz                  0000000140087a58     LIBCMTD:initsect.obj
 0002:00012b68       __rtc_taa                  0000000140087b68     LIBCMTD:initsect.obj
 0002:00012c78       __rtc_tzz                  0000000140087c78     LIBCMTD:initsect.obj
 0002:00015ea0       _TI2?AVbad_exception@std@@ 000000014008aea0     LIBCMTD:frame.obj
 0002:00015ec0       _CTA2?AVbad_exception@std@@ 000000014008aec0     LIBCMTD:frame.obj
 0002:00015ed8       _CT??_R0?AVbad_exception@std@@@8??0bad_exception@std@@QEAA@AEBV01@@Z24 000000014008aed8     LIBCMTD:frame.obj
 0002:00015f00       _CT??_R0?AVexception@std@@@8??0exception@std@@QEAA@AEBV01@@Z24 000000014008af00     LIBCMTD:frame.obj
 0003:00000078       ??_R0?AVIPlatform@@@8      000000014008c078     Launcher.obj
 0003:000000a0       ??_R0?AVCPlatform@@@8      000000014008c0a0     Launcher.obj
 0003:000000d0       ??_R0?AVtype_info@@@8      000000014008c0d0     LIBCMTD:typinfo.obj
 0003:000000f8       __nullstring               000000014008c0f8     LIBCMTD:output.obj
 0003:00000100       __wnullstring              000000014008c100     LIBCMTD:output.obj
 0003:00000280       _crtBreakAlloc             000000014008c280     LIBCMTD:dbgheap.obj
 0003:00000288       __crtDebugFillThreshold    000000014008c288     LIBCMTD:dbgheap.obj
 0003:00000294       _crtDbgFlag                000000014008c294     LIBCMTD:dbgheap.obj
 0003:00000298       __isa_available            000000014008c298     LIBCMTD:cpu_disp.obj
 0003:0000029c       __isa_enabled              000000014008c29c     LIBCMTD:cpu_disp.obj
 0003:000002a0       _iob                       000000014008c2a0     LIBCMTD:_file.obj
 0003:00000660       _lookuptrailbytes          000000014008c660     LIBCMTD:read.obj
 0003:00000760       __badioinfo                000000014008c760     LIBCMTD:ioinit.obj
 0003:000007b8       __security_cookie          000000014008c7b8     LIBCMTD:gs_cookie.obj
 0003:000007c0       __security_cookie_complement 000000014008c7c0     LIBCMTD:gs_cookie.obj
 0003:000007d0       __abort_behavior           000000014008c7d0     LIBCMTD:abort.obj
 0003:000007e0       __flsindex                 000000014008c7e0     LIBCMTD:tidtable.obj
 0003:000007e8       _pfnAllocHook              000000014008c7e8     LIBCMTD:dbghook.obj
 0003:00000a30       _CrtDbgMode                000000014008ca30     LIBCMTD:dbgrptt.obj
 0003:00000a3c       _crtAssertBusy             000000014008ca3c     LIBCMTD:dbgrptt.obj
 0003:00000a40       _CrtDbgFile                000000014008ca40     LIBCMTD:dbgrptt.obj
 0003:00000b60       __ptmbcinfo                000000014008cb60     LIBCMTD:mbctype.obj
 0003:00000b70       _mbctype                   000000014008cb70     LIBCMTD:mbctype.obj
 0003:00000c80       _mbcasemap                 000000014008cc80     LIBCMTD:mbctype.obj
 0003:00000d80       __initialmbcinfo           000000014008cd80     LIBCMTD:mbctype.obj
 0003:00000fb0       __wclocalestr              000000014008cfb0     LIBCMTD:nlsdata.obj
 0003:00000fc0       __lc_time_c                000000014008cfc0     LIBCMTD:nlsdata.obj
 0003:00001280       __ptlocinfo                000000014008d280     LIBCMTD:nlsdata.obj
 0003:00001290       __initiallocinfo           000000014008d290     LIBCMTD:nlsdata.obj
 0003:000013e8       __initiallocalestructinfo  000000014008d3e8     LIBCMTD:nlsdata.obj
 0003:000013f8       __mb_cur_max               000000014008d3f8     LIBCMTD:nlsdata.obj
 0003:000013fc       __globallocalestatus       000000014008d3fc     LIBCMTD:glstatus.obj
 0003:00001400       _cfltcvt_tab               000000014008d400     LIBCMTD:cmiscdat.obj
 0003:00001458       ??_R0?AVDNameNode@@@8      000000014008d458     LIBCMTD:undname.obj
 0003:00001478       ??_R0?AVcharNode@@@8       000000014008d478     LIBCMTD:undname.obj
 0003:00001498       ??_R0?AVpcharNode@@@8      000000014008d498     LIBCMTD:undname.obj
 0003:000014b8       ??_R0?AVpDNameNode@@@8     000000014008d4b8     LIBCMTD:undname.obj
 0003:000014e0       ??_R0?AVDNameStatusNode@@@8 000000014008d4e0     LIBCMTD:undname.obj
 0003:00001508       ??_R0?AVpairNode@@@8       000000014008d508     LIBCMTD:undname.obj
 0003:00001530       __lconv_static_decimal     000000014008d530     LIBCMTD:lconv.obj
 0003:00001534       __lconv_static_W_decimal   000000014008d534     LIBCMTD:lconv.obj
 0003:00001538       __lconv                    000000014008d538     LIBCMTD:lconv.obj
 0003:00001540       __lconv_c                  000000014008d540     LIBCMTD:lconv.obj
 0003:000015d8       _pctype                    000000014008d5d8     LIBCMTD:ctype.obj
 0003:000015e0       _pwctype                   000000014008d5e0     LIBCMTD:ctype.obj
 0003:000015f0       _confh                     000000014008d5f0     LIBCMTD:initcon.obj
 0003:000015f8       ??_R0?AVbad_exception@std@@@8 000000014008d5f8     LIBCMTD:frame.obj
 0003:00001620       ??_R0?AVexception@std@@@8  000000014008d620     LIBCMTD:frame.obj
 0003:00001650       ??_R0?AVbad_cast@std@@@8   000000014008d650     LIBCMTD:stdexcpt.obj
 0003:00001678       ??_R0?AVbad_typeid@std@@@8 000000014008d678     LIBCMTD:stdexcpt.obj
 0003:000016a0       ??_R0?AV__non_rtti_object@std@@@8 000000014008d6a0     LIBCMTD:stdexcpt.obj
 0003:00001c60       __@@_PchSym_@00@UfhvihUibzmUwvhpglkUtvmvhrhUozfmxsvihUdrmwldhUcGEUwvyftUzoosvzwOlyq@185311A76E589F 000000014008dc60     allhead.obj
 0003:00003a90       ?hInst@@3PEAUHINSTANCE__@@EA 000000014008fa90     Launcher.obj
 0003:00003a98       ?hWnd@@3PEAUHWND__@@EA     000000014008fa98     Launcher.obj
 0003:00003aa0       ?szTitle@@3PADA            000000014008faa0     Launcher.obj
 0003:00003b04       ?engineState@@3W4engine_state_e@@A 000000014008fb04     Launcher.obj
 0003:00003b08       ?engineMutex@@3PEAXEA      000000014008fb08     Launcher.obj
 0003:00003b10       ?szWindowClass@@3PADA      000000014008fb10     Launcher.obj
 0003:00004a70       _aenvptr                   0000000140090a70     LIBCMTD:wincrt0.obj
 0003:00004a78       _wenvptr                   0000000140090a78     LIBCMTD:wincrt0.obj
 0003:00004a80       __pInvalidArgHandler       0000000140090a80     LIBCMTD:invarg.obj
 0003:00004a88       __crtDebugCheckCount       0000000140090a88     LIBCMTD:dbgheap.obj
 0003:00004a90       ?_pfnDumpClient@@3P6AXPEAX_K@ZEA 0000000140090a90     LIBCMTD:dbgheap.obj
 0003:00004ac8       __favor                    0000000140090ac8     LIBCMTD:cpu_disp.obj
 0003:00004acc       _cflush                    0000000140090acc     LIBCMTD:_file.obj
 0003:00004ad0       __ioInitOnce               0000000140090ad0     LIBCMTD:ioinit.obj
 0003:00004ae0       __app_type                 0000000140090ae0     LIBCMTD:crt0msg.obj
 0003:00005118       __pPurecall                0000000140091118     LIBCMTD:inithelp.obj
 0003:00005130       _umaskval                  0000000140091130     LIBCMTD:crt0dat.obj
 0003:00005134       _exitflag                  0000000140091134     LIBCMTD:crt0dat.obj
 0003:00005138       _C_Termination_Done        0000000140091138     LIBCMTD:crt0dat.obj
 0003:0000513c       _C_Exit_Done               000000014009113c     LIBCMTD:crt0dat.obj
 0003:00005140       __winitenv                 0000000140091140     LIBCMTD:crt0dat.obj
 0003:00005148       __initenv                  0000000140091148     LIBCMTD:crt0dat.obj
 0003:00005154       __argc                     0000000140091154     LIBCMTD:crt0dat.obj
 0003:00005158       __argv                     0000000140091158     LIBCMTD:crt0dat.obj
 0003:00005160       __wargv                    0000000140091160     LIBCMTD:crt0dat.obj
 0003:00005168       _environ                   0000000140091168     LIBCMTD:crt0dat.obj
 0003:00005170       _wenviron                  0000000140091170     LIBCMTD:crt0dat.obj
 0003:00005178       _pgmptr                    0000000140091178     LIBCMTD:crt0dat.obj
 0003:00005180       _wpgmptr                   0000000140091180     LIBCMTD:crt0dat.obj
 0003:00005188       _crtheap                   0000000140091188     LIBCMTD:heapinit.obj
 0003:00005298       __error_mode               0000000140091298     LIBCMTD:errmode.obj
 0003:00005ac8       __mblocalename             0000000140091ac8     LIBCMTD:mbctype.obj
 0003:00005ad0       __mbcodepage               0000000140091ad0     LIBCMTD:mbctype.obj
 0003:00005ad4       __ismbcodepage             0000000140091ad4     LIBCMTD:mbctype.obj
 0003:00005ad8       __mbulinfo                 0000000140091ad8     LIBCMTD:mbctype.obj
 0003:00005af0       ?_pnhHeap@@3P6AH_K@ZEA     0000000140091af0     LIBCMTD:handler.obj
 0003:00005af8       _newmode                   0000000140091af8     LIBCMTD:_newmode.obj
 0003:00005afc       _commode                   0000000140091afc     LIBCMTD:ncommode.obj
 0003:00005b00       ?pArgList@UnDecorator@@0PEAVReplicator@@EA 0000000140091b00     LIBCMTD:undname.obj
 0003:00005b08       ?pZNameList@UnDecorator@@0PEAVReplicator@@EA 0000000140091b08     LIBCMTD:undname.obj
 0003:00005b10       ?pTemplateArgList@UnDecorator@@0PEAVReplicator@@EA 0000000140091b10     LIBCMTD:undname.obj
 0003:00005b18       ?gName@UnDecorator@@0PEBDEB 0000000140091b18     LIBCMTD:undname.obj
 0003:00005b20       ?name@UnDecorator@@0PEBDEB 0000000140091b20     LIBCMTD:undname.obj
 0003:00005b28       ?outputString@UnDecorator@@0PEADEA 0000000140091b28     LIBCMTD:undname.obj
 0003:00005b30       ?maxStringLength@UnDecorator@@0HA 0000000140091b30     LIBCMTD:undname.obj
 0003:00005b34       ?disableFlags@UnDecorator@@0KA 0000000140091b34     LIBCMTD:undname.obj
 0003:00005b38       ?fExplicitTemplateParams@UnDecorator@@0_NA 0000000140091b38     LIBCMTD:undname.obj
 0003:00005b39       ?fGetTemplateArgumentList@UnDecorator@@0_NA 0000000140091b39     LIBCMTD:undname.obj
 0003:00005b40       ?m_pGetParameter@UnDecorator@@0P6APEADJ@ZEA 0000000140091b40     LIBCMTD:undname.obj
 0003:00005bc0       ?nodes@?1??make@DNameStatusNode@@SAPEAV2@W4DNameStatus@@@Z@4PAV2@A 0000000140091bc0     LIBCMTD:undname.obj
 0003:00005c00       ??_B?1??make@DNameStatusNode@@SAPEAV1@W4DNameStatus@@@Z@51 0000000140091c00     LIBCMTD:undname.obj
 0003:00005c08       ?__pInconsistency@@3P6AXXZEA 0000000140091c08     LIBCMTD:hooks.obj
 0003:00005c18       _stdbuf                    0000000140091c18     LIBCMTD:_sftbuf.obj
 0003:00005c28       __lconv_static_null        0000000140091c28     LIBCMTD:lconv.obj
 0003:00005c2c       __lconv_static_W_null      0000000140091c2c     LIBCMTD:lconv.obj
 0003:00005c30       __locale_changed           0000000140091c30     LIBCMTD:wsetloca.obj
 0003:00005c34       _fmode                     0000000140091c34     LIBCMTD:txtmode.obj
 0003:00005c38       __unguarded_readlc_active  0000000140091c38     <common>
 0003:00005c48       __setlc_active             0000000140091c48     <common>
 0003:00005c50       _pReportHookListW          0000000140091c50     <common>
 0003:00005c68       _pReportHookList           0000000140091c68     <common>
 0003:00005c70       _pfnReportHook             0000000140091c70     <common>
 0003:00005c78       _debugger_hook_dummy       0000000140091c78     <common>
 0003:00005c88       __dyn_tls_init_callback    0000000140091c88     <common>
 0003:00005ca0       __onexitend                0000000140091ca0     <common>
 0003:00005ca8       __onexitbegin              0000000140091ca8     <common>
 0003:00005cb0       _FPinit                    0000000140091cb0     <common>
 0003:00005cb8       __mbctype_initialized      0000000140091cb8     <common>
 0003:00005cbc       __env_initialized          0000000140091cbc     <common>
 0003:00005cc0       _nhandle                   0000000140091cc0     <common>
 0003:00005d40       __pioinfo                  0000000140091d40     <common>
 0003:00005f40       _bufin                     0000000140091f40     <common>
 0003:00007280       __piob                     0000000140093280     <common>
 0003:00007288       _nstream                   0000000140093288     <common>
 0003:00007290       _acmdln                    0000000140093290     <common>
 0005:00000000       __IMPORT_DESCRIPTOR_utilities 0000000140098000     utilities:utilities.dll
 0005:00000014       __IMPORT_DESCRIPTOR_KERNEL32 0000000140098014     kernel32:KERNEL32.dll
 0005:00000028       __IMPORT_DESCRIPTOR_USER32 0000000140098028     user32:USER32.dll
 0005:0000003c       __NULL_IMPORT_DESCRIPTOR   000000014009803c     utilities:utilities.dll
 0005:000005d8       __imp_GetFileType          00000001400985d8     kernel32:KERNEL32.dll
 0005:000005e0       __imp_RaiseException       00000001400985e0     kernel32:KERNEL32.dll
 0005:000005e8       __imp_RtlPcToFileHeader    00000001400985e8     kernel32:KERNEL32.dll
 0005:000005f0       __imp_CreateFileW          00000001400985f0     kernel32:KERNEL32.dll
 0005:000005f8       __imp_GetStringTypeW       00000001400985f8     kernel32:KERNEL32.dll
 0005:00000600       __imp_EnumSystemLocalesEx  0000000140098600     kernel32:KERNEL32.dll
 0005:00000608       __imp_IsValidLocaleName    0000000140098608     kernel32:KERNEL32.dll
 0005:00000610       __imp_LCMapStringEx        0000000140098610     kernel32:KERNEL32.dll
 0005:00000618       __imp_GetUserDefaultLocaleName 0000000140098618     kernel32:KERNEL32.dll
 0005:00000620       __imp_FreeLibrary          0000000140098620     kernel32:KERNEL32.dll
 0005:00000628       __imp_LoadLibraryA         0000000140098628     kernel32:KERNEL32.dll
 0005:00000630       __imp_CloseHandle          0000000140098630     kernel32:KERNEL32.dll
 0005:00000638       __imp_ReleaseMutex         0000000140098638     kernel32:KERNEL32.dll
 0005:00000640       __imp_WaitForSingleObject  0000000140098640     kernel32:KERNEL32.dll
 0005:00000648       __imp_CreateMutexA         0000000140098648     kernel32:KERNEL32.dll
 0005:00000650       __imp_ExitProcess          0000000140098650     kernel32:KERNEL32.dll
 0005:00000658       __imp_CreateThread         0000000140098658     kernel32:KERNEL32.dll
 0005:00000660       __imp_GetExitCodeThread    0000000140098660     kernel32:KERNEL32.dll
 0005:00000668       __imp_GetLocaleInfoEx      0000000140098668     kernel32:KERNEL32.dll
 0005:00000670       __imp_CompareStringEx      0000000140098670     kernel32:KERNEL32.dll
 0005:00000678       __imp_GetDateFormatEx      0000000140098678     kernel32:KERNEL32.dll
 0005:00000680       __imp_GetTimeFormatEx      0000000140098680     kernel32:KERNEL32.dll
 0005:00000688       __imp_FlushFileBuffers     0000000140098688     kernel32:KERNEL32.dll
 0005:00000690       __imp_SetStdHandle         0000000140098690     kernel32:KERNEL32.dll
 0005:00000698       __imp_HeapAlloc            0000000140098698     kernel32:KERNEL32.dll
 0005:000006a0       __imp_HeapQueryInformation 00000001400986a0     kernel32:KERNEL32.dll
 0005:000006a8       __imp_HeapReAlloc          00000001400986a8     kernel32:KERNEL32.dll
 0005:000006b0       __imp_HeapFree             00000001400986b0     kernel32:KERNEL32.dll
 0005:000006b8       __imp_GetCPInfo            00000001400986b8     kernel32:KERNEL32.dll
 0005:000006c0       __imp_GetOEMCP             00000001400986c0     kernel32:KERNEL32.dll
 0005:000006c8       __imp_GetACP               00000001400986c8     kernel32:KERNEL32.dll
 0005:000006d0       __imp_IsValidCodePage      00000001400986d0     kernel32:KERNEL32.dll
 0005:000006d8       __imp_WriteConsoleW        00000001400986d8     kernel32:KERNEL32.dll
 0005:000006e0       __imp_OutputDebugStringA   00000001400986e0     kernel32:KERNEL32.dll
 0005:000006e8       __imp_LoadLibraryW         00000001400986e8     kernel32:KERNEL32.dll
 0005:000006f0       __imp_LoadLibraryExW       00000001400986f0     kernel32:KERNEL32.dll
 0005:000006f8       __imp_WaitForSingleObjectEx 00000001400986f8     kernel32:KERNEL32.dll
 0005:00000700       __imp_OutputDebugStringW   0000000140098700     kernel32:KERNEL32.dll
 0005:00000708       __imp_SetConsoleCtrlHandler 0000000140098708     kernel32:KERNEL32.dll
 0005:00000710       __imp_ReadFile             0000000140098710     kernel32:KERNEL32.dll
 0005:00000718       __imp_EncodePointer        0000000140098718     kernel32:KERNEL32.dll
 0005:00000720       __imp_DecodePointer        0000000140098720     kernel32:KERNEL32.dll
 0005:00000728       __imp_GetCommandLineA      0000000140098728     kernel32:KERNEL32.dll
 0005:00000730       __imp_IsDebuggerPresent    0000000140098730     kernel32:KERNEL32.dll
 0005:00000738       __imp_IsProcessorFeaturePresent 0000000140098738     kernel32:KERNEL32.dll
 0005:00000740       __imp_GetModuleFileNameW   0000000140098740     kernel32:KERNEL32.dll
 0005:00000748       __imp_GetModuleHandleExW   0000000140098748     kernel32:KERNEL32.dll
 0005:00000750       __imp_HeapSize             0000000140098750     kernel32:KERNEL32.dll
 0005:00000758       __imp_HeapValidate         0000000140098758     kernel32:KERNEL32.dll
 0005:00000760       __imp_GetSystemInfo        0000000140098760     kernel32:KERNEL32.dll
 0005:00000768       __imp_EnterCriticalSection 0000000140098768     kernel32:KERNEL32.dll
 0005:00000770       __imp_LeaveCriticalSection 0000000140098770     kernel32:KERNEL32.dll
 0005:00000778       __imp_InitializeCriticalSectionAndSpinCount 0000000140098778     kernel32:KERNEL32.dll
 0005:00000780       __imp_RtlUnwindEx          0000000140098780     kernel32:KERNEL32.dll
 0005:00000788       __imp_GetLastError         0000000140098788     kernel32:KERNEL32.dll
 0005:00000790       __imp_MultiByteToWideChar  0000000140098790     kernel32:KERNEL32.dll
 0005:00000798       __imp_GetConsoleMode       0000000140098798     kernel32:KERNEL32.dll
 0005:000007a0       __imp_ReadConsoleW         00000001400987a0     kernel32:KERNEL32.dll
 0005:000007a8       __imp_SetFilePointer       00000001400987a8     kernel32:KERNEL32.dll
 0005:000007b0       __imp_SetFilePointerEx     00000001400987b0     kernel32:KERNEL32.dll
 0005:000007b8       __imp_GetStdHandle         00000001400987b8     kernel32:KERNEL32.dll
 0005:000007c0       __imp_SetEndOfFile         00000001400987c0     kernel32:KERNEL32.dll
 0005:000007c8       __imp_DeleteCriticalSection 00000001400987c8     kernel32:KERNEL32.dll
 0005:000007d0       __imp_InitOnceExecuteOnce  00000001400987d0     kernel32:KERNEL32.dll
 0005:000007d8       __imp_GetStartupInfoW      00000001400987d8     kernel32:KERNEL32.dll
 0005:000007e0       __imp_WriteFile            00000001400987e0     kernel32:KERNEL32.dll
 0005:000007e8       __imp_WideCharToMultiByte  00000001400987e8     kernel32:KERNEL32.dll
 0005:000007f0       __imp_GetConsoleCP         00000001400987f0     kernel32:KERNEL32.dll
 0005:000007f8       __imp_SetLastError         00000001400987f8     kernel32:KERNEL32.dll
 0005:00000800       __imp_GetCurrentThread     0000000140098800     kernel32:KERNEL32.dll
 0005:00000808       __imp_GetCurrentThreadId   0000000140098808     kernel32:KERNEL32.dll
 0005:00000810       __imp_GetProcAddress       0000000140098810     kernel32:KERNEL32.dll
 0005:00000818       __imp_AreFileApisANSI      0000000140098818     kernel32:KERNEL32.dll
 0005:00000820       __imp_GetProcessHeap       0000000140098820     kernel32:KERNEL32.dll
 0005:00000828       __imp_GetModuleFileNameA   0000000140098828     kernel32:KERNEL32.dll
 0005:00000830       __imp_QueryPerformanceCounter 0000000140098830     kernel32:KERNEL32.dll
 0005:00000838       __imp_GetSystemTimeAsFileTime 0000000140098838     kernel32:KERNEL32.dll
 0005:00000840       __imp_GetTickCount64       0000000140098840     kernel32:KERNEL32.dll
 0005:00000848       __imp_GetEnvironmentStringsW 0000000140098848     kernel32:KERNEL32.dll
 0005:00000850       __imp_FreeEnvironmentStringsW 0000000140098850     kernel32:KERNEL32.dll
 0005:00000858       __imp_RtlCaptureContext    0000000140098858     kernel32:KERNEL32.dll
 0005:00000860       __imp_RtlLookupFunctionEntry 0000000140098860     kernel32:KERNEL32.dll
 0005:00000868       __imp_RtlVirtualUnwind     0000000140098868     kernel32:KERNEL32.dll
 0005:00000870       __imp_UnhandledExceptionFilter 0000000140098870     kernel32:KERNEL32.dll
 0005:00000878       __imp_SetUnhandledExceptionFilter 0000000140098878     kernel32:KERNEL32.dll
 0005:00000880       __imp_FlsAlloc             0000000140098880     kernel32:KERNEL32.dll
 0005:00000888       __imp_FlsGetValue          0000000140098888     kernel32:KERNEL32.dll
 0005:00000890       __imp_FlsSetValue          0000000140098890     kernel32:KERNEL32.dll
 0005:00000898       __imp_FlsFree              0000000140098898     kernel32:KERNEL32.dll
 0005:000008a0       __imp_GetCurrentProcess    00000001400988a0     kernel32:KERNEL32.dll
 0005:000008a8       __imp_TerminateProcess     00000001400988a8     kernel32:KERNEL32.dll
 0005:000008b0       __imp_GetModuleHandleW     00000001400988b0     kernel32:KERNEL32.dll
 0005:000008b8       __imp_FatalAppExitA        00000001400988b8     kernel32:KERNEL32.dll
 0005:000008c0       \177KERNEL32_NULL_THUNK_DATA 00000001400988c0     kernel32:KERNEL32.dll
 0005:000009a8       __imp_LoadIconA            00000001400989a8     user32:USER32.dll
 0005:000009b0       __imp_LoadCursorA          00000001400989b0     user32:USER32.dll
 0005:000009b8       __imp_EndPaint             00000001400989b8     user32:USER32.dll
 0005:000009c0       __imp_BeginPaint           00000001400989c0     user32:USER32.dll
 0005:000009c8       __imp_UpdateWindow         00000001400989c8     user32:USER32.dll
 0005:000009d0       __imp_TranslateAcceleratorA 00000001400989d0     user32:USER32.dll
 0005:000009d8       __imp_LoadAcceleratorsA    00000001400989d8     user32:USER32.dll
 0005:000009e0       __imp_EndDialog            00000001400989e0     user32:USER32.dll
 0005:000009e8       __imp_DialogBoxParamA      00000001400989e8     user32:USER32.dll
 0005:000009f0       __imp_ShowWindow           00000001400989f0     user32:USER32.dll
 0005:000009f8       __imp_DestroyWindow        00000001400989f8     user32:USER32.dll
 0005:00000a00       __imp_CreateWindowExA      0000000140098a00     user32:USER32.dll
 0005:00000a08       __imp_RegisterClassExA     0000000140098a08     user32:USER32.dll
 0005:00000a10       __imp_DefWindowProcA       0000000140098a10     user32:USER32.dll
 0005:00000a18       __imp_DispatchMessageA     0000000140098a18     user32:USER32.dll
 0005:00000a20       __imp_TranslateMessage     0000000140098a20     user32:USER32.dll
 0005:00000a28       __imp_GetMessageA          0000000140098a28     user32:USER32.dll
 0005:00000a30       __imp_LoadStringA          0000000140098a30     user32:USER32.dll
 0005:00000a38       __imp_GetActiveWindow      0000000140098a38     user32:USER32.dll
 0005:00000a40       __imp_MessageBoxA          0000000140098a40     user32:USER32.dll
 0005:00000a48       \177USER32_NULL_THUNK_DATA 0000000140098a48     user32:USER32.dll
 0005:00000ac0       __imp_GetMemoryPool        0000000140098ac0     utilities:utilities.dll
 0005:00000ac8       __imp_GetInterfaceRegistration 0000000140098ac8     utilities:utilities.dll
 0005:00000ad0       __imp_?ReleaseAllInterfacePointers@InterfaceRegistration@@QEAAXXZ 0000000140098ad0     utilities:utilities.dll
 0005:00000ad8       __imp_?ReleaseInterfacePointer@InterfaceRegistration@@QEAAXPEBDPEAX@Z 0000000140098ad8     utilities:utilities.dll
 0005:00000ae0       __imp_?GetInterface@InterfaceRegistration@@QEAAPEAXPEBDH@Z 0000000140098ae0     utilities:utilities.dll
 0005:00000ae8       __imp_??0InterfaceElement@@QEAA@P6APEAXXZP6AXPEAX@ZPEBDH_N@Z 0000000140098ae8     utilities:utilities.dll
 0005:00000af0       __imp_Warning              0000000140098af0     utilities:utilities.dll
 0005:00000af8       __imp_Msg                  0000000140098af8     utilities:utilities.dll
 0005:00000b00       \177utilities_NULL_THUNK_DATA 0000000140098b00     utilities:utilities.dll

 entry point at        0001:000063c0

